

Microchip MPLAB XC8 Assembler V2.10 build 88905656 
                                                                                               Fri Dec 06 16:16:24 2019

Microchip MPLAB XC8 C Compiler v2.10 (Free license) build 20190730164152 Og1 
     1                           	processor	18F4550
     2                           	fnconf	rparam,??,?,0
     3                           	opt	pw 120
     4                           	opt	flic
     5                           	psect	idataCOMRAM,global,class=CODE,delta=1,noexec
     6                           	psect	idataBANK0,global,class=CODE,delta=1,noexec
     7                           	psect	idataBANK1,global,class=CODE,delta=1,noexec
     8                           	psect	idataBANK2,global,class=CODE,delta=1,noexec
     9                           	psect	cinit,global,reloc=2,class=CODE,delta=1
    10                           	psect	bssCOMRAM,global,class=COMRAM,space=1,delta=1,noexec
    11                           	psect	dataCOMRAM,global,class=COMRAM,space=1,delta=1,noexec
    12                           	psect	bssBANK0,global,class=BANK0,space=1,delta=1,lowdata,noexec
    13                           	psect	dataBANK0,global,class=BANK0,space=1,delta=1,lowdata,noexec
    14                           	psect	dataBANK1,global,class=BANK1,space=1,delta=1,lowdata,noexec
    15                           	psect	dataBANK2,global,class=BANK2,space=1,delta=1,lowdata,noexec
    16                           	psect	cstackBANK0,global,class=BANK0,space=1,delta=1,noexec
    17                           	psect	cstackCOMRAM,global,class=COMRAM,space=1,delta=1,noexec
    18                           	psect	text0,global,reloc=2,class=CODE,delta=1
    19                           	psect	text1,global,reloc=2,class=CODE,delta=1
    20                           	psect	text2,global,reloc=2,class=CODE,delta=1
    21                           	psect	text3,global,reloc=2,class=CODE,delta=1
    22                           	psect	text4,global,reloc=2,class=CODE,delta=1
    23                           	psect	text5,global,reloc=2,class=CODE,delta=1
    24                           	psect	text6,global,reloc=2,class=CODE,delta=1
    25                           	psect	text7,global,reloc=2,class=CODE,delta=1
    26                           	psect	text8,global,reloc=2,class=CODE,delta=1
    27                           	psect	text9,global,reloc=2,class=CODE,delta=1
    28                           	psect	text10,global,reloc=2,class=CODE,delta=1
    29                           	psect	text11,global,reloc=2,class=CODE,delta=1
    30                           	psect	text12,global,reloc=2,class=CODE,delta=1
    31                           	psect	text13,global,reloc=2,class=CODE,delta=1
    32                           	psect	text14,global,reloc=2,class=CODE,delta=1
    33                           	psect	text15,global,reloc=2,class=CODE,delta=1
    34                           	psect	text16,global,reloc=2,class=CODE,delta=1
    35                           	psect	text17,global,reloc=2,class=CODE,delta=1
    36                           	psect	text18,global,reloc=2,class=CODE,delta=1
    37                           	psect	text19,global,reloc=2,class=CODE,delta=1
    38                           	psect	text20,global,reloc=2,class=CODE,delta=1
    39                           	psect	text21,global,reloc=2,class=CODE,delta=1,group=1
    40                           	psect	text22,global,reloc=2,class=CODE,delta=1,group=1
    41                           	psect	text23,global,reloc=2,class=CODE,delta=1,group=1
    42                           	psect	text24,global,reloc=2,class=CODE,delta=1,group=1
    43                           	psect	text25,global,reloc=2,class=CODE,delta=1,group=1
    44                           	psect	text26,global,reloc=2,class=CODE,delta=1
    45                           	psect	text27,global,reloc=2,class=CODE,delta=1,group=2
    46                           	psect	text28,global,reloc=2,class=CODE,delta=1
    47                           	psect	text29,global,reloc=2,class=CODE,delta=1
    48                           	psect	text30,global,reloc=2,class=CODE,delta=1
    49                           	psect	text31,global,reloc=2,class=CODE,delta=1
    50                           	psect	text32,global,reloc=2,class=CODE,delta=1
    51                           	psect	text33,global,reloc=2,class=CODE,delta=1
    52                           	psect	text34,global,reloc=2,class=CODE,delta=1
    53                           	psect	text35,global,reloc=2,class=CODE,delta=1
    54                           	psect	text36,global,reloc=2,class=CODE,delta=1
    55                           	psect	text37,global,reloc=2,class=CODE,delta=1
    56                           	psect	text38,global,reloc=2,class=CODE,delta=1
    57                           	psect	text39,global,reloc=2,class=CODE,delta=1
    58                           	psect	text40,global,reloc=2,class=CODE,delta=1
    59                           	psect	text41,global,reloc=2,class=CODE,delta=1
    60                           	psect	text42,global,reloc=2,class=CODE,delta=1
    61                           	psect	text43,global,reloc=2,class=CODE,delta=1
    62                           	psect	text44,global,reloc=2,class=CODE,delta=1
    63                           	psect	text45,global,reloc=2,class=CODE,delta=1
    64                           	psect	text46,global,reloc=2,class=CODE,delta=1
    65                           	psect	text47,global,reloc=2,class=CODE,delta=1
    66                           	psect	text48,global,reloc=2,class=CODE,delta=1
    67                           	psect	text49,global,reloc=2,class=CODE,delta=1
    68                           	psect	text50,global,reloc=2,class=CODE,delta=1
    69                           	psect	text51,global,reloc=2,class=CODE,delta=1
    70                           	psect	text52,global,reloc=2,class=CODE,delta=1,group=1
    71                           	psect	text53,global,reloc=2,class=CODE,delta=1,group=1
    72                           	psect	text54,global,reloc=2,class=CODE,delta=1
    73                           	psect	text55,global,reloc=2,class=CODE,delta=1
    74                           	psect	text56,global,reloc=2,class=CODE,delta=1
    75                           	psect	text57,global,reloc=2,class=CODE,delta=1
    76                           	psect	intcode,global,reloc=2,class=CODE,delta=1
    77                           	psect	intcode_body,global,reloc=2,class=CODE,delta=1
    78                           	psect	text59,global,reloc=2,class=CODE,delta=1
    79                           	psect	text60,global,reloc=2,class=CODE,delta=1
    80                           	psect	text61,global,reloc=2,class=CODE,delta=1
    81                           	psect	text62,global,reloc=2,class=CODE,delta=1
    82                           	psect	text63,global,reloc=2,class=CODE,delta=1
    83                           	psect	text64,global,reloc=2,class=CODE,delta=1
    84                           	psect	text65,global,reloc=2,class=CODE,delta=1
    85                           	psect	text66,global,reloc=2,class=CODE,delta=1
    86                           	psect	text67,global,reloc=2,class=CODE,delta=1
    87                           	psect	text68,global,reloc=2,class=CODE,delta=1
    88                           	psect	text69,global,reloc=2,class=CODE,delta=1
    89                           	psect	text70,global,reloc=2,class=CODE,delta=1
    90                           	psect	text71,global,reloc=2,class=CODE,delta=1
    91                           	psect	text72,global,reloc=2,class=CODE,delta=1
    92                           	psect	text73,global,reloc=2,class=CODE,delta=1
    93                           	psect	text74,global,reloc=2,class=CODE,delta=1
    94                           	psect	text75,global,reloc=2,class=CODE,delta=1
    95                           	psect	text76,global,reloc=2,class=CODE,delta=1
    96                           	psect	text77,global,reloc=2,class=CODE,delta=1
    97                           	psect	text78,global,reloc=2,class=CODE,delta=1
    98                           	psect	text79,global,reloc=2,class=CODE,delta=1
    99                           	psect	text80,global,reloc=2,class=CODE,delta=1
   100                           	psect	text81,global,reloc=2,class=CODE,delta=1
   101                           	psect	intsave_regs,global,class=BIGRAM,space=1,delta=1,noexec
   102                           	psect	rparam,global,class=COMRAM,space=1,delta=1,noexec
   103                           	psect	temp,global,ovrld,common,class=COMRAM,space=1,delta=1
   104  0000                     
   105                           ; Version 2.10
   106                           ; Generated 31/07/2019 GMT
   107                           ; 
   108                           ; Copyright © 2019, Microchip Technology Inc. and its subsidiaries ("Microchip")
   109                           ; All rights reserved.
   110                           ; 
   111                           ; This software is developed by Microchip Technology Inc. and its subsidiaries ("Microch
      +                          ip").
   112                           ; 
   113                           ; Redistribution and use in source and binary forms, with or without modification, are
   114                           ; permitted provided that the following conditions are met:
   115                           ; 
   116                           ;     1. Redistributions of source code must retain the above copyright notice, this lis
      +                          t of
   117                           ;        conditions and the following disclaimer.
   118                           ; 
   119                           ;     2. Redistributions in binary form must reproduce the above copyright notice, this 
      +                          list
   120                           ;        of conditions and the following disclaimer in the documentation and/or other
   121                           ;        materials provided with the distribution.
   122                           ; 
   123                           ;     3. Microchip's name may not be used to endorse or promote products derived from th
      +                          is
   124                           ;        software without specific prior written permission.
   125                           ; 
   126                           ; THIS SOFTWARE IS PROVIDED BY MICROCHIP "AS IS" AND ANY EXPRESS OR IMPLIED WARRANTIES,
   127                           ; INCLUDING, BUT NOT LIMITED TO, THE IMPLIED WARRANTIES OF MERCHANTABILITY AND FITNESS F
      +                          OR
   128                           ; PURPOSE ARE DISCLAIMED.  IN NO EVENT SHALL MICROCHIP BE LIABLE FOR ANY DIRECT, INDIREC
      +                          T,
   129                           ; INCIDENTAL, SPECIAL, EXEMPLARY, OR CONSEQUENTIAL DAMAGES (INCLUDING BUT NOT LIMITED TO
   130                           ; PROCUREMENT OF SUBSTITUTE GOODS OR SERVICES; LOSS OF USE, DATA OR PROFITS; OR BUSINESS
   131                           ; INTERRUPTION) HOWSOEVER CAUSED AND ON ANY THEORY OF LIABILITY, WHETHER IN CONTRACT, ST
      +                          RICT
   132                           ; LIABILITY, OR TORT (INCLUDING NEGLIGENCE OR OTHERWISE) ARISING IN ANY WAY OUT OF THE U
      +                          SE OF
   133                           ; THIS SOFTWARE, EVEN IF ADVISED OF THE POSSIBILITY OF SUCH DAMAGE.
   134                           ; 
   135                           ; 
   136                           ; Code-generator required, PIC18F4550 Definitions
   137                           ; 
   138                           ; SFR Addresses
   139  0000                     
   140                           	psect	idataCOMRAM
   141  0034C6                     __pidataCOMRAM:
   142                           	opt callstack 0
   143                           
   144                           ;initializer for LIMITEX@F3665
   145  0034C6  4C                 	db	76
   146  0034C7  49                 	db	73
   147  0034C8  4D                 	db	77
   148  0034C9  49                 	db	73
   149  0034CA  54                 	db	84
   150  0034CB  45                 	db	69
   151  0034CC  20                 	db	32
   152  0034CD  45                 	db	69
   153  0034CE  4E                 	db	78
   154  0034CF  20                 	db	32
   155  0034D0  58                 	db	88
   156  0034D1  0A                 	db	10
   157  0034D2  0D                 	db	13
   158  0034D3  00                 	db	0
   159                           
   160                           ;initializer for _PYN
   161  0034D4  EC                 	db	low _Yvalorn
   162  0034D5  00                 	db	high _Yvalorn
   163                           
   164                           ;initializer for _PXN
   165  0034D6  EE                 	db	low _Xvalorn
   166  0034D7  00                 	db	high _Xvalorn
   167                           
   168                           ;initializer for _PY
   169  0034D8  F0                 	db	low _YvalorR
   170  0034D9  00                 	db	high _YvalorR
   171                           
   172                           ;initializer for _PX
   173  0034DA  F2                 	db	low _XvalorR
   174  0034DB  00                 	db	high _XvalorR
   175                           
   176                           	psect	idataBANK0
   177  0031E0                     __pidataBANK0:
   178                           	opt callstack 0
   179                           
   180                           ;initializer for imprimirSet@F3622
   181  0031E0  58                 	db	88
   182  0031E1  3D                 	db	61
   183  0031E2  30                 	db	48
   184  0031E3  30                 	db	48
   185  0031E4  30                 	db	48
   186  0031E5  20                 	db	32
   187  0031E6  59                 	db	89
   188  0031E7  3D                 	db	61
   189  0031E8  30                 	db	48
   190  0031E9  30                 	db	48
   191  0031EA  30                 	db	48
   192  0031EB  0A                 	db	10
   193  0031EC  0D                 	db	13
   194  0031ED  00                 	db	0
   195                           
   196                           ;initializer for COORReal@F3692
   197  0031EE  58                 	db	88
   198  0031EF  3D                 	db	61
   199  0031F0  30                 	db	48
   200  0031F1  30                 	db	48
   201  0031F2  30                 	db	48
   202  0031F3  20                 	db	32
   203  0031F4  59                 	db	89
   204  0031F5  3D                 	db	61
   205  0031F6  30                 	db	48
   206  0031F7  30                 	db	48
   207  0031F8  30                 	db	48
   208  0031F9  00                 	db	0
   209                           
   210                           ;initializer for IMP_ACCION@F3652
   211  0031FA  41                 	db	65
   212  0031FB  63                 	db	99
   213  0031FC  63                 	db	99
   214  0031FD  69                 	db	105
   215  0031FE  6F                 	db	111
   216  0031FF  6E                 	db	110
   217  003200  0A                 	db	10
   218  003201  0D                 	db	13
   219  003202  00                 	db	0
   220                           
   221                           ;initializer for Tardanza@F3696
   222  003203  45                 	db	69
   223  003204  32                 	db	50
   224  003205  00                 	db	0
   225                           
   226                           ;initializer for NOcoordenada@F3681
   227  003206  45                 	db	69
   228  003207  31                 	db	49
   229  003208  00                 	db	0
   230                           
   231                           ;initializer for NOcomando@F3677
   232  003209  45                 	db	69
   233  00320A  30                 	db	48
   234  00320B  00                 	db	0
   235                           
   236                           ;initializer for Menimp@F3611
   237  00320C  43                 	db	67
   238  00320D  4C                 	db	76
   239  00320E  00                 	db	0
   240                           
   241                           ;initializer for OCUPADO@F3685
   242  00320F  42                 	db	66
   243  003210  00                 	db	0
   244                           
   245                           ;initializer for Mensaje_comando_completado@F3636
   246  003211  52                 	db	82
   247  003212  00                 	db	0
   248                           
   249                           	psect	idataBANK1
   250  0022C2                     __pidataBANK1:
   251                           	opt callstack 0
   252                           
   253                           ;initializer for PREGUNTA@F3648
   254  0022C2  42                 	db	66
   255  0022C3  6F                 	db	111
   256  0022C4  72                 	db	114
   257  0022C5  72                 	db	114
   258  0022C6  61                 	db	97
   259  0022C7  72                 	db	114
   260  0022C8  61                 	db	97
   261  0022C9  73                 	db	115
   262  0022CA  20                 	db	32
   263  0022CB  6C                 	db	108
   264  0022CC  61                 	db	97
   265  0022CD  20                 	db	32
   266  0022CE  69                 	db	105
   267  0022CF  6E                 	db	110
   268  0022D0  73                 	db	115
   269  0022D1  74                 	db	116
   270  0022D2  72                 	db	114
   271  0022D3  75                 	db	117
   272  0022D4  63                 	db	99
   273  0022D5  63                 	db	99
   274  0022D6  69                 	db	105
   275  0022D7  6F                 	db	111
   276  0022D8  6E                 	db	110
   277  0022D9  20                 	db	32
   278  0022DA  61                 	db	97
   279  0022DB  63                 	db	99
   280  0022DC  74                 	db	116
   281  0022DD  75                 	db	117
   282  0022DE  61                 	db	97
   283  0022DF  6C                 	db	108
   284  0022E0  20                 	db	32
   285  0022E1  45                 	db	69
   286  0022E2  73                 	db	115
   287  0022E3  74                 	db	116
   288  0022E4  61                 	db	97
   289  0022E5  73                 	db	115
   290  0022E6  20                 	db	32
   291  0022E7  73                 	db	115
   292  0022E8  65                 	db	101
   293  0022E9  67                 	db	103
   294  0022EA  75                 	db	117
   295  0022EB  72                 	db	114
   296  0022EC  6F                 	db	111
   297  0022ED  3F                 	db	63
   298  0022EE  20                 	db	32
   299  0022EF  31                 	db	49
   300  0022F0  53                 	db	83
   301  0022F1  69                 	db	105
   302  0022F2  20                 	db	32
   303  0022F3  32                 	db	50
   304  0022F4  4E                 	db	78
   305  0022F5  6F                 	db	111
   306  0022F6  0A                 	db	10
   307  0022F7  0D                 	db	13
   308  0022F8  00                 	db	0
   309                           
   310                           ;initializer for NOHAYESPACIO@F3640
   311  0022F9  4E                 	db	78
   312  0022FA  6F                 	db	111
   313  0022FB  20                 	db	32
   314  0022FC  70                 	db	112
   315  0022FD  75                 	db	117
   316  0022FE  65                 	db	101
   317  0022FF  64                 	db	100
   318  002300  65                 	db	101
   319  002301  73                 	db	115
   320  002302  20                 	db	32
   321  002303  65                 	db	101
   322  002304  73                 	db	115
   323  002305  63                 	db	99
   324  002306  72                 	db	114
   325  002307  69                 	db	105
   326  002308  62                 	db	98
   327  002309  69                 	db	105
   328  00230A  72                 	db	114
   329  00230B  20                 	db	32
   330  00230C  6D                 	db	109
   331  00230D  61                 	db	97
   332  00230E  73                 	db	115
   333  00230F  20                 	db	32
   334  002310  69                 	db	105
   335  002311  6E                 	db	110
   336  002312  73                 	db	115
   337  002313  74                 	db	116
   338  002314  72                 	db	114
   339  002315  75                 	db	117
   340  002316  63                 	db	99
   341  002317  63                 	db	99
   342  002318  69                 	db	105
   343  002319  6F                 	db	111
   344  00231A  6E                 	db	110
   345  00231B  65                 	db	101
   346  00231C  73                 	db	115
   347  00231D  0A                 	db	10
   348  00231E  0D                 	db	13
   349  00231F  00                 	db	0
   350                           
   351                           ;initializer for MENUINS@F3644
   352  002320  31                 	db	49
   353  002321  4D                 	db	77
   354  002322  6F                 	db	111
   355  002323  76                 	db	118
   356  002324  69                 	db	105
   357  002325  6D                 	db	109
   358  002326  69                 	db	105
   359  002327  65                 	db	101
   360  002328  6E                 	db	110
   361  002329  74                 	db	116
   362  00232A  6F                 	db	111
   363  00232B  20                 	db	32
   364  00232C  32                 	db	50
   365  00232D  41                 	db	65
   366  00232E  63                 	db	99
   367  00232F  63                 	db	99
   368  002330  69                 	db	105
   369  002331  6F                 	db	111
   370  002332  6E                 	db	110
   371  002333  20                 	db	32
   372  002334  33                 	db	51
   373  002335  54                 	db	84
   374  002336  65                 	db	101
   375  002337  72                 	db	114
   376  002338  6D                 	db	109
   377  002339  69                 	db	105
   378  00233A  6E                 	db	110
   379  00233B  61                 	db	97
   380  00233C  72                 	db	114
   381  00233D  0A                 	db	10
   382  00233E  0D                 	db	13
   383  00233F  00                 	db	0
   384                           
   385                           ;initializer for PARO2@F3673
   386  002340  42                 	db	66
   387  002341  4F                 	db	79
   388  002342  54                 	db	84
   389  002343  4F                 	db	79
   390  002344  4E                 	db	78
   391  002345  20                 	db	32
   392  002346  44                 	db	68
   393  002347  45                 	db	69
   394  002348  20                 	db	32
   395  002349  50                 	db	80
   396  00234A  41                 	db	65
   397  00234B  52                 	db	82
   398  00234C  4F                 	db	79
   399  00234D  20                 	db	32
   400  00234E  50                 	db	80
   401  00234F  52                 	db	82
   402  002350  45                 	db	69
   403  002351  53                 	db	83
   404  002352  49                 	db	73
   405  002353  4F                 	db	79
   406  002354  4E                 	db	78
   407  002355  41                 	db	65
   408  002356  44                 	db	68
   409  002357  4F                 	db	79
   410  002358  0A                 	db	10
   411  002359  0D                 	db	13
   412  00235A  00                 	db	0
   413                           
   414                           ;initializer for SETPOINEXIST@F3632
   415  00235B  59                 	db	89
   416  00235C  61                 	db	97
   417  00235D  20                 	db	32
   418  00235E  65                 	db	101
   419  00235F  78                 	db	120
   420  002360  69                 	db	105
   421  002361  73                 	db	115
   422  002362  74                 	db	116
   423  002363  65                 	db	101
   424  002364  20                 	db	32
   425  002365  65                 	db	101
   426  002366  73                 	db	115
   427  002367  74                 	db	116
   428  002368  61                 	db	97
   429  002369  20                 	db	32
   430  00236A  64                 	db	100
   431  00236B  69                 	db	105
   432  00236C  72                 	db	114
   433  00236D  65                 	db	101
   434  00236E  63                 	db	99
   435  00236F  63                 	db	99
   436  002370  69                 	db	105
   437  002371  6F                 	db	111
   438  002372  6E                 	db	110
   439  002373  0A                 	db	10
   440  002374  0D                 	db	13
   441  002375  00                 	db	0
   442                           
   443                           ;initializer for SETNOEX@F3628
   444  002376  4E                 	db	78
   445  002377  6F                 	db	111
   446  002378  20                 	db	32
   447  002379  65                 	db	101
   448  00237A  78                 	db	120
   449  00237B  69                 	db	105
   450  00237C  73                 	db	115
   451  00237D  74                 	db	116
   452  00237E  65                 	db	101
   453  00237F  20                 	db	32
   454  002380  65                 	db	101
   455  002381  6C                 	db	108
   456  002382  20                 	db	32
   457  002383  53                 	db	83
   458  002384  65                 	db	101
   459  002385  74                 	db	116
   460  002386  70                 	db	112
   461  002387  6F                 	db	111
   462  002388  69                 	db	105
   463  002389  6E                 	db	110
   464  00238A  74                 	db	116
   465  00238B  0A                 	db	10
   466  00238C  0D                 	db	13
   467  00238D  00                 	db	0
   468                           
   469                           ;initializer for LIMITEY@F3669
   470  00238E  4C                 	db	76
   471  00238F  49                 	db	73
   472  002390  4D                 	db	77
   473  002391  49                 	db	73
   474  002392  54                 	db	84
   475  002393  45                 	db	69
   476  002394  20                 	db	32
   477  002395  45                 	db	69
   478  002396  4E                 	db	78
   479  002397  20                 	db	32
   480  002398  59                 	db	89
   481  002399  0A                 	db	10
   482  00239A  0D                 	db	13
   483  00239B  00                 	db	0
   484                           
   485                           	psect	idataBANK2
   486  002FB4                     __pidataBANK2:
   487                           	opt callstack 0
   488                           
   489                           ;initializer for PREGUNTA2@F3661
   490  002FB4  45                 	db	69
   491  002FB5  73                 	db	115
   492  002FB6  74                 	db	116
   493  002FB7  61                 	db	97
   494  002FB8  20                 	db	32
   495  002FB9  65                 	db	101
   496  002FBA  73                 	db	115
   497  002FBB  20                 	db	32
   498  002FBC  6C                 	db	108
   499  002FBD  61                 	db	97
   500  002FBE  20                 	db	32
   501  002FBF  69                 	db	105
   502  002FC0  6E                 	db	110
   503  002FC1  73                 	db	115
   504  002FC2  74                 	db	116
   505  002FC3  72                 	db	114
   506  002FC4  75                 	db	117
   507  002FC5  63                 	db	99
   508  002FC6  63                 	db	99
   509  002FC7  69                 	db	105
   510  002FC8  6F                 	db	111
   511  002FC9  6E                 	db	110
   512  002FCA  20                 	db	32
   513  002FCB  61                 	db	97
   514  002FCC  20                 	db	32
   515  002FCD  65                 	db	101
   516  002FCE  6A                 	db	106
   517  002FCF  65                 	db	101
   518  002FD0  63                 	db	99
   519  002FD1  75                 	db	117
   520  002FD2  74                 	db	116
   521  002FD3  61                 	db	97
   522  002FD4  72                 	db	114
   523  002FD5  20                 	db	32
   524  002FD6  45                 	db	69
   525  002FD7  73                 	db	115
   526  002FD8  74                 	db	116
   527  002FD9  61                 	db	97
   528  002FDA  73                 	db	115
   529  002FDB  20                 	db	32
   530  002FDC  73                 	db	115
   531  002FDD  65                 	db	101
   532  002FDE  67                 	db	103
   533  002FDF  75                 	db	117
   534  002FE0  72                 	db	114
   535  002FE1  6F                 	db	111
   536  002FE2  3F                 	db	63
   537  002FE3  20                 	db	32
   538  002FE4  31                 	db	49
   539  002FE5  53                 	db	83
   540  002FE6  69                 	db	105
   541  002FE7  20                 	db	32
   542  002FE8  32                 	db	50
   543  002FE9  4E                 	db	78
   544  002FEA  6F                 	db	111
   545  002FEB  0A                 	db	10
   546  002FEC  0D                 	db	13
   547  002FED  00                 	db	0
   548  0000                     _TRISDbits	set	3989
   549  0000                     _CVRCONbits	set	4021
   550  0000                     _CMCON	set	4020
   551  0000                     _INTCON2bits	set	4081
   552  0000                     _RCONbits	set	4048
   553  0000                     _TRISBbits	set	3987
   554  0000                     _PIR2bits	set	4001
   555  0000                     _EECON2	set	4007
   556  0000                     _EECON1bits	set	4006
   557  0000                     _EEDATA	set	4008
   558  0000                     _EEADR	set	4009
   559  0000                     _OSCCON	set	4051
   560  0000                     _INTCONbits	set	4082
   561  0000                     _PORTBbits	set	3969
   562  0000                     _INTCON3bits	set	4080
   563  0000                     _RCREG	set	4014
   564  0000                     _TXREG	set	4013
   565  0000                     _SPBRG1	set	4015
   566  0000                     _RCSTAbits	set	4011
   567  0000                     _BAUDCONbits	set	4024
   568  0000                     _TXSTAbits	set	4012
   569  0000                     _ADCON1	set	4033
   570  0000                     _PORTCbits	set	3970
   571  0000                     _T2CONbits	set	4042
   572  0000                     _TMR2	set	4044
   573  0000                     _CCP2CON	set	4026
   574  0000                     _CCP1CON	set	4029
   575  0000                     _T2CON	set	4042
   576  0000                     _TRISCbits	set	3988
   577  0000                     _CCPR2L	set	4027
   578  0000                     _CCPR1L	set	4030
   579  0000                     _PR2	set	4043
   580  0000                     _PIR1bits	set	3998
   581  0000                     _RCREG1	set	4014
   582  0000                     _PORTDbits	set	3971
   583  0000                     _TXEN	set	32101
   584  0000                     _FERR	set	32090
   585  0000                     _CREN	set	32092
   586  0000                     _OERR	set	32089
   587                           
   588                           ; #config settings
   589  0000                     
   590                           	psect	cinit
   591  0027F8                     __pcinit:
   592                           	opt callstack 0
   593  0027F8                     start_initialization:
   594                           	opt callstack 0
   595  0027F8                     __initialization:
   596                           	opt callstack 0
   597                           
   598                           ; Initialize objects allocated to BANK2 (58 bytes)
   599                           ; load TBLPTR registers with __pidataBANK2
   600  0027F8  0EB4               	movlw	low __pidataBANK2
   601  0027FA  6EF6               	movwf	tblptrl,c
   602  0027FC  0E2F               	movlw	high __pidataBANK2
   603  0027FE  6EF7               	movwf	tblptrh,c
   604  002800  0E00               	movlw	low (__pidataBANK2 shr (0+16))
   605  002802  6EF8               	movwf	tblptru,c
   606  002804  EE02  F000         	lfsr	0,__pdataBANK2
   607  002808  EE10 F03A          	lfsr	1,58
   608  00280C                     copy_data0:
   609  00280C  0009               	tblrd		*+
   610  00280E  CFF5 FFEE          	movff	tablat,postinc0
   611  002812  50E5               	movf	postdec1,w,c
   612  002814  50E1               	movf	fsr1l,w,c
   613  002816  E1FA               	bnz	copy_data0
   614                           
   615                           ; Initialize objects allocated to BANK1 (218 bytes)
   616                           ; load TBLPTR registers with __pidataBANK1
   617  002818  0EC2               	movlw	low __pidataBANK1
   618  00281A  6EF6               	movwf	tblptrl,c
   619  00281C  0E22               	movlw	high __pidataBANK1
   620  00281E  6EF7               	movwf	tblptrh,c
   621  002820  0E00               	movlw	low (__pidataBANK1 shr (0+16))
   622  002822  6EF8               	movwf	tblptru,c
   623  002824  EE01  F000         	lfsr	0,__pdataBANK1
   624  002828  EE10 F0DA          	lfsr	1,218
   625  00282C                     copy_data1:
   626  00282C  0009               	tblrd		*+
   627  00282E  CFF5 FFEE          	movff	tablat,postinc0
   628  002832  50E5               	movf	postdec1,w,c
   629  002834  50E1               	movf	fsr1l,w,c
   630  002836  E1FA               	bnz	copy_data1
   631                           
   632                           ; Initialize objects allocated to BANK0 (51 bytes)
   633                           ; load TBLPTR registers with __pidataBANK0
   634  002838  0EE0               	movlw	low __pidataBANK0
   635  00283A  6EF6               	movwf	tblptrl,c
   636  00283C  0E31               	movlw	high __pidataBANK0
   637  00283E  6EF7               	movwf	tblptrh,c
   638  002840  0E00               	movlw	low (__pidataBANK0 shr (0+16))
   639  002842  6EF8               	movwf	tblptru,c
   640  002844  EE00  F0B2         	lfsr	0,__pdataBANK0
   641  002848  EE10 F033          	lfsr	1,51
   642  00284C                     copy_data2:
   643  00284C  0009               	tblrd		*+
   644  00284E  CFF5 FFEE          	movff	tablat,postinc0
   645  002852  50E5               	movf	postdec1,w,c
   646  002854  50E1               	movf	fsr1l,w,c
   647  002856  E1FA               	bnz	copy_data2
   648                           
   649                           ; Initialize objects allocated to COMRAM (22 bytes)
   650                           ; load TBLPTR registers with __pidataCOMRAM
   651  002858  0EC6               	movlw	low __pidataCOMRAM
   652  00285A  6EF6               	movwf	tblptrl,c
   653  00285C  0E34               	movlw	high __pidataCOMRAM
   654  00285E  6EF7               	movwf	tblptrh,c
   655  002860  0E00               	movlw	low (__pidataCOMRAM shr (0+16))
   656  002862  6EF8               	movwf	tblptru,c
   657  002864  EE00  F044         	lfsr	0,__pdataCOMRAM
   658  002868  EE10 F016          	lfsr	1,22
   659  00286C                     copy_data3:
   660  00286C  0009               	tblrd		*+
   661  00286E  CFF5 FFEE          	movff	tablat,postinc0
   662  002872  50E5               	movf	postdec1,w,c
   663  002874  50E1               	movf	fsr1l,w,c
   664  002876  E1FA               	bnz	copy_data3
   665                           
   666                           ; Clear objects allocated to BANK0 (15 bytes)
   667  002878  EE00  F0E5         	lfsr	0,__pbssBANK0
   668  00287C  0E0F               	movlw	15
   669  00287E                     clear_0:
   670  00287E  6AEE               	clrf	postinc0,c
   671  002880  06E8               	decf	wreg,f,c
   672  002882  E1FD               	bnz	clear_0
   673                           
   674                           ; Clear objects allocated to COMRAM (5 bytes)
   675  002884  6A5E               	clrf	(__pbssCOMRAM+4)& (0+255),c
   676  002886  6A5D               	clrf	(__pbssCOMRAM+3)& (0+255),c
   677  002888  6A5C               	clrf	(__pbssCOMRAM+2)& (0+255),c
   678  00288A  6A5B               	clrf	(__pbssCOMRAM+1)& (0+255),c
   679  00288C  6A5A               	clrf	__pbssCOMRAM& (0+255),c
   680  00288E                     end_of_initialization:
   681                           	opt callstack 0
   682  00288E                     __end_of__initialization:
   683                           	opt callstack 0
   684  00288E  905F               	bcf	int$flags,0,c	;clear compiler interrupt flag (level 1)
   685  002890  925F               	bcf	int$flags,1,c	;clear compiler interrupt flag (level 2)
   686  002892  0100               	movlb	0
   687  002894  EF09  F000         	goto	_main	;jump to C main() function
   688                           
   689                           	psect	bssCOMRAM
   690  00005A                     __pbssCOMRAM:
   691                           	opt callstack 0
   692  00005A                     _PB:
   693                           	opt callstack 0
   694  00005A                     	ds	2
   695  00005C                     _PA:
   696                           	opt callstack 0
   697  00005C                     	ds	2
   698  00005E                     _banderaaccion:
   699                           	opt callstack 0
   700  00005E                     	ds	1
   701                           
   702                           	psect	dataCOMRAM
   703  000044                     __pdataCOMRAM:
   704                           	opt callstack 0
   705  000044                     LIMITEX@F3665:
   706                           	opt callstack 0
   707  000044                     	ds	14
   708  000052                     _PYN:
   709                           	opt callstack 0
   710  000052                     	ds	2
   711  000054                     _PXN:
   712                           	opt callstack 0
   713  000054                     	ds	2
   714  000056                     _PY:
   715                           	opt callstack 0
   716  000056                     	ds	2
   717  000058                     _PX:
   718                           	opt callstack 0
   719  000058                     	ds	2
   720                           
   721                           	psect	bssBANK0
   722  0000E5                     __pbssBANK0:
   723                           	opt callstack 0
   724  0000E5                     _DifY:
   725                           	opt callstack 0
   726  0000E5                     	ds	2
   727  0000E7                     _DifX:
   728                           	opt callstack 0
   729  0000E7                     	ds	2
   730  0000E9                     _DirEEPROM:
   731                           	opt callstack 0
   732  0000E9                     	ds	1
   733  0000EA                     _E:
   734                           	opt callstack 0
   735  0000EA                     	ds	1
   736  0000EB                     _Acci:
   737                           	opt callstack 0
   738  0000EB                     	ds	1
   739  0000EC                     _Yvalorn:
   740                           	opt callstack 0
   741  0000EC                     	ds	2
   742  0000EE                     _Xvalorn:
   743                           	opt callstack 0
   744  0000EE                     	ds	2
   745  0000F0                     _YvalorR:
   746                           	opt callstack 0
   747  0000F0                     	ds	2
   748  0000F2                     _XvalorR:
   749                           	opt callstack 0
   750  0000F2                     	ds	2
   751                           
   752                           	psect	dataBANK0
   753  0000B2                     __pdataBANK0:
   754                           	opt callstack 0
   755  0000B2                     imprimirSet@F3622:
   756                           	opt callstack 0
   757  0000B2                     	ds	14
   758  0000C0                     COORReal@F3692:
   759                           	opt callstack 0
   760  0000C0                     	ds	12
   761  0000CC                     IMP_ACCION@F3652:
   762                           	opt callstack 0
   763  0000CC                     	ds	9
   764  0000D5                     Tardanza@F3696:
   765                           	opt callstack 0
   766  0000D5                     	ds	3
   767  0000D8                     NOcoordenada@F3681:
   768                           	opt callstack 0
   769  0000D8                     	ds	3
   770  0000DB                     NOcomando@F3677:
   771                           	opt callstack 0
   772  0000DB                     	ds	3
   773  0000DE                     Menimp@F3611:
   774                           	opt callstack 0
   775  0000DE                     	ds	3
   776  0000E1                     OCUPADO@F3685:
   777                           	opt callstack 0
   778  0000E1                     	ds	2
   779  0000E3                     Mensaje_comando_completado@F3636:
   780                           	opt callstack 0
   781  0000E3                     	ds	2
   782                           
   783                           	psect	dataBANK1
   784  000100                     __pdataBANK1:
   785                           	opt callstack 0
   786  000100                     PREGUNTA@F3648:
   787                           	opt callstack 0
   788  000100                     	ds	55
   789  000137                     NOHAYESPACIO@F3640:
   790                           	opt callstack 0
   791  000137                     	ds	39
   792  00015E                     MENUINS@F3644:
   793                           	opt callstack 0
   794  00015E                     	ds	32
   795  00017E                     PARO2@F3673:
   796                           	opt callstack 0
   797  00017E                     	ds	27
   798  000199                     SETPOINEXIST@F3632:
   799                           	opt callstack 0
   800  000199                     	ds	27
   801  0001B4                     SETNOEX@F3628:
   802                           	opt callstack 0
   803  0001B4                     	ds	24
   804  0001CC                     LIMITEY@F3669:
   805                           	opt callstack 0
   806  0001CC                     	ds	14
   807                           
   808                           	psect	dataBANK2
   809  000200                     __pdataBANK2:
   810                           	opt callstack 0
   811  000200                     PREGUNTA2@F3661:
   812                           	opt callstack 0
   813  000200                     	ds	58
   814                           
   815                           	psect	cstackBANK0
   816  000060                     __pcstackBANK0:
   817                           	opt callstack 0
   818  000060                     ??_Accion:
   819  000060                     ??_PWMDutyCycle1:
   820  000060                     ??_PWMDutyCycle2:
   821  000060                     ?_abs:
   822                           	opt callstack 0
   823  000060                     ?___wmul:
   824                           	opt callstack 0
   825  000060                     ?___lwmod:
   826                           	opt callstack 0
   827  000060                     ?___fladd:
   828                           	opt callstack 0
   829  000060                     UARTWrite@txData:
   830                           	opt callstack 0
   831  000060                     PROBLEMA@temp:
   832                           	opt callstack 0
   833  000060                     EEPROM_W@dato:
   834                           	opt callstack 0
   835  000060                     EEPROM_R@dir:
   836                           	opt callstack 0
   837  000060                     DIR_B@X:
   838                           	opt callstack 0
   839  000060                     DIR_A@X:
   840                           	opt callstack 0
   841  000060                     ENABLE_A@X:
   842                           	opt callstack 0
   843  000060                     ENABLE_B@X:
   844                           	opt callstack 0
   845  000060                     ___wmul@multiplier:
   846                           	opt callstack 0
   847  000060                     ___lwmod@dividend:
   848                           	opt callstack 0
   849  000060                     abs@a:
   850                           	opt callstack 0
   851  000060                     ___fladd@b:
   852                           	opt callstack 0
   853                           
   854                           ; 4 bytes @ 0x0
   855  000060                     	ds	1
   856  000061                     ?_ExtraerDato:
   857                           	opt callstack 0
   858  000061                     EEPROM_W@dir:
   859                           	opt callstack 0
   860  000061                     Mensaje_comando_completado@F:
   861                           	opt callstack 0
   862  000061                     OCUPADO@F:
   863                           	opt callstack 0
   864  000061                     SETPOINTBUSCAR@dato:
   865                           	opt callstack 0
   866  000061                     Menimp@comandos:
   867                           	opt callstack 0
   868  000061                     NOcomando@F:
   869                           	opt callstack 0
   870  000061                     NOcoordenada@F:
   871                           	opt callstack 0
   872  000061                     Tardanza@F:
   873                           	opt callstack 0
   874  000061                     UARTRead@Y:
   875                           	opt callstack 0
   876  000061                     IMP_ACCION@F:
   877                           	opt callstack 0
   878  000061                     SETNOEX@F:
   879                           	opt callstack 0
   880  000061                     SETPOINEXIST@F:
   881                           	opt callstack 0
   882  000061                     MENUINS@F:
   883                           	opt callstack 0
   884  000061                     NOHAYESPACIO@F:
   885                           	opt callstack 0
   886  000061                     PREGUNTA@F:
   887                           	opt callstack 0
   888  000061                     PREGUNTA2@F:
   889                           	opt callstack 0
   890                           
   891                           ; 58 bytes @ 0x1
   892  000061                     	ds	1
   893  000062                     ??_abs:
   894  000062                     CHECK@T:
   895                           	opt callstack 0
   896  000062                     BORRARINSTRUCCION@i:
   897                           	opt callstack 0
   898  000062                     PWMDutyCycle1@PERCENT:
   899                           	opt callstack 0
   900  000062                     PWMDutyCycle2@PERCENT:
   901                           	opt callstack 0
   902  000062                     GuardarsetN@dato:
   903                           	opt callstack 0
   904  000062                     GuardarsetX@X:
   905                           	opt callstack 0
   906  000062                     GuardarsetY@Y:
   907                           	opt callstack 0
   908  000062                     ___wmul@multiplicand:
   909                           	opt callstack 0
   910  000062                     ___lwmod@divisor:
   911                           	opt callstack 0
   912                           
   913                           ; 2 bytes @ 0x2
   914  000062                     	ds	1
   915  000063                     ??_ExtraerDato:
   916  000063                     ??_SETPOINTBUSCAR:
   917  000063                     Mensaje_comando_completado@C:
   918                           	opt callstack 0
   919  000063                     OCUPADO@C:
   920                           	opt callstack 0
   921  000063                     CHECK@i:
   922                           	opt callstack 0
   923                           
   924                           ; 1 bytes @ 0x3
   925  000063                     	ds	1
   926  000064                     Menimp@Send:
   927                           	opt callstack 0
   928  000064                     NOcomando@C:
   929                           	opt callstack 0
   930  000064                     NOcoordenada@C:
   931                           	opt callstack 0
   932  000064                     Tardanza@C:
   933                           	opt callstack 0
   934  000064                     PWMDutyCycle1@DUTY:
   935                           	opt callstack 0
   936  000064                     PWMDutyCycle2@DUTY:
   937                           	opt callstack 0
   938  000064                     GuardarsetN@dir:
   939                           	opt callstack 0
   940  000064                     GuardarsetX@XH:
   941                           	opt callstack 0
   942  000064                     GuardarsetY@YH:
   943                           	opt callstack 0
   944  000064                     ___lwmod@counter:
   945                           	opt callstack 0
   946  000064                     ___wmul@product:
   947                           	opt callstack 0
   948  000064                     ___fladd@a:
   949                           	opt callstack 0
   950                           
   951                           ; 4 bytes @ 0x4
   952  000064                     	ds	1
   953  000065                     ?___lwdiv:
   954                           	opt callstack 0
   955  000065                     Menimp@i:
   956                           	opt callstack 0
   957  000065                     UARTRead@X:
   958                           	opt callstack 0
   959  000065                     GuardarsetN@i:
   960                           	opt callstack 0
   961  000065                     GuardarsetX@XL:
   962                           	opt callstack 0
   963  000065                     GuardarsetY@YL:
   964                           	opt callstack 0
   965  000065                     SETPOINTBUSCAR@T:
   966                           	opt callstack 0
   967  000065                     CONTADOR@DifA:
   968                           	opt callstack 0
   969  000065                     ExtraerDato@DT:
   970                           	opt callstack 0
   971  000065                     ___lwdiv@dividend:
   972                           	opt callstack 0
   973                           
   974                           ; 2 bytes @ 0x5
   975  000065                     	ds	1
   976  000066                     ?_Obt:
   977                           	opt callstack 0
   978  000066                     ?___xxtofl:
   979                           	opt callstack 0
   980  000066                     GuardarsetX@dir:
   981                           	opt callstack 0
   982  000066                     GuardarsetY@dir:
   983                           	opt callstack 0
   984  000066                     SETPOINTBUSCAR@i:
   985                           	opt callstack 0
   986  000066                     ___xxtofl@val:
   987                           	opt callstack 0
   988                           
   989                           ; 4 bytes @ 0x6
   990  000066                     	ds	1
   991  000067                     ExtraerDato@DH:
   992                           	opt callstack 0
   993  000067                     CONTADOR@DifB:
   994                           	opt callstack 0
   995  000067                     ___lwdiv@divisor:
   996                           	opt callstack 0
   997                           
   998                           ; 2 bytes @ 0x7
   999  000067                     	ds	1
  1000  000068                     ??___fladd:
  1001  000068                     ??_Obt:
  1002  000068                     ExtraerDato@DL:
  1003                           	opt callstack 0
  1004                           
  1005                           ; 1 bytes @ 0x8
  1006  000068                     	ds	1
  1007  000069                     ExtraerDato@Dir:
  1008                           	opt callstack 0
  1009  000069                     CONTADOR@ContadorA:
  1010                           	opt callstack 0
  1011  000069                     ___lwdiv@quotient:
  1012                           	opt callstack 0
  1013                           
  1014                           ; 2 bytes @ 0x9
  1015  000069                     	ds	1
  1016  00006A                     ??___xxtofl:
  1017  00006A                     Obt@imp:
  1018                           	opt callstack 0
  1019  00006A                     IMP_ACCION@C:
  1020                           	opt callstack 0
  1021                           
  1022                           ; 1 bytes @ 0xA
  1023  00006A                     	ds	1
  1024  00006B                     imprimirINS@suma:
  1025                           	opt callstack 0
  1026  00006B                     ___lwdiv@counter:
  1027                           	opt callstack 0
  1028  00006B                     Obt@valor:
  1029                           	opt callstack 0
  1030  00006B                     CONTADOR@ContadorB:
  1031                           	opt callstack 0
  1032                           
  1033                           ; 2 bytes @ 0xB
  1034  00006B                     	ds	1
  1035  00006C                     imprimirINS@R:
  1036                           	opt callstack 0
  1037  00006C                     ___fladd@signs:
  1038                           	opt callstack 0
  1039  00006C                     COORReal@Xvalora:
  1040                           	opt callstack 0
  1041  00006C                     imprimirSet@Pos:
  1042                           	opt callstack 0
  1043                           
  1044                           ; 14 bytes @ 0xC
  1045  00006C                     	ds	1
  1046  00006D                     Obt@Send:
  1047                           	opt callstack 0
  1048  00006D                     imprimirINS@DATA:
  1049                           	opt callstack 0
  1050  00006D                     CONTADOR@ZA:
  1051                           	opt callstack 0
  1052  00006D                     ___fladd@aexp:
  1053                           	opt callstack 0
  1054                           
  1055                           ; 1 bytes @ 0xD
  1056  00006D                     	ds	1
  1057  00006E                     Obt@E:
  1058                           	opt callstack 0
  1059  00006E                     imprimirINS@i:
  1060                           	opt callstack 0
  1061  00006E                     CONTADOR@ZB:
  1062                           	opt callstack 0
  1063  00006E                     ___fladd@bexp:
  1064                           	opt callstack 0
  1065  00006E                     ___xxtofl@sign:
  1066                           	opt callstack 0
  1067  00006E                     COORReal@Yvalora:
  1068                           	opt callstack 0
  1069                           
  1070                           ; 2 bytes @ 0xE
  1071  00006E                     	ds	1
  1072  00006F                     CONTADOR@A:
  1073                           	opt callstack 0
  1074  00006F                     ___fladd@grs:
  1075                           	opt callstack 0
  1076  00006F                     ___xxtofl@exp:
  1077                           	opt callstack 0
  1078  00006F                     Obt@Xvalor:
  1079                           	opt callstack 0
  1080                           
  1081                           ; 3 bytes @ 0xF
  1082  00006F                     	ds	1
  1083  000070                     CONTADOR@B:
  1084                           	opt callstack 0
  1085  000070                     ___xxtofl@arg:
  1086                           	opt callstack 0
  1087  000070                     COORReal@Pos:
  1088                           	opt callstack 0
  1089                           
  1090                           ; 12 bytes @ 0x10
  1091  000070                     	ds	4
  1092  000074                     ?___flsub:
  1093                           	opt callstack 0
  1094  000074                     ___flsub@b:
  1095                           	opt callstack 0
  1096                           
  1097                           ; 4 bytes @ 0x14
  1098  000074                     	ds	4
  1099  000078                     ___flsub@a:
  1100                           	opt callstack 0
  1101                           
  1102                           ; 4 bytes @ 0x18
  1103  000078                     	ds	1
  1104  000079                     SETNOEX@C:
  1105                           	opt callstack 0
  1106                           
  1107                           ; 1 bytes @ 0x19
  1108  000079                     	ds	1
  1109  00007A                     imprimirSet@Send:
  1110                           	opt callstack 0
  1111  00007A                     ESCRIBIRINSTRUCCION@dato:
  1112                           	opt callstack 0
  1113                           
  1114                           ; 4 bytes @ 0x1A
  1115  00007A                     	ds	1
  1116  00007B                     imprimirSet@XH:
  1117                           	opt callstack 0
  1118                           
  1119                           ; 1 bytes @ 0x1B
  1120  00007B                     	ds	1
  1121  00007C                     imprimirSet@XL:
  1122                           	opt callstack 0
  1123  00007C                     SETPOINEXIST@C:
  1124                           	opt callstack 0
  1125  00007C                     COORReal@Send:
  1126                           	opt callstack 0
  1127  00007C                     ___flge@ff1:
  1128                           	opt callstack 0
  1129                           
  1130                           ; 4 bytes @ 0x1C
  1131  00007C                     	ds	1
  1132  00007D                     imprimirSet@YH:
  1133                           	opt callstack 0
  1134  00007D                     EditseT@send:
  1135                           	opt callstack 0
  1136  00007D                     _COORReal$2315:
  1137                           	opt callstack 0
  1138                           
  1139                           ; 2 bytes @ 0x1D
  1140  00007D                     	ds	1
  1141  00007E                     imprimirSet@YL:
  1142                           	opt callstack 0
  1143  00007E                     ESCRIBIRINSTRUCCION@send:
  1144                           	opt callstack 0
  1145  00007E                     EditseT@X:
  1146                           	opt callstack 0
  1147                           
  1148                           ; 2 bytes @ 0x1E
  1149  00007E                     	ds	1
  1150  00007F                     COORReal@i:
  1151                           	opt callstack 0
  1152  00007F                     ESCRIBIRINSTRUCCION@i:
  1153                           	opt callstack 0
  1154  00007F                     _imprimirSet$2314:
  1155                           	opt callstack 0
  1156                           
  1157                           ; 2 bytes @ 0x1F
  1158  00007F                     	ds	1
  1159  000080                     ESCRIBIRINSTRUCCION@dir:
  1160                           	opt callstack 0
  1161  000080                     EditseT@Y:
  1162                           	opt callstack 0
  1163  000080                     ___flge@ff2:
  1164                           	opt callstack 0
  1165                           
  1166                           ; 4 bytes @ 0x20
  1167  000080                     	ds	1
  1168  000081                     imprimirSet@R:
  1169                           	opt callstack 0
  1170  000081                     MENUINS@C:
  1171                           	opt callstack 0
  1172  000081                     ESCRIBIRINSTRUCCION@b:
  1173                           	opt callstack 0
  1174                           
  1175                           ; 1 bytes @ 0x21
  1176  000081                     	ds	1
  1177  000082                     imprimirSet@i_220:
  1178                           	opt callstack 0
  1179  000082                     EditseT@dato:
  1180                           	opt callstack 0
  1181                           
  1182                           ; 4 bytes @ 0x22
  1183  000082                     	ds	1
  1184  000083                     imprimirSet@X:
  1185                           	opt callstack 0
  1186                           
  1187                           ; 2 bytes @ 0x23
  1188  000083                     	ds	1
  1189  000084                     ??___flge:
  1190                           
  1191                           ; 1 bytes @ 0x24
  1192  000084                     	ds	1
  1193  000085                     imprimirSet@Y:
  1194                           	opt callstack 0
  1195                           
  1196                           ; 2 bytes @ 0x25
  1197  000085                     	ds	1
  1198  000086                     EditseT@d:
  1199                           	opt callstack 0
  1200                           
  1201                           ; 1 bytes @ 0x26
  1202  000086                     	ds	1
  1203  000087                     imprimirSet@i:
  1204                           	opt callstack 0
  1205  000087                     EditseT@E:
  1206                           	opt callstack 0
  1207                           
  1208                           ; 1 bytes @ 0x27
  1209  000087                     	ds	1
  1210  000088                     ?_Conversion:
  1211                           	opt callstack 0
  1212  000088                     NOHAYESPACIO@C:
  1213                           	opt callstack 0
  1214  000088                     EditseT@b:
  1215                           	opt callstack 0
  1216  000088                     Conversion@Dif:
  1217                           	opt callstack 0
  1218                           
  1219                           ; 2 bytes @ 0x28
  1220  000088                     	ds	1
  1221  000089                     EditseT@C:
  1222                           	opt callstack 0
  1223  000089                     INSTRUCCION@Menumov:
  1224                           	opt callstack 0
  1225                           
  1226                           ; 1 bytes @ 0x29
  1227  000089                     	ds	1
  1228  00008A                     ??_Conversion:
  1229  00008A                     EditseT@i:
  1230                           	opt callstack 0
  1231  00008A                     INSTRUCCION@dir:
  1232                           	opt callstack 0
  1233                           
  1234                           ; 1 bytes @ 0x2A
  1235  00008A                     	ds	2
  1236  00008C                     Conversion@X1:
  1237                           	opt callstack 0
  1238                           
  1239                           ; 4 bytes @ 0x2C
  1240  00008C                     	ds	4
  1241  000090                     Conversion@B:
  1242                           	opt callstack 0
  1243                           
  1244                           ; 2 bytes @ 0x30
  1245  000090                     	ds	2
  1246  000092                     Conversion@X2:
  1247                           	opt callstack 0
  1248                           
  1249                           ; 2 bytes @ 0x32
  1250  000092                     	ds	2
  1251  000094                     motoresmov@DifX:
  1252                           	opt callstack 0
  1253                           
  1254                           ; 2 bytes @ 0x34
  1255  000094                     	ds	2
  1256  000096                     motoresmov@DifY:
  1257                           	opt callstack 0
  1258                           
  1259                           ; 2 bytes @ 0x36
  1260  000096                     	ds	2
  1261  000098                     PREGUNTA@C:
  1262                           	opt callstack 0
  1263  000098                     motoresmov@DifA:
  1264                           	opt callstack 0
  1265                           
  1266                           ; 2 bytes @ 0x38
  1267  000098                     	ds	1
  1268  000099                     CREARINS@elecc:
  1269                           	opt callstack 0
  1270                           
  1271                           ; 1 bytes @ 0x39
  1272  000099                     	ds	1
  1273  00009A                     motoresmov@DifB:
  1274                           	opt callstack 0
  1275                           
  1276                           ; 2 bytes @ 0x3A
  1277  00009A                     	ds	1
  1278  00009B                     PREGUNTA2@C:
  1279                           	opt callstack 0
  1280                           
  1281                           ; 1 bytes @ 0x3B
  1282  00009B                     	ds	1
  1283  00009C                     ?_MOVASETPOINT:
  1284                           	opt callstack 0
  1285  00009C                     MOVASETPOINT@XR:
  1286                           	opt callstack 0
  1287  00009C                     EJECUTARINS@XR:
  1288                           	opt callstack 0
  1289                           
  1290                           ; 2 bytes @ 0x3C
  1291  00009C                     	ds	2
  1292  00009E                     MOVASETPOINT@YR:
  1293                           	opt callstack 0
  1294  00009E                     EJECUTARINS@YR:
  1295                           	opt callstack 0
  1296                           
  1297                           ; 2 bytes @ 0x3E
  1298  00009E                     	ds	2
  1299  0000A0                     MOVASETPOINT@dato:
  1300                           	opt callstack 0
  1301  0000A0                     EJECUTARINS@INSTRNAME:
  1302                           	opt callstack 0
  1303                           
  1304                           ; 4 bytes @ 0x40
  1305  0000A0                     	ds	4
  1306  0000A4                     MOVASETPOINT@XN:
  1307                           	opt callstack 0
  1308  0000A4                     EJECUTARINS@XN:
  1309                           	opt callstack 0
  1310                           
  1311                           ; 2 bytes @ 0x44
  1312  0000A4                     	ds	2
  1313  0000A6                     MOVASETPOINT@YN:
  1314                           	opt callstack 0
  1315  0000A6                     EJECUTARINS@YN:
  1316                           	opt callstack 0
  1317                           
  1318                           ; 2 bytes @ 0x46
  1319  0000A6                     	ds	2
  1320  0000A8                     MOVASETPOINT@send:
  1321                           	opt callstack 0
  1322  0000A8                     EJECUTARINS@E:
  1323                           	opt callstack 0
  1324                           
  1325                           ; 1 bytes @ 0x48
  1326  0000A8                     	ds	1
  1327  0000A9                     MOVASETPOINT@b:
  1328                           	opt callstack 0
  1329  0000A9                     EJECUTARINS@i:
  1330                           	opt callstack 0
  1331                           
  1332                           ; 1 bytes @ 0x49
  1333  0000A9                     	ds	1
  1334  0000AA                     MOVASETPOINT@i:
  1335                           	opt callstack 0
  1336  0000AA                     EJECUTARINS@dato:
  1337                           	opt callstack 0
  1338                           
  1339                           ; 1 bytes @ 0x4A
  1340  0000AA                     	ds	1
  1341  0000AB                     EJECUTARINS@dir:
  1342                           	opt callstack 0
  1343                           
  1344                           ; 1 bytes @ 0x4B
  1345  0000AB                     	ds	1
  1346  0000AC                     PREEJECUTAR@XR:
  1347                           	opt callstack 0
  1348                           
  1349                           ; 2 bytes @ 0x4C
  1350  0000AC                     	ds	2
  1351  0000AE                     PREEJECUTAR@YR:
  1352                           	opt callstack 0
  1353                           
  1354                           ; 2 bytes @ 0x4E
  1355  0000AE                     	ds	2
  1356  0000B0                     PREEJECUTAR@i:
  1357                           	opt callstack 0
  1358                           
  1359                           ; 1 bytes @ 0x50
  1360  0000B0                     	ds	1
  1361  0000B1                     PREEJECUTAR@elecc:
  1362                           	opt callstack 0
  1363                           
  1364                           ; 1 bytes @ 0x51
  1365  0000B1                     	ds	1
  1366  0000B2                     
  1367                           ; 1 bytes @ 0x52
  1368                           
  1369                           	psect	cstackCOMRAM
  1370  000001                     __pcstackCOMRAM:
  1371                           	opt callstack 0
  1372  000001                     ??i2_PWMDutyCycle1:
  1373  000001                     ??i2_PWMDutyCycle2:
  1374  000001                     ?i2___wmul:
  1375                           	opt callstack 0
  1376  000001                     ?i2_abs:
  1377                           	opt callstack 0
  1378  000001                     ?i2___fladd:
  1379                           	opt callstack 0
  1380  000001                     i2UARTWrite@txData:
  1381                           	opt callstack 0
  1382  000001                     i2DIR_B@X:
  1383                           	opt callstack 0
  1384  000001                     i2DIR_A@X:
  1385                           	opt callstack 0
  1386  000001                     i2ENABLE_A@X:
  1387                           	opt callstack 0
  1388  000001                     i2ENABLE_B@X:
  1389                           	opt callstack 0
  1390  000001                     i2___wmul@multiplier:
  1391                           	opt callstack 0
  1392  000001                     i2abs@a:
  1393                           	opt callstack 0
  1394  000001                     i2___fladd@b:
  1395                           	opt callstack 0
  1396                           
  1397                           ; 4 bytes @ 0x0
  1398  000001                     	ds	1
  1399  000002                     LIMITEX@F:
  1400                           	opt callstack 0
  1401  000002                     LIMITEY@F:
  1402                           	opt callstack 0
  1403  000002                     PARO2@F:
  1404                           	opt callstack 0
  1405                           
  1406                           ; 27 bytes @ 0x1
  1407  000002                     	ds	1
  1408  000003                     ??i2_abs:
  1409  000003                     i2PWMDutyCycle1@PERCENT:
  1410                           	opt callstack 0
  1411  000003                     i2PWMDutyCycle2@PERCENT:
  1412                           	opt callstack 0
  1413  000003                     i2___wmul@multiplicand:
  1414                           	opt callstack 0
  1415                           
  1416                           ; 2 bytes @ 0x2
  1417  000003                     	ds	2
  1418  000005                     i2PWMDutyCycle1@DUTY:
  1419                           	opt callstack 0
  1420  000005                     i2PWMDutyCycle2@DUTY:
  1421                           	opt callstack 0
  1422  000005                     i2___wmul@product:
  1423                           	opt callstack 0
  1424  000005                     i2___fladd@a:
  1425                           	opt callstack 0
  1426                           
  1427                           ; 4 bytes @ 0x4
  1428  000005                     	ds	1
  1429  000006                     i2CONTADOR@DifA:
  1430                           	opt callstack 0
  1431                           
  1432                           ; 2 bytes @ 0x5
  1433  000006                     	ds	1
  1434  000007                     ?i2___xxtofl:
  1435                           	opt callstack 0
  1436  000007                     i2___xxtofl@val:
  1437                           	opt callstack 0
  1438                           
  1439                           ; 4 bytes @ 0x6
  1440  000007                     	ds	1
  1441  000008                     i2CONTADOR@DifB:
  1442                           	opt callstack 0
  1443                           
  1444                           ; 2 bytes @ 0x7
  1445  000008                     	ds	1
  1446  000009                     ??i2___fladd:
  1447                           
  1448                           ; 1 bytes @ 0x8
  1449  000009                     	ds	1
  1450  00000A                     i2CONTADOR@ContadorA:
  1451                           	opt callstack 0
  1452                           
  1453                           ; 2 bytes @ 0x9
  1454  00000A                     	ds	1
  1455  00000B                     ??i2___xxtofl:
  1456                           
  1457                           ; 1 bytes @ 0xA
  1458  00000B                     	ds	1
  1459  00000C                     i2CONTADOR@ContadorB:
  1460                           	opt callstack 0
  1461                           
  1462                           ; 2 bytes @ 0xB
  1463  00000C                     	ds	1
  1464  00000D                     i2___fladd@signs:
  1465                           	opt callstack 0
  1466                           
  1467                           ; 1 bytes @ 0xC
  1468  00000D                     	ds	1
  1469  00000E                     i2CONTADOR@ZA:
  1470                           	opt callstack 0
  1471  00000E                     i2___fladd@aexp:
  1472                           	opt callstack 0
  1473                           
  1474                           ; 1 bytes @ 0xD
  1475  00000E                     	ds	1
  1476  00000F                     i2CONTADOR@ZB:
  1477                           	opt callstack 0
  1478  00000F                     i2___fladd@bexp:
  1479                           	opt callstack 0
  1480  00000F                     i2___xxtofl@sign:
  1481                           	opt callstack 0
  1482                           
  1483                           ; 1 bytes @ 0xE
  1484  00000F                     	ds	1
  1485  000010                     LIMITEX@C:
  1486                           	opt callstack 0
  1487  000010                     LIMITEY@C:
  1488                           	opt callstack 0
  1489  000010                     i2CONTADOR@A:
  1490                           	opt callstack 0
  1491  000010                     i2___fladd@grs:
  1492                           	opt callstack 0
  1493  000010                     i2___xxtofl@exp:
  1494                           	opt callstack 0
  1495                           
  1496                           ; 1 bytes @ 0xF
  1497  000010                     	ds	1
  1498  000011                     i2CONTADOR@B:
  1499                           	opt callstack 0
  1500  000011                     i2___xxtofl@arg:
  1501                           	opt callstack 0
  1502                           
  1503                           ; 4 bytes @ 0x10
  1504  000011                     	ds	4
  1505  000015                     ?i2___flsub:
  1506                           	opt callstack 0
  1507  000015                     i2___flsub@b:
  1508                           	opt callstack 0
  1509                           
  1510                           ; 4 bytes @ 0x14
  1511  000015                     	ds	4
  1512  000019                     i2___flsub@a:
  1513                           	opt callstack 0
  1514                           
  1515                           ; 4 bytes @ 0x18
  1516  000019                     	ds	4
  1517  00001D                     PARO2@C:
  1518                           	opt callstack 0
  1519  00001D                     i2___flge@ff1:
  1520                           	opt callstack 0
  1521                           
  1522                           ; 4 bytes @ 0x1C
  1523  00001D                     	ds	1
  1524  00001E                     
  1525                           ; 1 bytes @ 0x1D
  1526  00001E                     	ds	3
  1527  000021                     i2___flge@ff2:
  1528                           	opt callstack 0
  1529                           
  1530                           ; 4 bytes @ 0x20
  1531  000021                     	ds	4
  1532  000025                     ??i2___flge:
  1533                           
  1534                           ; 1 bytes @ 0x24
  1535  000025                     	ds	4
  1536  000029                     ?i2_Conversion:
  1537                           	opt callstack 0
  1538  000029                     i2Conversion@Dif:
  1539                           	opt callstack 0
  1540                           
  1541                           ; 2 bytes @ 0x28
  1542  000029                     	ds	2
  1543  00002B                     ??i2_Conversion:
  1544                           
  1545                           ; 1 bytes @ 0x2A
  1546  00002B                     	ds	2
  1547  00002D                     i2Conversion@X1:
  1548                           	opt callstack 0
  1549                           
  1550                           ; 4 bytes @ 0x2C
  1551  00002D                     	ds	4
  1552  000031                     i2Conversion@B:
  1553                           	opt callstack 0
  1554                           
  1555                           ; 2 bytes @ 0x30
  1556  000031                     	ds	2
  1557  000033                     i2Conversion@X2:
  1558                           	opt callstack 0
  1559                           
  1560                           ; 2 bytes @ 0x32
  1561  000033                     	ds	2
  1562  000035                     i2motoresmov@DifX:
  1563                           	opt callstack 0
  1564                           
  1565                           ; 2 bytes @ 0x34
  1566  000035                     	ds	2
  1567  000037                     i2motoresmov@DifY:
  1568                           	opt callstack 0
  1569                           
  1570                           ; 2 bytes @ 0x36
  1571  000037                     	ds	2
  1572  000039                     i2motoresmov@DifA:
  1573                           	opt callstack 0
  1574                           
  1575                           ; 2 bytes @ 0x38
  1576  000039                     	ds	2
  1577  00003B                     i2motoresmov@DifB:
  1578                           	opt callstack 0
  1579                           
  1580                           ; 2 bytes @ 0x3A
  1581  00003B                     	ds	2
  1582  00003D                     ??_INT_isr:
  1583                           
  1584                           ; 1 bytes @ 0x3C
  1585  00003D                     	ds	7
  1586                           
  1587 ;;
  1588 ;;Main: autosize = 0, tempsize = 0, incstack = 0, save=0
  1589 ;;
  1590 ;; *************** function _main *****************
  1591 ;; Defined at:
  1592 ;;		line 73 in file "SPARC.c"
  1593 ;; Parameters:    Size  Location     Type
  1594 ;;		None
  1595 ;; Auto vars:     Size  Location     Type
  1596 ;;		None
  1597 ;; Return value:  Size  Location     Type
  1598 ;;                  1    wreg      void 
  1599 ;; Registers used:
  1600 ;;		wreg, fsr1l, fsr1h, fsr2l, fsr2h, status,2, status,0, prodl, prodh, cstack
  1601 ;; Tracked objects:
  1602 ;;		On entry : 0/0
  1603 ;;		On exit  : 0/0
  1604 ;;		Unchanged: 0/0
  1605 ;; Data sizes:     COMRAM   BANK0   BANK1   BANK2   BANK3   BANK4   BANK5   BANK6   BANK7
  1606 ;;      Params:         0       0       0       0       0       0       0       0       0
  1607 ;;      Locals:         0       0       0       0       0       0       0       0       0
  1608 ;;      Temps:          0       0       0       0       0       0       0       0       0
  1609 ;;      Totals:         0       0       0       0       0       0       0       0       0
  1610 ;;Total ram usage:        0 bytes
  1611 ;; Hardware stack levels required when called:   11
  1612 ;; This function calls:
  1613 ;;		_Accion
  1614 ;;		_CHECK
  1615 ;;		_COORReal
  1616 ;;		_CREARINS
  1617 ;;		_EditseT
  1618 ;;		_ExtraerDato
  1619 ;;		_GuardarsetX
  1620 ;;		_GuardarsetY
  1621 ;;		_MOVASETPOINT
  1622 ;;		_Menimp
  1623 ;;		_Mensaje_comando_completado
  1624 ;;		_NOcomando
  1625 ;;		_NOcoordenada
  1626 ;;		_OCUPADO
  1627 ;;		_Obt
  1628 ;;		_PREEJECUTAR
  1629 ;;		_PWMconfi
  1630 ;;		_Tardanza
  1631 ;;		_UARTRead
  1632 ;;		_UARTconfi
  1633 ;;		_imprimirINS
  1634 ;;		_imprimirSet
  1635 ;;		_inter_init
  1636 ;;		_motoresmov
  1637 ;; This function is called by:
  1638 ;;		Startup code after reset
  1639 ;; This function uses a non-reentrant model
  1640 ;;
  1641                           
  1642                           	psect	text0
  1643  000012                     __ptext0:
  1644                           	opt callstack 0
  1645  000012                     _main:
  1646                           	opt callstack 20
  1647  000012                     
  1648                           ;SPARC.c: 74:     OSCCON = 0x60;
  1649  000012  0E60               	movlw	96
  1650  000014  6ED3               	movwf	211,c	;volatile
  1651  000016                     
  1652                           ;SPARC.c: 75:     UARTconfi();
  1653  000016  EC10  F01A         	call	_UARTconfi	;wreg free
  1654  00001A                     
  1655                           ;SPARC.c: 76:     PWMconfi();
  1656  00001A  ECBE  F019         	call	_PWMconfi	;wreg free
  1657  00001E                     
  1658                           ;SPARC.c: 77:     CHECK();
  1659  00001E  EC22  F017         	call	_CHECK	;wreg free
  1660  000022                     
  1661                           ;SPARC.c: 78:     inter_init();
  1662  000022  ECBC  F015         	call	_inter_init	;wreg free
  1663  000026                     
  1664                           ;SPARC.c: 79:     Acci=UARTRead();
  1665  000026  ECF1  F014         	call	_UARTRead	;wreg free
  1666  00002A  0100               	movlb	0	; () banked
  1667  00002C  6FEB               	movwf	_Acci& (0+255),b
  1668  00002E                     
  1669                           ; BSR set to: 0
  1670                           ;SPARC.c: 80:     Acci=0;
  1671  00002E  0E00               	movlw	0
  1672  000030  6FEB               	movwf	_Acci& (0+255),b
  1673  000032                     
  1674                           ; BSR set to: 0
  1675                           ;SPARC.c: 81:     XvalorR=ExtraerDato(252);
  1676  000032  0EFC               	movlw	252
  1677  000034  EC85  F018         	call	_ExtraerDato
  1678  000038  C061  F0F2         	movff	?_ExtraerDato,_XvalorR
  1679  00003C  C062  F0F3         	movff	?_ExtraerDato+1,_XvalorR+1
  1680  000040                     
  1681                           ;SPARC.c: 82:     YvalorR=ExtraerDato(254);
  1682  000040  0EFE               	movlw	254
  1683  000042  EC85  F018         	call	_ExtraerDato
  1684  000046  C061  F0F0         	movff	?_ExtraerDato,_YvalorR
  1685  00004A  C062  F0F1         	movff	?_ExtraerDato+1,_YvalorR+1
  1686  00004E                     
  1687                           ;SPARC.c: 83:     if(PORTBbits.RB1==0) {
  1688  00004E  B281               	btfsc	129,1,c	;volatile
  1689  000050  EF2C  F000         	goto	u5711
  1690  000054  EF2E  F000         	goto	u5710
  1691  000058                     u5711:
  1692  000058  EF3B  F000         	goto	l5369
  1693  00005C                     u5710:
  1694  00005C                     
  1695                           ;SPARC.c: 84:         motoresmov(-1000, 0);
  1696  00005C  0EFC               	movlw	252
  1697  00005E  0100               	movlb	0	; () banked
  1698  000060  6F95               	movwf	(motoresmov@DifX+1)& (0+255),b
  1699  000062  0E18               	movlw	24
  1700  000064  6F94               	movwf	motoresmov@DifX& (0+255),b
  1701  000066  0E00               	movlw	0
  1702  000068  6F97               	movwf	(motoresmov@DifY+1)& (0+255),b
  1703  00006A  0E00               	movlw	0
  1704  00006C  6F96               	movwf	motoresmov@DifY& (0+255),b
  1705  00006E  ECCE  F011         	call	_motoresmov	;wreg free
  1706                           
  1707                           ;SPARC.c: 85:     } else {
  1708  000072  EF46  F000         	goto	l5371
  1709  000076                     l5369:
  1710                           
  1711                           ;SPARC.c: 86:         motoresmov(5, 0);
  1712  000076  0E00               	movlw	0
  1713  000078  0100               	movlb	0	; () banked
  1714  00007A  6F95               	movwf	(motoresmov@DifX+1)& (0+255),b
  1715  00007C  0E05               	movlw	5
  1716  00007E  6F94               	movwf	motoresmov@DifX& (0+255),b
  1717  000080  0E00               	movlw	0
  1718  000082  6F97               	movwf	(motoresmov@DifY+1)& (0+255),b
  1719  000084  0E00               	movlw	0
  1720  000086  6F96               	movwf	motoresmov@DifY& (0+255),b
  1721  000088  ECCE  F011         	call	_motoresmov	;wreg free
  1722  00008C                     l5371:
  1723                           
  1724                           ;SPARC.c: 88:      if(PORTBbits.RB0==0) {
  1725  00008C  B081               	btfsc	129,0,c	;volatile
  1726  00008E  EF4B  F000         	goto	u5721
  1727  000092  EF4D  F000         	goto	u5720
  1728  000096                     u5721:
  1729  000096  EF5A  F000         	goto	l5375
  1730  00009A                     u5720:
  1731  00009A                     
  1732                           ;SPARC.c: 89:         motoresmov(0, -1000);
  1733  00009A  0E00               	movlw	0
  1734  00009C  0100               	movlb	0	; () banked
  1735  00009E  6F95               	movwf	(motoresmov@DifX+1)& (0+255),b
  1736  0000A0  0E00               	movlw	0
  1737  0000A2  6F94               	movwf	motoresmov@DifX& (0+255),b
  1738  0000A4  0EFC               	movlw	252
  1739  0000A6  6F97               	movwf	(motoresmov@DifY+1)& (0+255),b
  1740  0000A8  0E18               	movlw	24
  1741  0000AA  6F96               	movwf	motoresmov@DifY& (0+255),b
  1742  0000AC  ECCE  F011         	call	_motoresmov	;wreg free
  1743                           
  1744                           ;SPARC.c: 90:     } else {
  1745  0000B0  EF65  F000         	goto	l5377
  1746  0000B4                     l5375:
  1747                           
  1748                           ;SPARC.c: 91:          motoresmov(0, 5);
  1749  0000B4  0E00               	movlw	0
  1750  0000B6  0100               	movlb	0	; () banked
  1751  0000B8  6F95               	movwf	(motoresmov@DifX+1)& (0+255),b
  1752  0000BA  0E00               	movlw	0
  1753  0000BC  6F94               	movwf	motoresmov@DifX& (0+255),b
  1754  0000BE  0E00               	movlw	0
  1755  0000C0  6F97               	movwf	(motoresmov@DifY+1)& (0+255),b
  1756  0000C2  0E05               	movlw	5
  1757  0000C4  6F96               	movwf	motoresmov@DifY& (0+255),b
  1758  0000C6  ECCE  F011         	call	_motoresmov	;wreg free
  1759  0000CA                     l5377:
  1760                           
  1761                           ;SPARC.c: 96:         E=0;
  1762  0000CA  0E00               	movlw	0
  1763  0000CC  0100               	movlb	0	; () banked
  1764  0000CE  6FEA               	movwf	_E& (0+255),b
  1765  0000D0                     
  1766                           ; BSR set to: 0
  1767                           ;SPARC.c: 97:         Menimp();
  1768  0000D0  ECDE  F015         	call	_Menimp	;wreg free
  1769  0000D4                     
  1770                           ;SPARC.c: 98:         Acci=UARTRead();
  1771  0000D4  ECF1  F014         	call	_UARTRead	;wreg free
  1772  0000D8  0100               	movlb	0	; () banked
  1773  0000DA  6FEB               	movwf	_Acci& (0+255),b
  1774  0000DC                     
  1775                           ; BSR set to: 0
  1776                           ;SPARC.c: 99:         if(Acci=='M'||Acci=='m') {
  1777  0000DC  0E4D               	movlw	77
  1778  0000DE  19EB               	xorwf	_Acci& (0+255),w,b
  1779  0000E0  B4D8               	btfsc	status,2,c
  1780  0000E2  EF75  F000         	goto	u5731
  1781  0000E6  EF77  F000         	goto	u5730
  1782  0000EA                     u5731:
  1783  0000EA  EF80  F000         	goto	l5387
  1784  0000EE                     u5730:
  1785  0000EE                     
  1786                           ; BSR set to: 0
  1787  0000EE  0E6D               	movlw	109
  1788  0000F0  19EB               	xorwf	_Acci& (0+255),w,b
  1789  0000F2  A4D8               	btfss	status,2,c
  1790  0000F4  EF7E  F000         	goto	u5741
  1791  0000F8  EF80  F000         	goto	u5740
  1792  0000FC                     u5741:
  1793  0000FC  EF0B  F001         	goto	l5425
  1794  000100                     u5740:
  1795  000100                     l5387:
  1796                           
  1797                           ; BSR set to: 0
  1798                           ;SPARC.c: 100:             Xvalorn=Obt('X');
  1799  000100  0E58               	movlw	88
  1800  000102  ECEA  F00A         	call	_Obt
  1801  000106  C066  F0EE         	movff	?_Obt,_Xvalorn
  1802  00010A  C067  F0EF         	movff	?_Obt+1,_Xvalorn+1
  1803  00010E                     
  1804                           ;SPARC.c: 101:             if(Xvalorn>300) {
  1805  00010E  0E2D               	movlw	45
  1806  000110  0100               	movlb	0	; () banked
  1807  000112  5DEE               	subwf	_Xvalorn& (0+255),w,b
  1808  000114  0E01               	movlw	1
  1809  000116  59EF               	subwfb	(_Xvalorn+1)& (0+255),w,b
  1810  000118  A0D8               	btfss	status,0,c
  1811  00011A  EF91  F000         	goto	u5751
  1812  00011E  EF93  F000         	goto	u5750
  1813  000122                     u5751:
  1814  000122  EF95  F000         	goto	l460
  1815  000126                     u5750:
  1816  000126                     
  1817                           ; BSR set to: 0
  1818                           ;SPARC.c: 102:                 E=1;
  1819  000126  0E01               	movlw	1
  1820  000128  6FEA               	movwf	_E& (0+255),b
  1821  00012A                     l460:
  1822                           
  1823                           ; BSR set to: 0
  1824                           ;SPARC.c: 104:             if(E==0){
  1825  00012A  51EA               	movf	_E& (0+255),w,b
  1826  00012C  A4D8               	btfss	status,2,c
  1827  00012E  EF9B  F000         	goto	u5761
  1828  000132  EF9D  F000         	goto	u5760
  1829  000136                     u5761:
  1830  000136  EFA4  F000         	goto	l5395
  1831  00013A                     u5760:
  1832  00013A                     
  1833                           ; BSR set to: 0
  1834                           ;SPARC.c: 105:                 Yvalorn=Obt('Y');
  1835  00013A  0E59               	movlw	89
  1836  00013C  ECEA  F00A         	call	_Obt
  1837  000140  C066  F0EC         	movff	?_Obt,_Yvalorn
  1838  000144  C067  F0ED         	movff	?_Obt+1,_Yvalorn+1
  1839  000148                     l5395:
  1840                           
  1841                           ;SPARC.c: 107:             if(Yvalorn>300) {
  1842  000148  0E2D               	movlw	45
  1843  00014A  0100               	movlb	0	; () banked
  1844  00014C  5DEC               	subwf	_Yvalorn& (0+255),w,b
  1845  00014E  0E01               	movlw	1
  1846  000150  59ED               	subwfb	(_Yvalorn+1)& (0+255),w,b
  1847  000152  A0D8               	btfss	status,0,c
  1848  000154  EFAE  F000         	goto	u5771
  1849  000158  EFB0  F000         	goto	u5770
  1850  00015C                     u5771:
  1851  00015C  EFB2  F000         	goto	l5399
  1852  000160                     u5770:
  1853  000160                     
  1854                           ; BSR set to: 0
  1855                           ;SPARC.c: 108:                 E=1;
  1856  000160  0E01               	movlw	1
  1857  000162  6FEA               	movwf	_E& (0+255),b
  1858  000164                     l5399:
  1859                           
  1860                           ; BSR set to: 0
  1861                           ;SPARC.c: 110:             if(Xvalorn==30000||Yvalorn==30000) {
  1862  000164  0E30               	movlw	48
  1863  000166  19EE               	xorwf	_Xvalorn& (0+255),w,b
  1864  000168  E109               	bnz	u5780
  1865  00016A  0E75               	movlw	117
  1866  00016C  19EF               	xorwf	(_Xvalorn+1)& (0+255),w,b
  1867  00016E  B4D8               	btfsc	status,2,c
  1868  000170  EFBC  F000         	goto	u5781
  1869  000174  EFBE  F000         	goto	u5780
  1870  000178                     u5781:
  1871  000178  EFCA  F000         	goto	l5403
  1872  00017C                     u5780:
  1873  00017C                     
  1874                           ; BSR set to: 0
  1875  00017C  0E30               	movlw	48
  1876  00017E  19EC               	xorwf	_Yvalorn& (0+255),w,b
  1877  000180  E107               	bnz	u5791
  1878  000182  0E75               	movlw	117
  1879  000184  19ED               	xorwf	(_Yvalorn+1)& (0+255),w,b
  1880  000186  A4D8               	btfss	status,2,c
  1881  000188  EFC8  F000         	goto	u5791
  1882  00018C  EFCA  F000         	goto	u5790
  1883  000190                     u5791:
  1884  000190  EFCC  F000         	goto	l463
  1885  000194                     u5790:
  1886  000194                     l5403:
  1887                           
  1888                           ; BSR set to: 0
  1889                           ;SPARC.c: 111:                 E=2;
  1890  000194  0E02               	movlw	2
  1891  000196  6FEA               	movwf	_E& (0+255),b
  1892  000198                     l463:
  1893                           
  1894                           ; BSR set to: 0
  1895                           ;SPARC.c: 113:             if(E==0) {
  1896  000198  51EA               	movf	_E& (0+255),w,b
  1897  00019A  A4D8               	btfss	status,2,c
  1898  00019C  EFD2  F000         	goto	u5801
  1899  0001A0  EFD4  F000         	goto	u5800
  1900  0001A4                     u5801:
  1901  0001A4  EFF8  F000         	goto	l5417
  1902  0001A8                     u5800:
  1903  0001A8                     
  1904                           ; BSR set to: 0
  1905                           ;SPARC.c: 114:                 DifX=Xvalorn-XvalorR;
  1906  0001A8  51F2               	movf	_XvalorR& (0+255),w,b
  1907  0001AA  5DEE               	subwf	_Xvalorn& (0+255),w,b
  1908  0001AC  6FE7               	movwf	_DifX& (0+255),b
  1909  0001AE  51F3               	movf	(_XvalorR+1)& (0+255),w,b
  1910  0001B0  59EF               	subwfb	(_Xvalorn+1)& (0+255),w,b
  1911  0001B2  6FE8               	movwf	(_DifX+1)& (0+255),b
  1912                           
  1913                           ;SPARC.c: 115:                 DifY=Yvalorn-YvalorR;
  1914  0001B4  51F0               	movf	_YvalorR& (0+255),w,b
  1915  0001B6  5DEC               	subwf	_Yvalorn& (0+255),w,b
  1916  0001B8  6FE5               	movwf	_DifY& (0+255),b
  1917  0001BA  51F1               	movf	(_YvalorR+1)& (0+255),w,b
  1918  0001BC  59ED               	subwfb	(_Yvalorn+1)& (0+255),w,b
  1919  0001BE  6FE6               	movwf	(_DifY+1)& (0+255),b
  1920  0001C0                     
  1921                           ; BSR set to: 0
  1922                           ;SPARC.c: 116:                 OCUPADO();
  1923  0001C0  EC6A  F018         	call	_OCUPADO	;wreg free
  1924  0001C4                     
  1925                           ;SPARC.c: 117:                 motoresmov(DifX, DifY);
  1926  0001C4  C0E7  F094         	movff	_DifX,motoresmov@DifX
  1927  0001C8  C0E8  F095         	movff	_DifX+1,motoresmov@DifX+1
  1928  0001CC  C0E5  F096         	movff	_DifY,motoresmov@DifY
  1929  0001D0  C0E6  F097         	movff	_DifY+1,motoresmov@DifY+1
  1930  0001D4  ECCE  F011         	call	_motoresmov	;wreg free
  1931  0001D8                     
  1932                           ;SPARC.c: 118:                 Mensaje_comando_completado();
  1933  0001D8  EC62  F017         	call	_Mensaje_comando_completado	;wreg free
  1934  0001DC                     
  1935                           ;SPARC.c: 119:                 XvalorR=Xvalorn;
  1936  0001DC  C0EE  F0F2         	movff	_Xvalorn,_XvalorR
  1937  0001E0  C0EF  F0F3         	movff	_Xvalorn+1,_XvalorR+1
  1938  0001E4                     
  1939                           ;SPARC.c: 120:                 YvalorR=Yvalorn;
  1940  0001E4  C0EC  F0F0         	movff	_Yvalorn,_YvalorR
  1941  0001E8  C0ED  F0F1         	movff	_Yvalorn+1,_YvalorR+1
  1942                           
  1943                           ;SPARC.c: 121:             } else if(E==1) {
  1944  0001EC  EF06  F001         	goto	l5423
  1945  0001F0                     l5417:
  1946                           
  1947                           ; BSR set to: 0
  1948  0001F0  05EA               	decf	_E& (0+255),w,b
  1949  0001F2  A4D8               	btfss	status,2,c
  1950  0001F4  EFFE  F000         	goto	u5811
  1951  0001F8  EF00  F001         	goto	u5810
  1952  0001FC                     u5811:
  1953  0001FC  EF04  F001         	goto	l5421
  1954  000200                     u5810:
  1955  000200                     
  1956                           ; BSR set to: 0
  1957                           ;SPARC.c: 122:                 NOcoordenada();
  1958  000200  EC31  F018         	call	_NOcoordenada	;wreg free
  1959                           
  1960                           ;SPARC.c: 123:             } else {
  1961  000204  EF06  F001         	goto	l5423
  1962  000208                     l5421:
  1963                           
  1964                           ; BSR set to: 0
  1965                           ;SPARC.c: 124:                 Tardanza();
  1966  000208  ECF7  F017         	call	_Tardanza	;wreg free
  1967  00020C                     l5423:
  1968                           
  1969                           ;SPARC.c: 126:             Acci=0;
  1970  00020C  0E00               	movlw	0
  1971  00020E  0100               	movlb	0	; () banked
  1972  000210  6FEB               	movwf	_Acci& (0+255),b
  1973                           
  1974                           ;SPARC.c: 127:         }else if(Acci=='A'||Acci=='a') {
  1975  000212  EF62  F002         	goto	l5537
  1976  000216                     l5425:
  1977                           
  1978                           ; BSR set to: 0
  1979  000216  0E41               	movlw	65
  1980  000218  19EB               	xorwf	_Acci& (0+255),w,b
  1981  00021A  B4D8               	btfsc	status,2,c
  1982  00021C  EF12  F001         	goto	u5821
  1983  000220  EF14  F001         	goto	u5820
  1984  000224                     u5821:
  1985  000224  EF1D  F001         	goto	l5429
  1986  000228                     u5820:
  1987  000228                     
  1988                           ; BSR set to: 0
  1989  000228  0E61               	movlw	97
  1990  00022A  19EB               	xorwf	_Acci& (0+255),w,b
  1991  00022C  A4D8               	btfss	status,2,c
  1992  00022E  EF1B  F001         	goto	u5831
  1993  000232  EF1D  F001         	goto	u5830
  1994  000236                     u5831:
  1995  000236  EF25  F001         	goto	l5437
  1996  00023A                     u5830:
  1997  00023A                     l5429:
  1998                           
  1999                           ; BSR set to: 0
  2000                           ;SPARC.c: 128:             OCUPADO();
  2001  00023A  EC6A  F018         	call	_OCUPADO	;wreg free
  2002  00023E                     
  2003                           ;SPARC.c: 129:             Accion();
  2004  00023E  EC4F  F015         	call	_Accion	;wreg free
  2005  000242                     l5433:
  2006                           
  2007                           ;SPARC.c: 130:             Mensaje_comando_completado();
  2008  000242  EC62  F017         	call	_Mensaje_comando_completado	;wreg free
  2009  000246  EF06  F001         	goto	l5423
  2010  00024A                     l5437:
  2011                           
  2012                           ; BSR set to: 0
  2013  00024A  0E53               	movlw	83
  2014  00024C  19EB               	xorwf	_Acci& (0+255),w,b
  2015  00024E  B4D8               	btfsc	status,2,c
  2016  000250  EF2C  F001         	goto	u5841
  2017  000254  EF2E  F001         	goto	u5840
  2018  000258                     u5841:
  2019  000258  EF37  F001         	goto	l5441
  2020  00025C                     u5840:
  2021  00025C                     
  2022                           ; BSR set to: 0
  2023  00025C  0E73               	movlw	115
  2024  00025E  19EB               	xorwf	_Acci& (0+255),w,b
  2025  000260  A4D8               	btfss	status,2,c
  2026  000262  EF35  F001         	goto	u5851
  2027  000266  EF37  F001         	goto	u5850
  2028  00026A                     u5851:
  2029  00026A  EF63  F001         	goto	l5455
  2030  00026E                     u5850:
  2031  00026E                     l5441:
  2032                           
  2033                           ; BSR set to: 0
  2034                           ;SPARC.c: 133:             OCUPADO();
  2035  00026E  EC6A  F018         	call	_OCUPADO	;wreg free
  2036  000272                     
  2037                           ;SPARC.c: 134:             imprimirSet();
  2038  000272  EC3E  F007         	call	_imprimirSet	;wreg free
  2039  000276                     
  2040                           ;SPARC.c: 135:             DirEEPROM=MOVASETPOINT(XvalorR, YvalorR);
  2041  000276  C0F2  F09C         	movff	_XvalorR,MOVASETPOINT@XR
  2042  00027A  C0F3  F09D         	movff	_XvalorR+1,MOVASETPOINT@XR+1
  2043  00027E  C0F0  F09E         	movff	_YvalorR,MOVASETPOINT@YR
  2044  000282  C0F1  F09F         	movff	_YvalorR+1,MOVASETPOINT@YR+1
  2045  000286  EC34  F012         	call	_MOVASETPOINT	;wreg free
  2046  00028A  0100               	movlb	0	; () banked
  2047  00028C  519C               	movf	?_MOVASETPOINT& (0+255),w,b
  2048  00028E  6FE9               	movwf	_DirEEPROM& (0+255),b
  2049  000290                     
  2050                           ; BSR set to: 0
  2051                           ;SPARC.c: 136:             if(DirEEPROM<160){
  2052  000290  0EA0               	movlw	160
  2053  000292  61E9               	cpfslt	_DirEEPROM& (0+255),b
  2054  000294  EF4E  F001         	goto	u5861
  2055  000298  EF50  F001         	goto	u5860
  2056  00029C                     u5861:
  2057  00029C  EF21  F001         	goto	l5433
  2058  0002A0                     u5860:
  2059  0002A0                     
  2060                           ; BSR set to: 0
  2061                           ;SPARC.c: 137:                 XvalorR=ExtraerDato(DirEEPROM+4);
  2062  0002A0  51E9               	movf	_DirEEPROM& (0+255),w,b
  2063  0002A2  0F04               	addlw	4
  2064  0002A4  EC85  F018         	call	_ExtraerDato
  2065  0002A8  C061  F0F2         	movff	?_ExtraerDato,_XvalorR
  2066  0002AC  C062  F0F3         	movff	?_ExtraerDato+1,_XvalorR+1
  2067                           
  2068                           ;SPARC.c: 138:                 YvalorR=ExtraerDato(DirEEPROM+6);
  2069  0002B0  0100               	movlb	0	; () banked
  2070  0002B2  51E9               	movf	_DirEEPROM& (0+255),w,b
  2071  0002B4  0F06               	addlw	6
  2072  0002B6  EC85  F018         	call	_ExtraerDato
  2073  0002BA  C061  F0F0         	movff	?_ExtraerDato,_YvalorR
  2074  0002BE  C062  F0F1         	movff	?_ExtraerDato+1,_YvalorR+1
  2075  0002C2  EF21  F001         	goto	l5433
  2076  0002C6                     l5455:
  2077                           
  2078                           ; BSR set to: 0
  2079  0002C6  0E45               	movlw	69
  2080  0002C8  19EB               	xorwf	_Acci& (0+255),w,b
  2081  0002CA  B4D8               	btfsc	status,2,c
  2082  0002CC  EF6A  F001         	goto	u5871
  2083  0002D0  EF6C  F001         	goto	u5870
  2084  0002D4                     u5871:
  2085  0002D4  EF75  F001         	goto	l5459
  2086  0002D8                     u5870:
  2087  0002D8                     
  2088                           ; BSR set to: 0
  2089  0002D8  0E65               	movlw	101
  2090  0002DA  19EB               	xorwf	_Acci& (0+255),w,b
  2091  0002DC  A4D8               	btfss	status,2,c
  2092  0002DE  EF73  F001         	goto	u5881
  2093  0002E2  EF75  F001         	goto	u5880
  2094  0002E6                     u5881:
  2095  0002E6  EF7B  F001         	goto	l5467
  2096  0002EA                     u5880:
  2097  0002EA                     l5459:
  2098                           
  2099                           ; BSR set to: 0
  2100                           ;SPARC.c: 144:             imprimirSet();
  2101  0002EA  EC3E  F007         	call	_imprimirSet	;wreg free
  2102  0002EE                     
  2103                           ;SPARC.c: 145:             EditseT();
  2104  0002EE  EC4D  F008         	call	_EditseT	;wreg free
  2105  0002F2  EF21  F001         	goto	l5433
  2106  0002F6                     l5467:
  2107                           
  2108                           ; BSR set to: 0
  2109  0002F6  0E43               	movlw	67
  2110  0002F8  19EB               	xorwf	_Acci& (0+255),w,b
  2111  0002FA  B4D8               	btfsc	status,2,c
  2112  0002FC  EF82  F001         	goto	u5891
  2113  000300  EF84  F001         	goto	u5890
  2114  000304                     u5891:
  2115  000304  EF8D  F001         	goto	l5471
  2116  000308                     u5890:
  2117  000308                     
  2118                           ; BSR set to: 0
  2119  000308  0E63               	movlw	99
  2120  00030A  19EB               	xorwf	_Acci& (0+255),w,b
  2121  00030C  A4D8               	btfss	status,2,c
  2122  00030E  EF8B  F001         	goto	u5901
  2123  000312  EF8D  F001         	goto	u5900
  2124  000316                     u5901:
  2125  000316  EF91  F001         	goto	l5477
  2126  00031A                     u5900:
  2127  00031A                     l5471:
  2128                           
  2129                           ; BSR set to: 0
  2130                           ;SPARC.c: 150:             CREARINS();
  2131  00031A  EC23  F015         	call	_CREARINS	;wreg free
  2132  00031E  EF21  F001         	goto	l5433
  2133  000322                     l5477:
  2134                           
  2135                           ; BSR set to: 0
  2136  000322  0E46               	movlw	70
  2137  000324  19EB               	xorwf	_Acci& (0+255),w,b
  2138  000326  B4D8               	btfsc	status,2,c
  2139  000328  EF98  F001         	goto	u5911
  2140  00032C  EF9A  F001         	goto	u5910
  2141  000330                     u5911:
  2142  000330  EFA3  F001         	goto	l5481
  2143  000334                     u5910:
  2144  000334                     
  2145                           ; BSR set to: 0
  2146  000334  0E66               	movlw	102
  2147  000336  19EB               	xorwf	_Acci& (0+255),w,b
  2148  000338  A4D8               	btfss	status,2,c
  2149  00033A  EFA1  F001         	goto	u5921
  2150  00033E  EFA3  F001         	goto	u5920
  2151  000342                     u5921:
  2152  000342  EFCE  F001         	goto	l5493
  2153  000346                     u5920:
  2154  000346                     l5481:
  2155                           
  2156                           ; BSR set to: 0
  2157                           ;SPARC.c: 154:             OCUPADO();
  2158  000346  EC6A  F018         	call	_OCUPADO	;wreg free
  2159  00034A                     
  2160                           ;SPARC.c: 155:             imprimirINS();
  2161  00034A  ECFA  F012         	call	_imprimirINS	;wreg free
  2162  00034E                     
  2163                           ;SPARC.c: 156:             DirEEPROM=PREEJECUTAR(XvalorR, YvalorR);
  2164  00034E  C0F2  F0AC         	movff	_XvalorR,PREEJECUTAR@XR
  2165  000352  C0F3  F0AD         	movff	_XvalorR+1,PREEJECUTAR@XR+1
  2166  000356  C0F0  F0AE         	movff	_YvalorR,PREEJECUTAR@YR
  2167  00035A  C0F1  F0AF         	movff	_YvalorR+1,PREEJECUTAR@YR+1
  2168  00035E  EC87  F014         	call	_PREEJECUTAR	;wreg free
  2169  000362  0100               	movlb	0	; () banked
  2170  000364  6FE9               	movwf	_DirEEPROM& (0+255),b
  2171  000366                     
  2172                           ; BSR set to: 0
  2173                           ;SPARC.c: 157:             if(DirEEPROM<160){
  2174  000366  0EA0               	movlw	160
  2175  000368  61E9               	cpfslt	_DirEEPROM& (0+255),b
  2176  00036A  EFB9  F001         	goto	u5931
  2177  00036E  EFBB  F001         	goto	u5930
  2178  000372                     u5931:
  2179  000372  EF06  F001         	goto	l5423
  2180  000376                     u5930:
  2181  000376                     
  2182                           ; BSR set to: 0
  2183                           ;SPARC.c: 158:                 XvalorR=ExtraerDato(DirEEPROM+4);
  2184  000376  51E9               	movf	_DirEEPROM& (0+255),w,b
  2185  000378  0F04               	addlw	4
  2186  00037A  EC85  F018         	call	_ExtraerDato
  2187  00037E  C061  F0F2         	movff	?_ExtraerDato,_XvalorR
  2188  000382  C062  F0F3         	movff	?_ExtraerDato+1,_XvalorR+1
  2189                           
  2190                           ;SPARC.c: 159:                 YvalorR=ExtraerDato(DirEEPROM+6);
  2191  000386  0100               	movlb	0	; () banked
  2192  000388  51E9               	movf	_DirEEPROM& (0+255),w,b
  2193  00038A  0F06               	addlw	6
  2194  00038C  EC85  F018         	call	_ExtraerDato
  2195  000390  C061  F0F0         	movff	?_ExtraerDato,_YvalorR
  2196  000394  C062  F0F1         	movff	?_ExtraerDato+1,_YvalorR+1
  2197  000398  EF06  F001         	goto	l5423
  2198  00039C                     l5493:
  2199                           
  2200                           ; BSR set to: 0
  2201  00039C  0E4C               	movlw	76
  2202  00039E  19EB               	xorwf	_Acci& (0+255),w,b
  2203  0003A0  B4D8               	btfsc	status,2,c
  2204  0003A2  EFD5  F001         	goto	u5941
  2205  0003A6  EFD7  F001         	goto	u5940
  2206  0003AA                     u5941:
  2207  0003AA  EFE0  F001         	goto	l5497
  2208  0003AE                     u5940:
  2209  0003AE                     
  2210                           ; BSR set to: 0
  2211  0003AE  0E6C               	movlw	108
  2212  0003B0  19EB               	xorwf	_Acci& (0+255),w,b
  2213  0003B2  A4D8               	btfss	status,2,c
  2214  0003B4  EFDE  F001         	goto	u5951
  2215  0003B8  EFE0  F001         	goto	u5950
  2216  0003BC                     u5951:
  2217  0003BC  EFE4  F001         	goto	l5501
  2218  0003C0                     u5950:
  2219  0003C0                     l5497:
  2220                           
  2221                           ; BSR set to: 0
  2222                           ;SPARC.c: 163:             imprimirSet();
  2223  0003C0  EC3E  F007         	call	_imprimirSet	;wreg free
  2224  0003C4  EF06  F001         	goto	l5423
  2225  0003C8                     l5501:
  2226                           
  2227                           ; BSR set to: 0
  2228  0003C8  0E4E               	movlw	78
  2229  0003CA  19EB               	xorwf	_Acci& (0+255),w,b
  2230  0003CC  B4D8               	btfsc	status,2,c
  2231  0003CE  EFEB  F001         	goto	u5961
  2232  0003D2  EFED  F001         	goto	u5960
  2233  0003D6                     u5961:
  2234  0003D6  EFF6  F001         	goto	l5505
  2235  0003DA                     u5960:
  2236  0003DA                     
  2237                           ; BSR set to: 0
  2238  0003DA  0E6E               	movlw	110
  2239  0003DC  19EB               	xorwf	_Acci& (0+255),w,b
  2240  0003DE  A4D8               	btfss	status,2,c
  2241  0003E0  EFF4  F001         	goto	u5971
  2242  0003E4  EFF6  F001         	goto	u5970
  2243  0003E8                     u5971:
  2244  0003E8  EFFA  F001         	goto	l5509
  2245  0003EC                     u5970:
  2246  0003EC                     l5505:
  2247                           
  2248                           ; BSR set to: 0
  2249                           ;SPARC.c: 166:             imprimirINS();
  2250  0003EC  ECFA  F012         	call	_imprimirINS	;wreg free
  2251  0003F0  EF06  F001         	goto	l5423
  2252  0003F4                     l5509:
  2253                           
  2254                           ; BSR set to: 0
  2255  0003F4  0E54               	movlw	84
  2256  0003F6  19EB               	xorwf	_Acci& (0+255),w,b
  2257  0003F8  B4D8               	btfsc	status,2,c
  2258  0003FA  EF01  F002         	goto	u5981
  2259  0003FE  EF03  F002         	goto	u5980
  2260  000402                     u5981:
  2261  000402  EF0C  F002         	goto	l5513
  2262  000406                     u5980:
  2263  000406                     
  2264                           ; BSR set to: 0
  2265  000406  0E74               	movlw	116
  2266  000408  19EB               	xorwf	_Acci& (0+255),w,b
  2267  00040A  A4D8               	btfss	status,2,c
  2268  00040C  EF0A  F002         	goto	u5991
  2269  000410  EF0C  F002         	goto	u5990
  2270  000414                     u5991:
  2271  000414  EF18  F002         	goto	l5515
  2272  000418                     u5990:
  2273  000418                     l5513:
  2274                           
  2275                           ; BSR set to: 0
  2276                           ;SPARC.c: 169:             COORReal (XvalorR, YvalorR);
  2277  000418  C0F2  F06C         	movff	_XvalorR,COORReal@Xvalora
  2278  00041C  C0F3  F06D         	movff	_XvalorR+1,COORReal@Xvalora+1
  2279  000420  C0F0  F06E         	movff	_YvalorR,COORReal@Yvalora
  2280  000424  C0F1  F06F         	movff	_YvalorR+1,COORReal@Yvalora+1
  2281  000428  EC53  F00C         	call	_COORReal	;wreg free
  2282                           
  2283                           ;SPARC.c: 170:         }else if(Acci=='R'||Acci=='r') {
  2284  00042C  EF62  F002         	goto	l5537
  2285  000430                     l5515:
  2286                           
  2287                           ; BSR set to: 0
  2288  000430  0E52               	movlw	82
  2289  000432  19EB               	xorwf	_Acci& (0+255),w,b
  2290  000434  B4D8               	btfsc	status,2,c
  2291  000436  EF1F  F002         	goto	u6001
  2292  00043A  EF21  F002         	goto	u6000
  2293  00043E                     u6001:
  2294  00043E  EF2A  F002         	goto	l5519
  2295  000442                     u6000:
  2296  000442                     
  2297                           ; BSR set to: 0
  2298  000442  0E72               	movlw	114
  2299  000444  19EB               	xorwf	_Acci& (0+255),w,b
  2300  000446  A4D8               	btfss	status,2,c
  2301  000448  EF28  F002         	goto	u6011
  2302  00044C  EF2A  F002         	goto	u6010
  2303  000450                     u6011:
  2304  000450  EF54  F002         	goto	l5531
  2305  000454                     u6010:
  2306  000454                     l5519:
  2307                           
  2308                           ; BSR set to: 0
  2309                           ;SPARC.c: 171:             OCUPADO();
  2310  000454  EC6A  F018         	call	_OCUPADO	;wreg free
  2311  000458                     
  2312                           ;SPARC.c: 172:             if(PORTBbits.RB1==0) {
  2313  000458  B281               	btfsc	129,1,c	;volatile
  2314  00045A  EF31  F002         	goto	u6021
  2315  00045E  EF33  F002         	goto	u6020
  2316  000462                     u6021:
  2317  000462  EF3E  F002         	goto	l5525
  2318  000466                     u6020:
  2319  000466                     
  2320                           ;SPARC.c: 173:                 motoresmov(-1000, 0);
  2321  000466  0EFC               	movlw	252
  2322  000468  0100               	movlb	0	; () banked
  2323  00046A  6F95               	movwf	(motoresmov@DifX+1)& (0+255),b
  2324  00046C  0E18               	movlw	24
  2325  00046E  6F94               	movwf	motoresmov@DifX& (0+255),b
  2326  000470  0E00               	movlw	0
  2327  000472  6F97               	movwf	(motoresmov@DifY+1)& (0+255),b
  2328  000474  0E00               	movlw	0
  2329  000476  6F96               	movwf	motoresmov@DifY& (0+255),b
  2330  000478  ECCE  F011         	call	_motoresmov	;wreg free
  2331  00047C                     l5525:
  2332                           
  2333                           ;SPARC.c: 175:              if(PORTBbits.RB0==0) {
  2334  00047C  B081               	btfsc	129,0,c	;volatile
  2335  00047E  EF43  F002         	goto	u6031
  2336  000482  EF45  F002         	goto	u6030
  2337  000486                     u6031:
  2338  000486  EF50  F002         	goto	l5529
  2339  00048A                     u6030:
  2340  00048A                     
  2341                           ;SPARC.c: 176:                 motoresmov(0, -1000);
  2342  00048A  0E00               	movlw	0
  2343  00048C  0100               	movlb	0	; () banked
  2344  00048E  6F95               	movwf	(motoresmov@DifX+1)& (0+255),b
  2345  000490  0E00               	movlw	0
  2346  000492  6F94               	movwf	motoresmov@DifX& (0+255),b
  2347  000494  0EFC               	movlw	252
  2348  000496  6F97               	movwf	(motoresmov@DifY+1)& (0+255),b
  2349  000498  0E18               	movlw	24
  2350  00049A  6F96               	movwf	motoresmov@DifY& (0+255),b
  2351  00049C  ECCE  F011         	call	_motoresmov	;wreg free
  2352  0004A0                     l5529:
  2353                           
  2354                           ;SPARC.c: 178:             Mensaje_comando_completado();
  2355  0004A0  EC62  F017         	call	_Mensaje_comando_completado	;wreg free
  2356                           
  2357                           ;SPARC.c: 179:         }else if(Acci==((void*)0)){
  2358  0004A4  EF62  F002         	goto	l5537
  2359  0004A8                     l5531:
  2360                           
  2361                           ; BSR set to: 0
  2362  0004A8  51EB               	movf	_Acci& (0+255),w,b
  2363  0004AA  A4D8               	btfss	status,2,c
  2364  0004AC  EF5A  F002         	goto	u6041
  2365  0004B0  EF5C  F002         	goto	u6040
  2366  0004B4                     u6041:
  2367  0004B4  EF60  F002         	goto	l5535
  2368  0004B8                     u6040:
  2369  0004B8                     
  2370                           ; BSR set to: 0
  2371                           ;SPARC.c: 180:             Tardanza();
  2372  0004B8  ECF7  F017         	call	_Tardanza	;wreg free
  2373                           
  2374                           ;SPARC.c: 181:         }else {
  2375  0004BC  EF62  F002         	goto	l5537
  2376  0004C0                     l5535:
  2377                           
  2378                           ; BSR set to: 0
  2379                           ;SPARC.c: 182:             NOcomando();
  2380  0004C0  EC14  F018         	call	_NOcomando	;wreg free
  2381  0004C4                     l5537:
  2382                           
  2383                           ;SPARC.c: 184:         Xvalorn=0;
  2384  0004C4  0E00               	movlw	0
  2385  0004C6  0100               	movlb	0	; () banked
  2386  0004C8  6FEF               	movwf	(_Xvalorn+1)& (0+255),b
  2387  0004CA  0E00               	movlw	0
  2388  0004CC  6FEE               	movwf	_Xvalorn& (0+255),b
  2389  0004CE                     
  2390                           ; BSR set to: 0
  2391                           ;SPARC.c: 185:         Yvalorn=0;
  2392  0004CE  0E00               	movlw	0
  2393  0004D0  6FED               	movwf	(_Yvalorn+1)& (0+255),b
  2394  0004D2  0E00               	movlw	0
  2395  0004D4  6FEC               	movwf	_Yvalorn& (0+255),b
  2396  0004D6                     
  2397                           ; BSR set to: 0
  2398                           ;SPARC.c: 186:         GuardarsetX(252, XvalorR);
  2399  0004D6  C0F2  F062         	movff	_XvalorR,GuardarsetX@X
  2400  0004DA  C0F3  F063         	movff	_XvalorR+1,GuardarsetX@X+1
  2401  0004DE  0EFC               	movlw	252
  2402  0004E0  EC85  F019         	call	_GuardarsetX
  2403  0004E4                     
  2404                           ;SPARC.c: 187:         GuardarsetY(254, YvalorR);
  2405  0004E4  C0F0  F062         	movff	_YvalorR,GuardarsetY@Y
  2406  0004E8  C0F1  F063         	movff	_YvalorR+1,GuardarsetY@Y+1
  2407  0004EC  0EFE               	movlw	254
  2408  0004EE  EC72  F019         	call	_GuardarsetY
  2409  0004F2  EF65  F000         	goto	l5377
  2410  0004F6  EF07  F000         	goto	start
  2411  0004FA                     __end_of_main:
  2412                           	opt callstack 0
  2413                           
  2414 ;; *************** function _inter_init *****************
  2415 ;; Defined at:
  2416 ;;		line 14 in file "../Proyectoa4550.X/GPIO.c"
  2417 ;; Parameters:    Size  Location     Type
  2418 ;;		None
  2419 ;; Auto vars:     Size  Location     Type
  2420 ;;		None
  2421 ;; Return value:  Size  Location     Type
  2422 ;;                  1    wreg      void 
  2423 ;; Registers used:
  2424 ;;		None
  2425 ;; Tracked objects:
  2426 ;;		On entry : 0/0
  2427 ;;		On exit  : 0/0
  2428 ;;		Unchanged: 0/0
  2429 ;; Data sizes:     COMRAM   BANK0   BANK1   BANK2   BANK3   BANK4   BANK5   BANK6   BANK7
  2430 ;;      Params:         0       0       0       0       0       0       0       0       0
  2431 ;;      Locals:         0       0       0       0       0       0       0       0       0
  2432 ;;      Temps:          0       0       0       0       0       0       0       0       0
  2433 ;;      Totals:         0       0       0       0       0       0       0       0       0
  2434 ;;Total ram usage:        0 bytes
  2435 ;; Hardware stack levels used:    1
  2436 ;; Hardware stack levels required when called:    5
  2437 ;; This function calls:
  2438 ;;		Nothing
  2439 ;; This function is called by:
  2440 ;;		_main
  2441 ;; This function uses a non-reentrant model
  2442 ;;
  2443                           
  2444                           	psect	text1
  2445  002B78                     __ptext1:
  2446                           	opt callstack 0
  2447  002B78                     _inter_init:
  2448                           	opt callstack 25
  2449  002B78                     
  2450                           ;../Proyectoa4550.X/GPIO.c: 15:     TRISBbits.RB0=1;
  2451  002B78  8093               	bsf	147,0,c	;volatile
  2452                           
  2453                           ;../Proyectoa4550.X/GPIO.c: 16:     TRISBbits.RB1=1;
  2454  002B7A  8293               	bsf	147,1,c	;volatile
  2455                           
  2456                           ;../Proyectoa4550.X/GPIO.c: 17:     TRISBbits.RB2=1;
  2457  002B7C  8493               	bsf	147,2,c	;volatile
  2458                           
  2459                           ;../Proyectoa4550.X/GPIO.c: 18:     INTCONbits.INT0IE=1;
  2460  002B7E  88F2               	bsf	242,4,c	;volatile
  2461                           
  2462                           ;../Proyectoa4550.X/GPIO.c: 19:     INTCON3bits.INT1E=1;
  2463  002B80  86F0               	bsf	240,3,c	;volatile
  2464                           
  2465                           ;../Proyectoa4550.X/GPIO.c: 20:     INTCON3bits.INT2IE=1;
  2466  002B82  88F0               	bsf	240,4,c	;volatile
  2467                           
  2468                           ;../Proyectoa4550.X/GPIO.c: 21:     INTCON3bits.INT1IF=0;
  2469  002B84  90F0               	bcf	240,0,c	;volatile
  2470                           
  2471                           ;../Proyectoa4550.X/GPIO.c: 22:     INTCONbits.INT0IF=0;
  2472  002B86  92F2               	bcf	242,1,c	;volatile
  2473                           
  2474                           ;../Proyectoa4550.X/GPIO.c: 23:     INTCON3bits.INT2IF=0;
  2475  002B88  92F0               	bcf	240,1,c	;volatile
  2476                           
  2477                           ;../Proyectoa4550.X/GPIO.c: 24:     RCONbits.IPEN=0;
  2478  002B8A  9ED0               	bcf	208,7,c	;volatile
  2479                           
  2480                           ;../Proyectoa4550.X/GPIO.c: 25:     INTCON2bits.RBPU=1;
  2481  002B8C  8EF1               	bsf	241,7,c	;volatile
  2482                           
  2483                           ;../Proyectoa4550.X/GPIO.c: 26:     INTCON2bits.INTEDG0=1;
  2484  002B8E  8CF1               	bsf	241,6,c	;volatile
  2485                           
  2486                           ;../Proyectoa4550.X/GPIO.c: 27:     INTCON2bits.INTEDG1=1;
  2487  002B90  8AF1               	bsf	241,5,c	;volatile
  2488                           
  2489                           ;../Proyectoa4550.X/GPIO.c: 28:     INTCON2bits.INTEDG2=1;
  2490  002B92  88F1               	bsf	241,4,c	;volatile
  2491                           
  2492                           ;../Proyectoa4550.X/GPIO.c: 29:     INTCONbits.GIE=1;
  2493  002B94  8EF2               	bsf	242,7,c	;volatile
  2494                           
  2495                           ;../Proyectoa4550.X/GPIO.c: 31:     CMCON=0xFF;
  2496  002B96  68B4               	setf	180,c	;volatile
  2497                           
  2498                           ;../Proyectoa4550.X/GPIO.c: 32:     CVRCONbits.CVREN = 0;
  2499  002B98  9EB5               	bcf	181,7,c	;volatile
  2500                           
  2501                           ;../Proyectoa4550.X/GPIO.c: 33:     TRISDbits.RD0=0;
  2502  002B9A  9095               	bcf	149,0,c	;volatile
  2503                           
  2504                           ;../Proyectoa4550.X/GPIO.c: 34:     TRISDbits.RD1=0;
  2505  002B9C  9295               	bcf	149,1,c	;volatile
  2506                           
  2507                           ;../Proyectoa4550.X/GPIO.c: 35:     TRISDbits.RD2=0;
  2508  002B9E  9495               	bcf	149,2,c	;volatile
  2509                           
  2510                           ;../Proyectoa4550.X/GPIO.c: 36:     TRISDbits.RD3=0;
  2511  002BA0  9695               	bcf	149,3,c	;volatile
  2512                           
  2513                           ;../Proyectoa4550.X/GPIO.c: 37:     TRISDbits.RD4=0;
  2514  002BA2  9895               	bcf	149,4,c	;volatile
  2515                           
  2516                           ;../Proyectoa4550.X/GPIO.c: 38:     TRISDbits.RD5=0;
  2517  002BA4  9A95               	bcf	149,5,c	;volatile
  2518                           
  2519                           ;../Proyectoa4550.X/GPIO.c: 39:     TRISDbits.RD6=0;
  2520  002BA6  9C95               	bcf	149,6,c	;volatile
  2521                           
  2522                           ;../Proyectoa4550.X/GPIO.c: 40:     TRISDbits.RD7=0;
  2523  002BA8  9E95               	bcf	149,7,c	;volatile
  2524                           
  2525                           ;../Proyectoa4550.X/GPIO.c: 41:     PORTDbits.RD1=0;
  2526  002BAA  9283               	bcf	131,1,c	;volatile
  2527                           
  2528                           ;../Proyectoa4550.X/GPIO.c: 42:     PORTDbits.RD0=0;
  2529  002BAC  9083               	bcf	131,0,c	;volatile
  2530                           
  2531                           ;../Proyectoa4550.X/GPIO.c: 43:     PORTDbits.RD3=1;
  2532  002BAE  8683               	bsf	131,3,c	;volatile
  2533                           
  2534                           ;../Proyectoa4550.X/GPIO.c: 44:     PORTDbits.RD2=1;
  2535  002BB0  8483               	bsf	131,2,c	;volatile
  2536                           
  2537                           ;../Proyectoa4550.X/GPIO.c: 45:     PORTDbits.RD4=0;
  2538  002BB2  9883               	bcf	131,4,c	;volatile
  2539                           
  2540                           ;../Proyectoa4550.X/GPIO.c: 46:     PORTDbits.RD5=0;
  2541  002BB4  9A83               	bcf	131,5,c	;volatile
  2542                           
  2543                           ;../Proyectoa4550.X/GPIO.c: 47:     PORTDbits.RD6=0;
  2544  002BB6  9C83               	bcf	131,6,c	;volatile
  2545                           
  2546                           ;../Proyectoa4550.X/GPIO.c: 48:     PORTDbits.RD7=0;
  2547  002BB8  9E83               	bcf	131,7,c	;volatile
  2548  002BBA  0012               	return		;funcret
  2549  002BBC                     __end_of_inter_init:
  2550                           	opt callstack 0
  2551                           
  2552 ;; *************** function _imprimirSet *****************
  2553 ;; Defined at:
  2554 ;;		line 79 in file "../Proyectoa4550.X/Mensajes50.c"
  2555 ;; Parameters:    Size  Location     Type
  2556 ;;		None
  2557 ;; Auto vars:     Size  Location     Type
  2558 ;;  i               1   34[BANK0 ] unsigned char 
  2559 ;;  R               1   33[BANK0 ] unsigned char 
  2560 ;;  Pos            14   12[BANK0 ] unsigned char [14]
  2561 ;;  Y               2   37[BANK0 ] unsigned short 
  2562 ;;  X               2   35[BANK0 ] unsigned short 
  2563 ;;  i               1   39[BANK0 ] unsigned char 
  2564 ;;  YL              1   30[BANK0 ] unsigned char 
  2565 ;;  YH              1   29[BANK0 ] unsigned char 
  2566 ;;  XL              1   28[BANK0 ] unsigned char 
  2567 ;;  XH              1   27[BANK0 ] unsigned char 
  2568 ;;  Send            1   26[BANK0 ] unsigned char 
  2569 ;; Return value:  Size  Location     Type
  2570 ;;                  1    wreg      void 
  2571 ;; Registers used:
  2572 ;;		wreg, fsr1l, fsr1h, fsr2l, fsr2h, status,2, status,0, cstack
  2573 ;; Tracked objects:
  2574 ;;		On entry : 0/0
  2575 ;;		On exit  : 0/0
  2576 ;;		Unchanged: 0/0
  2577 ;; Data sizes:     COMRAM   BANK0   BANK1   BANK2   BANK3   BANK4   BANK5   BANK6   BANK7
  2578 ;;      Params:         0       0       0       0       0       0       0       0       0
  2579 ;;      Locals:         0      28       0       0       0       0       0       0       0
  2580 ;;      Temps:          0       0       0       0       0       0       0       0       0
  2581 ;;      Totals:         0      28       0       0       0       0       0       0       0
  2582 ;;Total ram usage:       28 bytes
  2583 ;; Hardware stack levels used:    1
  2584 ;; Hardware stack levels required when called:    6
  2585 ;; This function calls:
  2586 ;;		_EEPROM_R
  2587 ;;		_UARTWrite
  2588 ;;		___lwdiv
  2589 ;;		___lwmod
  2590 ;; This function is called by:
  2591 ;;		_main
  2592 ;; This function uses a non-reentrant model
  2593 ;;
  2594                           
  2595                           	psect	text2
  2596  000E7C                     __ptext2:
  2597                           	opt callstack 0
  2598  000E7C                     _imprimirSet:
  2599                           	opt callstack 24
  2600  000E7C                     
  2601                           ;../Proyectoa4550.X/Mensajes50.c: 81:     uint8_t XL=0;
  2602  000E7C  0E00               	movlw	0
  2603  000E7E  0100               	movlb	0	; () banked
  2604  000E80  6F7C               	movwf	imprimirSet@XL& (0+255),b
  2605                           
  2606                           ;../Proyectoa4550.X/Mensajes50.c: 82:     uint16_t X=0;
  2607  000E82  0E00               	movlw	0
  2608  000E84  6F84               	movwf	(imprimirSet@X+1)& (0+255),b
  2609  000E86  0E00               	movlw	0
  2610  000E88  6F83               	movwf	imprimirSet@X& (0+255),b
  2611                           
  2612                           ;../Proyectoa4550.X/Mensajes50.c: 84:     uint8_t YH=0;
  2613  000E8A  0E00               	movlw	0
  2614  000E8C  6F7D               	movwf	imprimirSet@YH& (0+255),b
  2615                           
  2616                           ;../Proyectoa4550.X/Mensajes50.c: 85:     uint8_t YL=0;
  2617  000E8E  0E00               	movlw	0
  2618  000E90  6F7E               	movwf	imprimirSet@YL& (0+255),b
  2619                           
  2620                           ;../Proyectoa4550.X/Mensajes50.c: 86:     uint16_t Y=0;
  2621  000E92  0E00               	movlw	0
  2622  000E94  6F86               	movwf	(imprimirSet@Y+1)& (0+255),b
  2623  000E96  0E00               	movlw	0
  2624  000E98  6F85               	movwf	imprimirSet@Y& (0+255),b
  2625                           
  2626                           ;../Proyectoa4550.X/Mensajes50.c: 87:     uint8_t i=0;
  2627  000E9A  0E00               	movlw	0
  2628  000E9C  6F87               	movwf	imprimirSet@i& (0+255),b
  2629  000E9E                     
  2630                           ; BSR set to: 0
  2631                           ;../Proyectoa4550.X/Mensajes50.c: 89:     uint8_t Pos[]="X=000 Y=000\n\r";
  2632  000E9E  EE20  F0B2         	lfsr	2,imprimirSet@F3622
  2633  000EA2  EE10  F06C         	lfsr	1,imprimirSet@Pos
  2634  000EA6  0E0D               	movlw	13
  2635  000EA8                     u5251:
  2636  000EA8  CFDB FFE3          	movff	plusw2,plusw1
  2637  000EAC  06E8               	decf	wreg,f,c
  2638  000EAE  E2FC               	bc	u5251
  2639                           
  2640                           ;../Proyectoa4550.X/Mensajes50.c: 90:     uint8_t Send;;../Proyectoa4550.X/Mensajes50.c:
      +                           92:     while(i<160) {
  2641  000EB0  EF44  F008         	goto	l89
  2642  000EB4                     l4837:
  2643                           
  2644                           ; BSR set to: 0
  2645                           ;../Proyectoa4550.X/Mensajes50.c: 93:         for(uint8_t R=0; R<=3; R++) {
  2646  000EB4  0E00               	movlw	0
  2647  000EB6  6F81               	movwf	imprimirSet@R& (0+255),b
  2648  000EB8                     l4843:
  2649                           
  2650                           ; BSR set to: 0
  2651                           ;../Proyectoa4550.X/Mensajes50.c: 94:             UARTWrite(EEPROM_R((R+i)));
  2652  000EB8  5181               	movf	imprimirSet@R& (0+255),w,b
  2653  000EBA  2587               	addwf	imprimirSet@i& (0+255),w,b
  2654  000EBC  EC79  F01A         	call	_EEPROM_R
  2655  000EC0  EC57  F01A         	call	_UARTWrite
  2656  000EC4                     
  2657                           ;../Proyectoa4550.X/Mensajes50.c: 95:         }
  2658  000EC4  0100               	movlb	0	; () banked
  2659  000EC6  2B81               	incf	imprimirSet@R& (0+255),f,b
  2660  000EC8                     
  2661                           ; BSR set to: 0
  2662  000EC8  0E03               	movlw	3
  2663  000ECA  6581               	cpfsgt	imprimirSet@R& (0+255),b
  2664  000ECC  EF6A  F007         	goto	u5261
  2665  000ED0  EF6C  F007         	goto	u5260
  2666  000ED4                     u5261:
  2667  000ED4  EF5C  F007         	goto	l4843
  2668  000ED8                     u5260:
  2669  000ED8                     
  2670                           ; BSR set to: 0
  2671                           ;../Proyectoa4550.X/Mensajes50.c: 96:         UARTWrite(' ');
  2672  000ED8  0E20               	movlw	32
  2673  000EDA  EC57  F01A         	call	_UARTWrite
  2674  000EDE                     
  2675                           ;../Proyectoa4550.X/Mensajes50.c: 97:         i=i+4;
  2676  000EDE  0100               	movlb	0	; () banked
  2677  000EE0  5187               	movf	imprimirSet@i& (0+255),w,b
  2678  000EE2  0F04               	addlw	4
  2679  000EE4  6F87               	movwf	imprimirSet@i& (0+255),b
  2680  000EE6                     
  2681                           ; BSR set to: 0
  2682                           ;../Proyectoa4550.X/Mensajes50.c: 98:         XL=EEPROM_R(i);
  2683  000EE6  5187               	movf	imprimirSet@i& (0+255),w,b
  2684  000EE8  EC79  F01A         	call	_EEPROM_R
  2685  000EEC  0100               	movlb	0	; () banked
  2686  000EEE  6F7C               	movwf	imprimirSet@XL& (0+255),b
  2687  000EF0                     
  2688                           ; BSR set to: 0
  2689                           ;../Proyectoa4550.X/Mensajes50.c: 99:         XH=EEPROM_R((i+1));
  2690  000EF0  2987               	incf	imprimirSet@i& (0+255),w,b
  2691  000EF2  EC79  F01A         	call	_EEPROM_R
  2692  000EF6  0100               	movlb	0	; () banked
  2693  000EF8  6F7B               	movwf	imprimirSet@XH& (0+255),b
  2694  000EFA                     
  2695                           ; BSR set to: 0
  2696                           ;../Proyectoa4550.X/Mensajes50.c: 100:         X=(uint16_t)XH;
  2697  000EFA  C07B  F083         	movff	imprimirSet@XH,imprimirSet@X
  2698  000EFE  6B84               	clrf	(imprimirSet@X+1)& (0+255),b
  2699  000F00                     
  2700                           ; BSR set to: 0
  2701                           ;../Proyectoa4550.X/Mensajes50.c: 101:         X=X<<8;
  2702  000F00  5183               	movf	imprimirSet@X& (0+255),w,b
  2703  000F02  6F84               	movwf	(imprimirSet@X+1)& (0+255),b
  2704  000F04  6B83               	clrf	imprimirSet@X& (0+255),b
  2705  000F06                     
  2706                           ; BSR set to: 0
  2707                           ;../Proyectoa4550.X/Mensajes50.c: 102:         X=X+XL;
  2708  000F06  517C               	movf	imprimirSet@XL& (0+255),w,b
  2709  000F08  2583               	addwf	imprimirSet@X& (0+255),w,b
  2710  000F0A  6F83               	movwf	imprimirSet@X& (0+255),b
  2711  000F0C  0E00               	movlw	0
  2712  000F0E  2184               	addwfc	(imprimirSet@X+1)& (0+255),w,b
  2713  000F10  6F84               	movwf	(imprimirSet@X+1)& (0+255),b
  2714  000F12                     
  2715                           ; BSR set to: 0
  2716                           ;../Proyectoa4550.X/Mensajes50.c: 103:         i=i+2;
  2717  000F12  5187               	movf	imprimirSet@i& (0+255),w,b
  2718  000F14  0F02               	addlw	2
  2719  000F16  6F87               	movwf	imprimirSet@i& (0+255),b
  2720  000F18                     
  2721                           ; BSR set to: 0
  2722                           ;../Proyectoa4550.X/Mensajes50.c: 104:         YL=EEPROM_R(i);
  2723  000F18  5187               	movf	imprimirSet@i& (0+255),w,b
  2724  000F1A  EC79  F01A         	call	_EEPROM_R
  2725  000F1E  0100               	movlb	0	; () banked
  2726  000F20  6F7E               	movwf	imprimirSet@YL& (0+255),b
  2727  000F22                     
  2728                           ; BSR set to: 0
  2729                           ;../Proyectoa4550.X/Mensajes50.c: 105:         YH=EEPROM_R((i+1));
  2730  000F22  2987               	incf	imprimirSet@i& (0+255),w,b
  2731  000F24  EC79  F01A         	call	_EEPROM_R
  2732  000F28  0100               	movlb	0	; () banked
  2733  000F2A  6F7D               	movwf	imprimirSet@YH& (0+255),b
  2734  000F2C                     
  2735                           ; BSR set to: 0
  2736                           ;../Proyectoa4550.X/Mensajes50.c: 106:         Y=(uint16_t)YH;
  2737  000F2C  C07D  F085         	movff	imprimirSet@YH,imprimirSet@Y
  2738  000F30  6B86               	clrf	(imprimirSet@Y+1)& (0+255),b
  2739  000F32                     
  2740                           ; BSR set to: 0
  2741                           ;../Proyectoa4550.X/Mensajes50.c: 107:         Y=Y<<8;
  2742  000F32  5185               	movf	imprimirSet@Y& (0+255),w,b
  2743  000F34  6F86               	movwf	(imprimirSet@Y+1)& (0+255),b
  2744  000F36  6B85               	clrf	imprimirSet@Y& (0+255),b
  2745  000F38                     
  2746                           ; BSR set to: 0
  2747                           ;../Proyectoa4550.X/Mensajes50.c: 108:         Y=Y+YL;
  2748  000F38  517E               	movf	imprimirSet@YL& (0+255),w,b
  2749  000F3A  2585               	addwf	imprimirSet@Y& (0+255),w,b
  2750  000F3C  6F85               	movwf	imprimirSet@Y& (0+255),b
  2751  000F3E  0E00               	movlw	0
  2752  000F40  2186               	addwfc	(imprimirSet@Y+1)& (0+255),w,b
  2753  000F42  6F86               	movwf	(imprimirSet@Y+1)& (0+255),b
  2754  000F44                     
  2755                           ; BSR set to: 0
  2756                           ;../Proyectoa4550.X/Mensajes50.c: 110:         Pos[2]=(X/100)+'0';
  2757  000F44  C083  F065         	movff	imprimirSet@X,___lwdiv@dividend
  2758  000F48  C084  F066         	movff	imprimirSet@X+1,___lwdiv@dividend+1
  2759  000F4C  0E00               	movlw	0
  2760  000F4E  6F68               	movwf	(___lwdiv@divisor+1)& (0+255),b
  2761  000F50  0E64               	movlw	100
  2762  000F52  6F67               	movwf	___lwdiv@divisor& (0+255),b
  2763  000F54  EC4C  F014         	call	___lwdiv	;wreg free
  2764  000F58  0100               	movlb	0	; () banked
  2765  000F5A  5165               	movf	?___lwdiv& (0+255),w,b
  2766  000F5C  0F30               	addlw	48
  2767  000F5E  6F6E               	movwf	(imprimirSet@Pos+2)& (0+255),b
  2768  000F60                     
  2769                           ; BSR set to: 0
  2770                           ;../Proyectoa4550.X/Mensajes50.c: 111:         Pos[3]=(X % 100) / 10 + '0';
  2771  000F60  0E00               	movlw	0
  2772  000F62  6F63               	movwf	(___lwmod@divisor+1)& (0+255),b
  2773  000F64  0E64               	movlw	100
  2774  000F66  6F62               	movwf	___lwmod@divisor& (0+255),b
  2775  000F68  C083  F060         	movff	imprimirSet@X,___lwmod@dividend
  2776  000F6C  C084  F061         	movff	imprimirSet@X+1,___lwmod@dividend+1
  2777  000F70  ECBE  F014         	call	___lwmod	;wreg free
  2778  000F74  C060  F065         	movff	?___lwmod,___lwdiv@dividend
  2779  000F78  C061  F066         	movff	?___lwmod+1,___lwdiv@dividend+1
  2780  000F7C  0E00               	movlw	0
  2781  000F7E  0100               	movlb	0	; () banked
  2782  000F80  6F68               	movwf	(___lwdiv@divisor+1)& (0+255),b
  2783  000F82  0E0A               	movlw	10
  2784  000F84  6F67               	movwf	___lwdiv@divisor& (0+255),b
  2785  000F86  EC4C  F014         	call	___lwdiv	;wreg free
  2786  000F8A  0100               	movlb	0	; () banked
  2787  000F8C  5165               	movf	?___lwdiv& (0+255),w,b
  2788  000F8E  0F30               	addlw	48
  2789  000F90  6F6F               	movwf	(imprimirSet@Pos+3)& (0+255),b
  2790  000F92                     
  2791                           ; BSR set to: 0
  2792                           ;../Proyectoa4550.X/Mensajes50.c: 112:         Pos[4]=(X % 100) % 10 + '0';
  2793  000F92  0E00               	movlw	0
  2794  000F94  6F63               	movwf	(___lwmod@divisor+1)& (0+255),b
  2795  000F96  0E64               	movlw	100
  2796  000F98  6F62               	movwf	___lwmod@divisor& (0+255),b
  2797  000F9A  C083  F060         	movff	imprimirSet@X,___lwmod@dividend
  2798  000F9E  C084  F061         	movff	imprimirSet@X+1,___lwmod@dividend+1
  2799  000FA2  ECBE  F014         	call	___lwmod	;wreg free
  2800  000FA6  C060  F07F         	movff	?___lwmod,_imprimirSet$2314
  2801  000FAA  C061  F080         	movff	?___lwmod+1,_imprimirSet$2314+1
  2802  000FAE                     
  2803                           ;../Proyectoa4550.X/Mensajes50.c: 112:         Pos[4]=(X % 100) % 10 + '0';
  2804  000FAE  C07F  F060         	movff	_imprimirSet$2314,___lwmod@dividend
  2805  000FB2  C080  F061         	movff	_imprimirSet$2314+1,___lwmod@dividend+1
  2806  000FB6  0E00               	movlw	0
  2807  000FB8  0100               	movlb	0	; () banked
  2808  000FBA  6F63               	movwf	(___lwmod@divisor+1)& (0+255),b
  2809  000FBC  0E0A               	movlw	10
  2810  000FBE  6F62               	movwf	___lwmod@divisor& (0+255),b
  2811  000FC0  ECBE  F014         	call	___lwmod	;wreg free
  2812  000FC4  0100               	movlb	0	; () banked
  2813  000FC6  5160               	movf	?___lwmod& (0+255),w,b
  2814  000FC8  0F30               	addlw	48
  2815  000FCA  6F70               	movwf	(imprimirSet@Pos+4)& (0+255),b
  2816  000FCC                     
  2817                           ; BSR set to: 0
  2818                           ;../Proyectoa4550.X/Mensajes50.c: 113:         Pos[8]=(Y/100)+'0';
  2819  000FCC  C085  F065         	movff	imprimirSet@Y,___lwdiv@dividend
  2820  000FD0  C086  F066         	movff	imprimirSet@Y+1,___lwdiv@dividend+1
  2821  000FD4  0E00               	movlw	0
  2822  000FD6  6F68               	movwf	(___lwdiv@divisor+1)& (0+255),b
  2823  000FD8  0E64               	movlw	100
  2824  000FDA  6F67               	movwf	___lwdiv@divisor& (0+255),b
  2825  000FDC  EC4C  F014         	call	___lwdiv	;wreg free
  2826  000FE0  0100               	movlb	0	; () banked
  2827  000FE2  5165               	movf	?___lwdiv& (0+255),w,b
  2828  000FE4  0F30               	addlw	48
  2829  000FE6  6F74               	movwf	(imprimirSet@Pos+8)& (0+255),b
  2830  000FE8                     
  2831                           ; BSR set to: 0
  2832                           ;../Proyectoa4550.X/Mensajes50.c: 114:         Pos[9]=(Y % 100) / 10 + '0';
  2833  000FE8  0E00               	movlw	0
  2834  000FEA  6F63               	movwf	(___lwmod@divisor+1)& (0+255),b
  2835  000FEC  0E64               	movlw	100
  2836  000FEE  6F62               	movwf	___lwmod@divisor& (0+255),b
  2837  000FF0  C085  F060         	movff	imprimirSet@Y,___lwmod@dividend
  2838  000FF4  C086  F061         	movff	imprimirSet@Y+1,___lwmod@dividend+1
  2839  000FF8  ECBE  F014         	call	___lwmod	;wreg free
  2840  000FFC  C060  F065         	movff	?___lwmod,___lwdiv@dividend
  2841  001000  C061  F066         	movff	?___lwmod+1,___lwdiv@dividend+1
  2842  001004  0E00               	movlw	0
  2843  001006  0100               	movlb	0	; () banked
  2844  001008  6F68               	movwf	(___lwdiv@divisor+1)& (0+255),b
  2845  00100A  0E0A               	movlw	10
  2846  00100C  6F67               	movwf	___lwdiv@divisor& (0+255),b
  2847  00100E  EC4C  F014         	call	___lwdiv	;wreg free
  2848  001012  0100               	movlb	0	; () banked
  2849  001014  5165               	movf	?___lwdiv& (0+255),w,b
  2850  001016  0F30               	addlw	48
  2851  001018  6F75               	movwf	(imprimirSet@Pos+9)& (0+255),b
  2852  00101A                     
  2853                           ; BSR set to: 0
  2854                           ;../Proyectoa4550.X/Mensajes50.c: 115:         Pos[10]=(Y % 100) % 10 + '0';
  2855  00101A  0E00               	movlw	0
  2856  00101C  6F63               	movwf	(___lwmod@divisor+1)& (0+255),b
  2857  00101E  0E64               	movlw	100
  2858  001020  6F62               	movwf	___lwmod@divisor& (0+255),b
  2859  001022  C085  F060         	movff	imprimirSet@Y,___lwmod@dividend
  2860  001026  C086  F061         	movff	imprimirSet@Y+1,___lwmod@dividend+1
  2861  00102A  ECBE  F014         	call	___lwmod	;wreg free
  2862  00102E  C060  F07F         	movff	?___lwmod,_imprimirSet$2314
  2863  001032  C061  F080         	movff	?___lwmod+1,_imprimirSet$2314+1
  2864  001036                     
  2865                           ;../Proyectoa4550.X/Mensajes50.c: 115:         Pos[10]=(Y % 100) % 10 + '0';
  2866  001036  C07F  F060         	movff	_imprimirSet$2314,___lwmod@dividend
  2867  00103A  C080  F061         	movff	_imprimirSet$2314+1,___lwmod@dividend+1
  2868  00103E  0E00               	movlw	0
  2869  001040  0100               	movlb	0	; () banked
  2870  001042  6F63               	movwf	(___lwmod@divisor+1)& (0+255),b
  2871  001044  0E0A               	movlw	10
  2872  001046  6F62               	movwf	___lwmod@divisor& (0+255),b
  2873  001048  ECBE  F014         	call	___lwmod	;wreg free
  2874  00104C  0100               	movlb	0	; () banked
  2875  00104E  5160               	movf	?___lwmod& (0+255),w,b
  2876  001050  0F30               	addlw	48
  2877  001052  6F76               	movwf	(imprimirSet@Pos+10)& (0+255),b
  2878  001054                     
  2879                           ; BSR set to: 0
  2880                           ;../Proyectoa4550.X/Mensajes50.c: 116:         for(uint8_t i=0; i<(sizeof(Pos)); i++) {
  2881  001054  0E00               	movlw	0
  2882  001056  6F82               	movwf	imprimirSet@i_220& (0+255),b
  2883  001058                     l4897:
  2884                           
  2885                           ; BSR set to: 0
  2886                           ;../Proyectoa4550.X/Mensajes50.c: 117:                 Send=Pos[i];
  2887  001058  0E6C               	movlw	low imprimirSet@Pos
  2888  00105A  2582               	addwf	imprimirSet@i_220& (0+255),w,b
  2889  00105C  6ED9               	movwf	fsr2l,c
  2890  00105E  6ADA               	clrf	fsr2h,c
  2891  001060  0E00               	movlw	high imprimirSet@Pos
  2892  001062  22DA               	addwfc	fsr2h,f,c
  2893  001064  50DF               	movf	indf2,w,c
  2894  001066  6F7A               	movwf	imprimirSet@Send& (0+255),b
  2895  001068                     
  2896                           ; BSR set to: 0
  2897                           ;../Proyectoa4550.X/Mensajes50.c: 118:                 UARTWrite(Send);
  2898  001068  517A               	movf	imprimirSet@Send& (0+255),w,b
  2899  00106A  EC57  F01A         	call	_UARTWrite
  2900  00106E                     
  2901                           ;../Proyectoa4550.X/Mensajes50.c: 119:         }
  2902  00106E  0100               	movlb	0	; () banked
  2903  001070  2B82               	incf	imprimirSet@i_220& (0+255),f,b
  2904  001072                     
  2905                           ; BSR set to: 0
  2906  001072  0E0D               	movlw	13
  2907  001074  6582               	cpfsgt	imprimirSet@i_220& (0+255),b
  2908  001076  EF3F  F008         	goto	u5271
  2909  00107A  EF41  F008         	goto	u5270
  2910  00107E                     u5271:
  2911  00107E  EF2C  F008         	goto	l4897
  2912  001082                     u5270:
  2913  001082                     
  2914                           ; BSR set to: 0
  2915                           ;../Proyectoa4550.X/Mensajes50.c: 120:         i=i+2;
  2916  001082  5187               	movf	imprimirSet@i& (0+255),w,b
  2917  001084  0F02               	addlw	2
  2918  001086  6F87               	movwf	imprimirSet@i& (0+255),b
  2919  001088                     l89:
  2920                           
  2921                           ; BSR set to: 0
  2922                           ;../Proyectoa4550.X/Mensajes50.c: 92:     while(i<160) {
  2923  001088  0E9F               	movlw	159
  2924  00108A  6587               	cpfsgt	imprimirSet@i& (0+255),b
  2925  00108C  EF4A  F008         	goto	u5281
  2926  001090  EF4C  F008         	goto	u5280
  2927  001094                     u5281:
  2928  001094  EF5A  F007         	goto	l4837
  2929  001098                     u5280:
  2930  001098                     
  2931                           ; BSR set to: 0
  2932  001098  0012               	return		;funcret
  2933  00109A                     __end_of_imprimirSet:
  2934                           	opt callstack 0
  2935                           
  2936 ;; *************** function _imprimirINS *****************
  2937 ;; Defined at:
  2938 ;;		line 175 in file "../Proyectoa4550.X/Mensajes50.c"
  2939 ;; Parameters:    Size  Location     Type
  2940 ;;		None
  2941 ;; Auto vars:     Size  Location     Type
  2942 ;;  R               1   12[BANK0 ] unsigned char 
  2943 ;;  i               1   14[BANK0 ] unsigned char 
  2944 ;;  DATA            1   13[BANK0 ] unsigned char 
  2945 ;;  suma            1   11[BANK0 ] unsigned char 
  2946 ;; Return value:  Size  Location     Type
  2947 ;;                  1    wreg      void 
  2948 ;; Registers used:
  2949 ;;		wreg, fsr1l, fsr1h, fsr2l, fsr2h, status,2, status,0, cstack
  2950 ;; Tracked objects:
  2951 ;;		On entry : 0/0
  2952 ;;		On exit  : 0/0
  2953 ;;		Unchanged: 0/0
  2954 ;; Data sizes:     COMRAM   BANK0   BANK1   BANK2   BANK3   BANK4   BANK5   BANK6   BANK7
  2955 ;;      Params:         0       0       0       0       0       0       0       0       0
  2956 ;;      Locals:         0       4       0       0       0       0       0       0       0
  2957 ;;      Temps:          0       0       0       0       0       0       0       0       0
  2958 ;;      Totals:         0       4       0       0       0       0       0       0       0
  2959 ;;Total ram usage:        4 bytes
  2960 ;; Hardware stack levels used:    1
  2961 ;; Hardware stack levels required when called:    7
  2962 ;; This function calls:
  2963 ;;		_EEPROM_R
  2964 ;;		_IMP_ACCION
  2965 ;;		_UARTWrite
  2966 ;; This function is called by:
  2967 ;;		_main
  2968 ;; This function uses a non-reentrant model
  2969 ;;
  2970                           
  2971                           	psect	text3
  2972  0025F4                     __ptext3:
  2973                           	opt callstack 0
  2974  0025F4                     _imprimirINS:
  2975                           	opt callstack 23
  2976  0025F4                     
  2977                           ;../Proyectoa4550.X/Mensajes50.c: 176:     uint8_t i=160;
  2978  0025F4  0EA0               	movlw	160
  2979  0025F6  0100               	movlb	0	; () banked
  2980  0025F8  6F6E               	movwf	imprimirINS@i& (0+255),b
  2981                           
  2982                           ;../Proyectoa4550.X/Mensajes50.c: 178:     uint8_t DATA=5;
  2983  0025FA  0E05               	movlw	5
  2984  0025FC  6F6D               	movwf	imprimirINS@DATA& (0+255),b
  2985                           
  2986                           ;../Proyectoa4550.X/Mensajes50.c: 180:     while(i<252&&DATA!=0) {
  2987  0025FE  EF42  F013         	goto	l4957
  2988  002602                     l4925:
  2989                           
  2990                           ; BSR set to: 0
  2991                           ;../Proyectoa4550.X/Mensajes50.c: 181:         DATA=EEPROM_R(i);
  2992  002602  516E               	movf	imprimirINS@i& (0+255),w,b
  2993  002604  EC79  F01A         	call	_EEPROM_R
  2994  002608  0100               	movlb	0	; () banked
  2995  00260A  6F6D               	movwf	imprimirINS@DATA& (0+255),b
  2996  00260C                     
  2997                           ; BSR set to: 0
  2998                           ;../Proyectoa4550.X/Mensajes50.c: 183:         if(DATA!=20&&DATA<252) {
  2999  00260C  0E14               	movlw	20
  3000  00260E  196D               	xorwf	imprimirINS@DATA& (0+255),w,b
  3001  002610  B4D8               	btfsc	status,2,c
  3002  002612  EF0D  F013         	goto	u5301
  3003  002616  EF0F  F013         	goto	u5300
  3004  00261A                     u5301:
  3005  00261A  EF36  F013         	goto	l4951
  3006  00261E                     u5300:
  3007  00261E                     
  3008                           ; BSR set to: 0
  3009  00261E  0EFC               	movlw	252
  3010  002620  616D               	cpfslt	imprimirINS@DATA& (0+255),b
  3011  002622  EF15  F013         	goto	u5311
  3012  002626  EF17  F013         	goto	u5310
  3013  00262A                     u5311:
  3014  00262A  EF36  F013         	goto	l4951
  3015  00262E                     u5310:
  3016  00262E                     
  3017                           ; BSR set to: 0
  3018                           ;../Proyectoa4550.X/Mensajes50.c: 184:            for(uint8_t R=0; R<=3; R++) {
  3019  00262E  0E00               	movlw	0
  3020  002630  6F6C               	movwf	imprimirINS@R& (0+255),b
  3021  002632                     l4937:
  3022                           
  3023                           ; BSR set to: 0
  3024                           ;../Proyectoa4550.X/Mensajes50.c: 185:                 suma=i+R;
  3025  002632  516E               	movf	imprimirINS@i& (0+255),w,b
  3026  002634  256C               	addwf	imprimirINS@R& (0+255),w,b
  3027  002636  6F6B               	movwf	imprimirINS@suma& (0+255),b
  3028  002638                     
  3029                           ; BSR set to: 0
  3030                           ;../Proyectoa4550.X/Mensajes50.c: 186:                 UARTWrite(EEPROM_R(suma));
  3031  002638  516B               	movf	imprimirINS@suma& (0+255),w,b
  3032  00263A  EC79  F01A         	call	_EEPROM_R
  3033  00263E  EC57  F01A         	call	_UARTWrite
  3034  002642                     
  3035                           ;../Proyectoa4550.X/Mensajes50.c: 187:            }
  3036  002642  0100               	movlb	0	; () banked
  3037  002644  2B6C               	incf	imprimirINS@R& (0+255),f,b
  3038  002646                     
  3039                           ; BSR set to: 0
  3040  002646  0E03               	movlw	3
  3041  002648  656C               	cpfsgt	imprimirINS@R& (0+255),b
  3042  00264A  EF29  F013         	goto	u5321
  3043  00264E  EF2B  F013         	goto	u5320
  3044  002652                     u5321:
  3045  002652  EF19  F013         	goto	l4937
  3046  002656                     u5320:
  3047  002656                     
  3048                           ; BSR set to: 0
  3049                           ;../Proyectoa4550.X/Mensajes50.c: 188:            i=i+4;
  3050  002656  516E               	movf	imprimirINS@i& (0+255),w,b
  3051  002658  0F04               	addlw	4
  3052  00265A  6F6E               	movwf	imprimirINS@i& (0+255),b
  3053  00265C                     
  3054                           ; BSR set to: 0
  3055                           ;../Proyectoa4550.X/Mensajes50.c: 189:            UARTWrite('\n');
  3056  00265C  0E0A               	movlw	10
  3057  00265E  EC57  F01A         	call	_UARTWrite
  3058  002662                     
  3059                           ;../Proyectoa4550.X/Mensajes50.c: 190:            UARTWrite('\r');
  3060  002662  0E0D               	movlw	13
  3061  002664  EC57  F01A         	call	_UARTWrite
  3062                           
  3063                           ;../Proyectoa4550.X/Mensajes50.c: 191:         } else if(DATA) {
  3064  002668  EF42  F013         	goto	l4957
  3065  00266C                     l4951:
  3066                           
  3067                           ; BSR set to: 0
  3068  00266C  516D               	movf	imprimirINS@DATA& (0+255),w,b
  3069  00266E  B4D8               	btfsc	status,2,c
  3070  002670  EF3C  F013         	goto	u5331
  3071  002674  EF3E  F013         	goto	u5330
  3072  002678                     u5331:
  3073  002678  EF42  F013         	goto	l4957
  3074  00267C                     u5330:
  3075  00267C                     
  3076                           ; BSR set to: 0
  3077                           ;../Proyectoa4550.X/Mensajes50.c: 192:             IMP_ACCION();
  3078  00267C  EC42  F016         	call	_IMP_ACCION	;wreg free
  3079  002680                     
  3080                           ;../Proyectoa4550.X/Mensajes50.c: 193:             i++;
  3081  002680  0100               	movlb	0	; () banked
  3082  002682  2B6E               	incf	imprimirINS@i& (0+255),f,b
  3083  002684                     l4957:
  3084                           
  3085                           ;../Proyectoa4550.X/Mensajes50.c: 180:     while(i<252&&DATA!=0) {
  3086  002684  0EFC               	movlw	252
  3087  002686  0100               	movlb	0	; () banked
  3088  002688  616E               	cpfslt	imprimirINS@i& (0+255),b
  3089  00268A  EF49  F013         	goto	u5341
  3090  00268E  EF4B  F013         	goto	u5340
  3091  002692                     u5341:
  3092  002692  EF53  F013         	goto	l158
  3093  002696                     u5340:
  3094  002696                     
  3095                           ; BSR set to: 0
  3096  002696  516D               	movf	imprimirINS@DATA& (0+255),w,b
  3097  002698  A4D8               	btfss	status,2,c
  3098  00269A  EF51  F013         	goto	u5351
  3099  00269E  EF53  F013         	goto	u5350
  3100  0026A2                     u5351:
  3101  0026A2  EF01  F013         	goto	l4925
  3102  0026A6                     u5350:
  3103  0026A6                     l158:
  3104                           
  3105                           ; BSR set to: 0
  3106  0026A6  0012               	return		;funcret
  3107  0026A8                     __end_of_imprimirINS:
  3108                           	opt callstack 0
  3109                           
  3110 ;; *************** function _IMP_ACCION *****************
  3111 ;; Defined at:
  3112 ;;		line 168 in file "../Proyectoa4550.X/Mensajes50.c"
  3113 ;; Parameters:    Size  Location     Type
  3114 ;;		None
  3115 ;; Auto vars:     Size  Location     Type
  3116 ;;  C               1   10[BANK0 ] unsigned char 
  3117 ;;  F               9    1[BANK0 ] unsigned char [9]
  3118 ;; Return value:  Size  Location     Type
  3119 ;;                  1    wreg      void 
  3120 ;; Registers used:
  3121 ;;		wreg, fsr1l, fsr1h, fsr2l, fsr2h, status,2, status,0, cstack
  3122 ;; Tracked objects:
  3123 ;;		On entry : 0/0
  3124 ;;		On exit  : 0/0
  3125 ;;		Unchanged: 0/0
  3126 ;; Data sizes:     COMRAM   BANK0   BANK1   BANK2   BANK3   BANK4   BANK5   BANK6   BANK7
  3127 ;;      Params:         0       0       0       0       0       0       0       0       0
  3128 ;;      Locals:         0      10       0       0       0       0       0       0       0
  3129 ;;      Temps:          0       0       0       0       0       0       0       0       0
  3130 ;;      Totals:         0      10       0       0       0       0       0       0       0
  3131 ;;Total ram usage:       10 bytes
  3132 ;; Hardware stack levels used:    1
  3133 ;; Hardware stack levels required when called:    6
  3134 ;; This function calls:
  3135 ;;		_UARTWrite
  3136 ;; This function is called by:
  3137 ;;		_imprimirINS
  3138 ;; This function uses a non-reentrant model
  3139 ;;
  3140                           
  3141                           	psect	text4
  3142  002C84                     __ptext4:
  3143                           	opt callstack 0
  3144  002C84                     _IMP_ACCION:
  3145                           	opt callstack 23
  3146  002C84                     
  3147                           ;../Proyectoa4550.X/Mensajes50.c: 169:     uint8_t F[]="Accion\n\r";
  3148  002C84  EE20  F0CC         	lfsr	2,IMP_ACCION@F3652
  3149  002C88  EE10  F061         	lfsr	1,IMP_ACCION@F
  3150  002C8C  0E08               	movlw	8
  3151  002C8E                     u4761:
  3152  002C8E  CFDB FFE3          	movff	plusw2,plusw1
  3153  002C92  06E8               	decf	wreg,f,c
  3154  002C94  E2FC               	bc	u4761
  3155  002C96                     
  3156                           ;../Proyectoa4550.X/Mensajes50.c: 170:     for(uint8_t C=0; C<(sizeof(F)); C++) {
  3157  002C96  0E00               	movlw	0
  3158  002C98  0100               	movlb	0	; () banked
  3159  002C9A  6F6A               	movwf	IMP_ACCION@C& (0+255),b
  3160  002C9C                     l4515:
  3161                           
  3162                           ; BSR set to: 0
  3163                           ;../Proyectoa4550.X/Mensajes50.c: 171:             UARTWrite(F[C]);
  3164  002C9C  0E61               	movlw	low IMP_ACCION@F
  3165  002C9E  256A               	addwf	IMP_ACCION@C& (0+255),w,b
  3166  002CA0  6ED9               	movwf	fsr2l,c
  3167  002CA2  6ADA               	clrf	fsr2h,c
  3168  002CA4  0E00               	movlw	high IMP_ACCION@F
  3169  002CA6  22DA               	addwfc	fsr2h,f,c
  3170  002CA8  50DF               	movf	indf2,w,c
  3171  002CAA  EC57  F01A         	call	_UARTWrite
  3172  002CAE                     
  3173                           ;../Proyectoa4550.X/Mensajes50.c: 172:     }
  3174  002CAE  0100               	movlb	0	; () banked
  3175  002CB0  2B6A               	incf	IMP_ACCION@C& (0+255),f,b
  3176  002CB2                     
  3177                           ; BSR set to: 0
  3178  002CB2  0E08               	movlw	8
  3179  002CB4  656A               	cpfsgt	IMP_ACCION@C& (0+255),b
  3180  002CB6  EF5F  F016         	goto	u4771
  3181  002CBA  EF61  F016         	goto	u4770
  3182  002CBE                     u4771:
  3183  002CBE  EF4E  F016         	goto	l4515
  3184  002CC2                     u4770:
  3185  002CC2                     
  3186                           ; BSR set to: 0
  3187  002CC2  0012               	return		;funcret
  3188  002CC4                     __end_of_IMP_ACCION:
  3189                           	opt callstack 0
  3190                           
  3191 ;; *************** function _UARTconfi *****************
  3192 ;; Defined at:
  3193 ;;		line 15 in file "../Proyectoa4550.X/UART50.c"
  3194 ;; Parameters:    Size  Location     Type
  3195 ;;		None
  3196 ;; Auto vars:     Size  Location     Type
  3197 ;;		None
  3198 ;; Return value:  Size  Location     Type
  3199 ;;                  1    wreg      void 
  3200 ;; Registers used:
  3201 ;;		wreg, status,2
  3202 ;; Tracked objects:
  3203 ;;		On entry : 0/0
  3204 ;;		On exit  : 0/0
  3205 ;;		Unchanged: 0/0
  3206 ;; Data sizes:     COMRAM   BANK0   BANK1   BANK2   BANK3   BANK4   BANK5   BANK6   BANK7
  3207 ;;      Params:         0       0       0       0       0       0       0       0       0
  3208 ;;      Locals:         0       0       0       0       0       0       0       0       0
  3209 ;;      Temps:          0       0       0       0       0       0       0       0       0
  3210 ;;      Totals:         0       0       0       0       0       0       0       0       0
  3211 ;;Total ram usage:        0 bytes
  3212 ;; Hardware stack levels used:    1
  3213 ;; Hardware stack levels required when called:    5
  3214 ;; This function calls:
  3215 ;;		Nothing
  3216 ;; This function is called by:
  3217 ;;		_main
  3218 ;; This function uses a non-reentrant model
  3219 ;;
  3220                           
  3221                           	psect	text5
  3222  003420                     __ptext5:
  3223                           	opt callstack 0
  3224  003420                     _UARTconfi:
  3225                           	opt callstack 25
  3226  003420                     
  3227                           ;../Proyectoa4550.X/UART50.c: 16:     ADCON1 = 0x0F;
  3228  003420  0E0F               	movlw	15
  3229  003422  6EC1               	movwf	193,c	;volatile
  3230  003424                     
  3231                           ;../Proyectoa4550.X/UART50.c: 18:     TRISCbits.RC6 = 1;
  3232  003424  8C94               	bsf	148,6,c	;volatile
  3233  003426                     
  3234                           ;../Proyectoa4550.X/UART50.c: 19:     TRISCbits.RC7 = 1;
  3235  003426  8E94               	bsf	148,7,c	;volatile
  3236  003428                     
  3237                           ;../Proyectoa4550.X/UART50.c: 21:     TXSTAbits.TX9 = 0;
  3238  003428  9CAC               	bcf	172,6,c	;volatile
  3239  00342A                     
  3240                           ;../Proyectoa4550.X/UART50.c: 22:     TXSTAbits.TXEN = 1;
  3241  00342A  8AAC               	bsf	172,5,c	;volatile
  3242  00342C                     
  3243                           ;../Proyectoa4550.X/UART50.c: 23:     TXSTAbits.SYNC = 0;
  3244  00342C  98AC               	bcf	172,4,c	;volatile
  3245  00342E                     
  3246                           ;../Proyectoa4550.X/UART50.c: 24:     TXSTAbits.BRGH = 1;
  3247  00342E  84AC               	bsf	172,2,c	;volatile
  3248  003430                     
  3249                           ;../Proyectoa4550.X/UART50.c: 25:     BAUDCONbits.BRG16 = 1;
  3250  003430  86B8               	bsf	184,3,c	;volatile
  3251  003432                     
  3252                           ;../Proyectoa4550.X/UART50.c: 26:     RCSTAbits.RX9 = 0;
  3253  003432  9CAB               	bcf	171,6,c	;volatile
  3254  003434                     
  3255                           ;../Proyectoa4550.X/UART50.c: 27:     RCSTAbits.SPEN = 1;
  3256  003434  8EAB               	bsf	171,7,c	;volatile
  3257  003436                     
  3258                           ;../Proyectoa4550.X/UART50.c: 28:     RCSTAbits.CREN = 1;
  3259  003436  88AB               	bsf	171,4,c	;volatile
  3260  003438  0E67               	movlw	103
  3261  00343A  6EAF               	movwf	175,c	;volatile
  3262  00343C  0012               	return		;funcret
  3263  00343E                     __end_of_UARTconfi:
  3264                           	opt callstack 0
  3265                           
  3266 ;; *************** function _Tardanza *****************
  3267 ;; Defined at:
  3268 ;;		line 260 in file "../Proyectoa4550.X/Mensajes50.c"
  3269 ;; Parameters:    Size  Location     Type
  3270 ;;		None
  3271 ;; Auto vars:     Size  Location     Type
  3272 ;;  C               1    4[BANK0 ] unsigned char 
  3273 ;;  F               3    1[BANK0 ] unsigned char [3]
  3274 ;; Return value:  Size  Location     Type
  3275 ;;                  1    wreg      void 
  3276 ;; Registers used:
  3277 ;;		wreg, fsr2l, fsr2h, status,2, status,0, cstack
  3278 ;; Tracked objects:
  3279 ;;		On entry : 0/0
  3280 ;;		On exit  : 0/0
  3281 ;;		Unchanged: 0/0
  3282 ;; Data sizes:     COMRAM   BANK0   BANK1   BANK2   BANK3   BANK4   BANK5   BANK6   BANK7
  3283 ;;      Params:         0       0       0       0       0       0       0       0       0
  3284 ;;      Locals:         0       4       0       0       0       0       0       0       0
  3285 ;;      Temps:          0       0       0       0       0       0       0       0       0
  3286 ;;      Totals:         0       4       0       0       0       0       0       0       0
  3287 ;;Total ram usage:        4 bytes
  3288 ;; Hardware stack levels used:    1
  3289 ;; Hardware stack levels required when called:    6
  3290 ;; This function calls:
  3291 ;;		_UARTWrite
  3292 ;; This function is called by:
  3293 ;;		_main
  3294 ;; This function uses a non-reentrant model
  3295 ;;
  3296                           
  3297                           	psect	text6
  3298  002FEE                     __ptext6:
  3299                           	opt callstack 0
  3300  002FEE                     _Tardanza:
  3301                           	opt callstack 24
  3302  002FEE                     
  3303                           ;../Proyectoa4550.X/Mensajes50.c: 261:     uint8_t F[]="E2";
  3304  002FEE  C0D5  F061         	movff	Tardanza@F3696,Tardanza@F
  3305  002FF2  C0D6  F062         	movff	Tardanza@F3696+1,Tardanza@F+1
  3306  002FF6  C0D7  F063         	movff	Tardanza@F3696+2,Tardanza@F+2
  3307  002FFA                     
  3308                           ;../Proyectoa4550.X/Mensajes50.c: 262:     for(uint8_t C=0; C<(sizeof(F)); C++) {
  3309  002FFA  0E00               	movlw	0
  3310  002FFC  0100               	movlb	0	; () banked
  3311  002FFE  6F64               	movwf	Tardanza@C& (0+255),b
  3312  003000                     l5029:
  3313                           
  3314                           ; BSR set to: 0
  3315                           ;../Proyectoa4550.X/Mensajes50.c: 263:             UARTWrite(F[C]);
  3316  003000  0E61               	movlw	low Tardanza@F
  3317  003002  2564               	addwf	Tardanza@C& (0+255),w,b
  3318  003004  6ED9               	movwf	fsr2l,c
  3319  003006  6ADA               	clrf	fsr2h,c
  3320  003008  0E00               	movlw	high Tardanza@F
  3321  00300A  22DA               	addwfc	fsr2h,f,c
  3322  00300C  50DF               	movf	indf2,w,c
  3323  00300E  EC57  F01A         	call	_UARTWrite
  3324  003012                     
  3325                           ;../Proyectoa4550.X/Mensajes50.c: 264:     }
  3326  003012  0100               	movlb	0	; () banked
  3327  003014  2B64               	incf	Tardanza@C& (0+255),f,b
  3328  003016                     
  3329                           ; BSR set to: 0
  3330  003016  0E02               	movlw	2
  3331  003018  6564               	cpfsgt	Tardanza@C& (0+255),b
  3332  00301A  EF11  F018         	goto	u5401
  3333  00301E  EF13  F018         	goto	u5400
  3334  003022                     u5401:
  3335  003022  EF00  F018         	goto	l5029
  3336  003026                     u5400:
  3337  003026                     
  3338                           ; BSR set to: 0
  3339  003026  0012               	return		;funcret
  3340  003028                     __end_of_Tardanza:
  3341                           	opt callstack 0
  3342                           
  3343 ;; *************** function _PWMconfi *****************
  3344 ;; Defined at:
  3345 ;;		line 14 in file "../Proyectoa4550.X/PWM.c"
  3346 ;; Parameters:    Size  Location     Type
  3347 ;;		None
  3348 ;; Auto vars:     Size  Location     Type
  3349 ;;		None
  3350 ;; Return value:  Size  Location     Type
  3351 ;;                  1    wreg      void 
  3352 ;; Registers used:
  3353 ;;		wreg, status,2
  3354 ;; Tracked objects:
  3355 ;;		On entry : 0/0
  3356 ;;		On exit  : 0/0
  3357 ;;		Unchanged: 0/0
  3358 ;; Data sizes:     COMRAM   BANK0   BANK1   BANK2   BANK3   BANK4   BANK5   BANK6   BANK7
  3359 ;;      Params:         0       0       0       0       0       0       0       0       0
  3360 ;;      Locals:         0       0       0       0       0       0       0       0       0
  3361 ;;      Temps:          0       0       0       0       0       0       0       0       0
  3362 ;;      Totals:         0       0       0       0       0       0       0       0       0
  3363 ;;Total ram usage:        0 bytes
  3364 ;; Hardware stack levels used:    1
  3365 ;; Hardware stack levels required when called:    5
  3366 ;; This function calls:
  3367 ;;		Nothing
  3368 ;; This function is called by:
  3369 ;;		_main
  3370 ;; This function uses a non-reentrant model
  3371 ;;
  3372                           
  3373                           	psect	text7
  3374  00337C                     __ptext7:
  3375                           	opt callstack 0
  3376  00337C                     _PWMconfi:
  3377                           	opt callstack 25
  3378  00337C                     
  3379                           ;../Proyectoa4550.X/PWM.c: 23:     PR2 = 124;
  3380  00337C  0E7C               	movlw	124
  3381  00337E  6ECB               	movwf	203,c	;volatile
  3382                           
  3383                           ;../Proyectoa4550.X/PWM.c: 24:     CCPR1L = 0x00;
  3384  003380  0E00               	movlw	0
  3385  003382  6EBE               	movwf	190,c	;volatile
  3386                           
  3387                           ;../Proyectoa4550.X/PWM.c: 25:     CCPR2L = 0x00;
  3388  003384  0E00               	movlw	0
  3389  003386  6EBB               	movwf	187,c	;volatile
  3390  003388                     
  3391                           ;../Proyectoa4550.X/PWM.c: 26:     TRISCbits.RC2 = 0;
  3392  003388  9494               	bcf	148,2,c	;volatile
  3393  00338A                     
  3394                           ;../Proyectoa4550.X/PWM.c: 27:     TRISCbits.RC1 = 0;
  3395  00338A  9294               	bcf	148,1,c	;volatile
  3396                           
  3397                           ;../Proyectoa4550.X/PWM.c: 28:     T2CON = 0x03;
  3398  00338C  0E03               	movlw	3
  3399  00338E  6ECA               	movwf	202,c	;volatile
  3400                           
  3401                           ;../Proyectoa4550.X/PWM.c: 29:     CCP1CON = 0x0C;
  3402  003390  0E0C               	movlw	12
  3403  003392  6EBD               	movwf	189,c	;volatile
  3404                           
  3405                           ;../Proyectoa4550.X/PWM.c: 30:     CCP2CON = 0x0C;
  3406  003394  0E0C               	movlw	12
  3407  003396  6EBA               	movwf	186,c	;volatile
  3408                           
  3409                           ;../Proyectoa4550.X/PWM.c: 31:     TMR2=0;
  3410  003398  0E00               	movlw	0
  3411  00339A  6ECC               	movwf	204,c	;volatile
  3412  00339C                     
  3413                           ;../Proyectoa4550.X/PWM.c: 32:     T2CONbits.TMR2ON=1;
  3414  00339C  84CA               	bsf	202,2,c	;volatile
  3415  00339E  0012               	return		;funcret
  3416  0033A0                     __end_of_PWMconfi:
  3417                           	opt callstack 0
  3418                           
  3419 ;; *************** function _PREEJECUTAR *****************
  3420 ;; Defined at:
  3421 ;;		line 270 in file "SETPOINTS.c"
  3422 ;; Parameters:    Size  Location     Type
  3423 ;;  XR              2   76[BANK0 ] unsigned short 
  3424 ;;  YR              2   78[BANK0 ] unsigned short 
  3425 ;; Auto vars:     Size  Location     Type
  3426 ;;  elecc           1   81[BANK0 ] unsigned char 
  3427 ;;  i               1   80[BANK0 ] unsigned char 
  3428 ;; Return value:  Size  Location     Type
  3429 ;;                  1    wreg      unsigned char 
  3430 ;; Registers used:
  3431 ;;		wreg, fsr1l, fsr1h, fsr2l, fsr2h, status,2, status,0, prodl, prodh, cstack
  3432 ;; Tracked objects:
  3433 ;;		On entry : 0/0
  3434 ;;		On exit  : 0/0
  3435 ;;		Unchanged: 0/0
  3436 ;; Data sizes:     COMRAM   BANK0   BANK1   BANK2   BANK3   BANK4   BANK5   BANK6   BANK7
  3437 ;;      Params:         0       4       0       0       0       0       0       0       0
  3438 ;;      Locals:         0       2       0       0       0       0       0       0       0
  3439 ;;      Temps:          0       0       0       0       0       0       0       0       0
  3440 ;;      Totals:         0       6       0       0       0       0       0       0       0
  3441 ;;Total ram usage:        6 bytes
  3442 ;; Hardware stack levels used:    1
  3443 ;; Hardware stack levels required when called:   10
  3444 ;; This function calls:
  3445 ;;		_EJECUTARINS
  3446 ;;		_PREGUNTA2
  3447 ;;		_UARTRead
  3448 ;; This function is called by:
  3449 ;;		_main
  3450 ;; This function uses a non-reentrant model
  3451 ;;
  3452                           
  3453                           	psect	text8
  3454  00290E                     __ptext8:
  3455                           	opt callstack 0
  3456  00290E                     _PREEJECUTAR:
  3457                           	opt callstack 20
  3458  00290E                     
  3459                           ;SETPOINTS.c: 271:     uint8_t elecc=0;
  3460  00290E  0E00               	movlw	0
  3461  002910  0100               	movlb	0	; () banked
  3462  002912  6FB1               	movwf	PREEJECUTAR@elecc& (0+255),b
  3463                           
  3464                           ;SETPOINTS.c: 272:     uint8_t i=0;
  3465  002914  0E00               	movlw	0
  3466  002916  6FB0               	movwf	PREEJECUTAR@i& (0+255),b
  3467  002918                     
  3468                           ; BSR set to: 0
  3469                           ;SETPOINTS.c: 273:     PREGUNTA2();
  3470  002918  EC62  F016         	call	_PREGUNTA2	;wreg free
  3471                           
  3472                           ;SETPOINTS.c: 274:     while(elecc!='1'&&elecc!='2') {
  3473  00291C  EF94  F014         	goto	l5267
  3474  002920                     l5265:
  3475                           
  3476                           ; BSR set to: 0
  3477                           ;SETPOINTS.c: 275:         elecc=UARTRead();
  3478  002920  ECF1  F014         	call	_UARTRead	;wreg free
  3479  002924  0100               	movlb	0	; () banked
  3480  002926  6FB1               	movwf	PREEJECUTAR@elecc& (0+255),b
  3481  002928                     l5267:
  3482                           
  3483                           ;SETPOINTS.c: 274:     while(elecc!='1'&&elecc!='2') {
  3484  002928  0E31               	movlw	49
  3485  00292A  0100               	movlb	0	; () banked
  3486  00292C  19B1               	xorwf	PREEJECUTAR@elecc& (0+255),w,b
  3487  00292E  B4D8               	btfsc	status,2,c
  3488  002930  EF9C  F014         	goto	u5571
  3489  002934  EF9E  F014         	goto	u5570
  3490  002938                     u5571:
  3491  002938  EFA7  F014         	goto	l5271
  3492  00293C                     u5570:
  3493  00293C                     
  3494                           ; BSR set to: 0
  3495  00293C  0E32               	movlw	50
  3496  00293E  19B1               	xorwf	PREEJECUTAR@elecc& (0+255),w,b
  3497  002940  A4D8               	btfss	status,2,c
  3498  002942  EFA5  F014         	goto	u5581
  3499  002946  EFA7  F014         	goto	u5580
  3500  00294A                     u5581:
  3501  00294A  EF90  F014         	goto	l5265
  3502  00294E                     u5580:
  3503  00294E                     l5271:
  3504                           
  3505                           ; BSR set to: 0
  3506                           ;SETPOINTS.c: 277:     if(elecc=='1') {
  3507  00294E  0E31               	movlw	49
  3508  002950  19B1               	xorwf	PREEJECUTAR@elecc& (0+255),w,b
  3509  002952  A4D8               	btfss	status,2,c
  3510  002954  EFAE  F014         	goto	u5591
  3511  002958  EFB0  F014         	goto	u5590
  3512  00295C                     u5591:
  3513  00295C  EFBC  F014         	goto	l5275
  3514  002960                     u5590:
  3515  002960                     
  3516                           ; BSR set to: 0
  3517                           ;SETPOINTS.c: 278:         i=EJECUTARINS(XR, YR);
  3518  002960  C0AC  F09C         	movff	PREEJECUTAR@XR,EJECUTARINS@XR
  3519  002964  C0AD  F09D         	movff	PREEJECUTAR@XR+1,EJECUTARINS@XR+1
  3520  002968  C0AE  F09E         	movff	PREEJECUTAR@YR,EJECUTARINS@YR
  3521  00296C  C0AF  F09F         	movff	PREEJECUTAR@YR+1,EJECUTARINS@YR+1
  3522  002970  ECA1  F00B         	call	_EJECUTARINS	;wreg free
  3523  002974  0100               	movlb	0	; () banked
  3524  002976  6FB0               	movwf	PREEJECUTAR@i& (0+255),b
  3525  002978                     l5275:
  3526                           
  3527                           ; BSR set to: 0
  3528                           ;SETPOINTS.c: 280:     return i;
  3529  002978  51B0               	movf	PREEJECUTAR@i& (0+255),w,b
  3530  00297A                     
  3531                           ; BSR set to: 0
  3532  00297A  0012               	return		;funcret
  3533  00297C                     __end_of_PREEJECUTAR:
  3534                           	opt callstack 0
  3535                           
  3536 ;; *************** function _PREGUNTA2 *****************
  3537 ;; Defined at:
  3538 ;;		line 199 in file "../Proyectoa4550.X/Mensajes50.c"
  3539 ;; Parameters:    Size  Location     Type
  3540 ;;		None
  3541 ;; Auto vars:     Size  Location     Type
  3542 ;;  C               1   59[BANK0 ] unsigned char 
  3543 ;;  F              58    1[BANK0 ] unsigned char [58]
  3544 ;; Return value:  Size  Location     Type
  3545 ;;                  1    wreg      void 
  3546 ;; Registers used:
  3547 ;;		wreg, fsr1l, fsr1h, fsr2l, fsr2h, status,2, status,0, cstack
  3548 ;; Tracked objects:
  3549 ;;		On entry : 0/0
  3550 ;;		On exit  : 0/0
  3551 ;;		Unchanged: 0/0
  3552 ;; Data sizes:     COMRAM   BANK0   BANK1   BANK2   BANK3   BANK4   BANK5   BANK6   BANK7
  3553 ;;      Params:         0       0       0       0       0       0       0       0       0
  3554 ;;      Locals:         0      59       0       0       0       0       0       0       0
  3555 ;;      Temps:          0       0       0       0       0       0       0       0       0
  3556 ;;      Totals:         0      59       0       0       0       0       0       0       0
  3557 ;;Total ram usage:       59 bytes
  3558 ;; Hardware stack levels used:    1
  3559 ;; Hardware stack levels required when called:    6
  3560 ;; This function calls:
  3561 ;;		_UARTWrite
  3562 ;; This function is called by:
  3563 ;;		_PREEJECUTAR
  3564 ;; This function uses a non-reentrant model
  3565 ;;
  3566                           
  3567                           	psect	text9
  3568  002CC4                     __ptext9:
  3569                           	opt callstack 0
  3570  002CC4                     _PREGUNTA2:
  3571                           	opt callstack 23
  3572  002CC4                     
  3573                           ;../Proyectoa4550.X/Mensajes50.c: 200:     uint8_t F[]="Esta es la instruccion a ejecuta
      +                          r Estas seguro? 1Si 2No\n\r";
  3574  002CC4  EE22  F000         	lfsr	2,PREGUNTA2@F3661
  3575  002CC8  EE10  F061         	lfsr	1,PREGUNTA2@F
  3576  002CCC  0E39               	movlw	57
  3577  002CCE                     u4781:
  3578  002CCE  CFDB FFE3          	movff	plusw2,plusw1
  3579  002CD2  06E8               	decf	wreg,f,c
  3580  002CD4  E2FC               	bc	u4781
  3581  002CD6                     
  3582                           ;../Proyectoa4550.X/Mensajes50.c: 201:     for(uint8_t C=0; C<(sizeof(F)); C++) {
  3583  002CD6  0E00               	movlw	0
  3584  002CD8  0100               	movlb	0	; () banked
  3585  002CDA  6F9B               	movwf	PREGUNTA2@C& (0+255),b
  3586  002CDC                     l4529:
  3587                           
  3588                           ; BSR set to: 0
  3589                           ;../Proyectoa4550.X/Mensajes50.c: 202:             UARTWrite(F[C]);
  3590  002CDC  0E61               	movlw	low PREGUNTA2@F
  3591  002CDE  259B               	addwf	PREGUNTA2@C& (0+255),w,b
  3592  002CE0  6ED9               	movwf	fsr2l,c
  3593  002CE2  6ADA               	clrf	fsr2h,c
  3594  002CE4  0E00               	movlw	high PREGUNTA2@F
  3595  002CE6  22DA               	addwfc	fsr2h,f,c
  3596  002CE8  50DF               	movf	indf2,w,c
  3597  002CEA  EC57  F01A         	call	_UARTWrite
  3598  002CEE                     
  3599                           ;../Proyectoa4550.X/Mensajes50.c: 203:     }
  3600  002CEE  0100               	movlb	0	; () banked
  3601  002CF0  2B9B               	incf	PREGUNTA2@C& (0+255),f,b
  3602  002CF2                     
  3603                           ; BSR set to: 0
  3604  002CF2  0E39               	movlw	57
  3605  002CF4  659B               	cpfsgt	PREGUNTA2@C& (0+255),b
  3606  002CF6  EF7F  F016         	goto	u4791
  3607  002CFA  EF81  F016         	goto	u4790
  3608  002CFE                     u4791:
  3609  002CFE  EF6E  F016         	goto	l4529
  3610  002D02                     u4790:
  3611  002D02                     
  3612                           ; BSR set to: 0
  3613  002D02  0012               	return		;funcret
  3614  002D04                     __end_of_PREGUNTA2:
  3615                           	opt callstack 0
  3616                           
  3617 ;; *************** function _EJECUTARINS *****************
  3618 ;; Defined at:
  3619 ;;		line 218 in file "SETPOINTS.c"
  3620 ;; Parameters:    Size  Location     Type
  3621 ;;  XR              2   60[BANK0 ] unsigned short 
  3622 ;;  YR              2   62[BANK0 ] unsigned short 
  3623 ;; Auto vars:     Size  Location     Type
  3624 ;;  E               1   72[BANK0 ] unsigned char 
  3625 ;;  INSTRNAME       4   64[BANK0 ] unsigned char [4]
  3626 ;;  YN              2   70[BANK0 ] unsigned short 
  3627 ;;  XN              2   68[BANK0 ] unsigned short 
  3628 ;;  dir             1   75[BANK0 ] unsigned char 
  3629 ;;  dato            1   74[BANK0 ] unsigned char 
  3630 ;;  i               1   73[BANK0 ] unsigned char 
  3631 ;; Return value:  Size  Location     Type
  3632 ;;                  1    wreg      unsigned char 
  3633 ;; Registers used:
  3634 ;;		wreg, fsr1l, fsr1h, fsr2l, fsr2h, status,2, status,0, prodl, prodh, cstack
  3635 ;; Tracked objects:
  3636 ;;		On entry : 0/0
  3637 ;;		On exit  : 0/0
  3638 ;;		Unchanged: 0/0
  3639 ;; Data sizes:     COMRAM   BANK0   BANK1   BANK2   BANK3   BANK4   BANK5   BANK6   BANK7
  3640 ;;      Params:         0       4       0       0       0       0       0       0       0
  3641 ;;      Locals:         0      12       0       0       0       0       0       0       0
  3642 ;;      Temps:          0       0       0       0       0       0       0       0       0
  3643 ;;      Totals:         0      16       0       0       0       0       0       0       0
  3644 ;;Total ram usage:       16 bytes
  3645 ;; Hardware stack levels used:    1
  3646 ;; Hardware stack levels required when called:    9
  3647 ;; This function calls:
  3648 ;;		_Accion
  3649 ;;		_EEPROM_R
  3650 ;;		_ExtraerDato
  3651 ;;		_SETNOEX
  3652 ;;		_SETPOINTBUSCAR
  3653 ;;		_motoresmov
  3654 ;; This function is called by:
  3655 ;;		_PREEJECUTAR
  3656 ;; This function uses a non-reentrant model
  3657 ;;
  3658                           
  3659                           	psect	text10
  3660  001742                     __ptext10:
  3661                           	opt callstack 0
  3662  001742                     _EJECUTARINS:
  3663                           	opt callstack 20
  3664  001742                     
  3665                           ;SETPOINTS.c: 219:     if(PORTDbits.RD4==1) {
  3666  001742  A883               	btfss	131,4,c	;volatile
  3667  001744  EFA6  F00B         	goto	u4941
  3668  001748  EFA8  F00B         	goto	u4940
  3669  00174C                     u4941:
  3670  00174C  EFAA  F00B         	goto	l4649
  3671  001750                     u4940:
  3672  001750                     
  3673                           ;SETPOINTS.c: 220:         Accion();
  3674  001750  EC4F  F015         	call	_Accion	;wreg free
  3675  001754                     l4649:
  3676                           
  3677                           ;SETPOINTS.c: 222:     uint8_t dir=0xA0;
  3678  001754  0EA0               	movlw	160
  3679  001756  0100               	movlb	0	; () banked
  3680  001758  6FAB               	movwf	EJECUTARINS@dir& (0+255),b
  3681  00175A                     
  3682                           ; BSR set to: 0
  3683                           ;SETPOINTS.c: 223:     uint8_t dato=3;
  3684  00175A  0E03               	movlw	3
  3685  00175C  6FAA               	movwf	EJECUTARINS@dato& (0+255),b
  3686  00175E                     
  3687                           ; BSR set to: 0
  3688                           ;SETPOINTS.c: 224:     uint8_t INSTRNAME[4];;SETPOINTS.c: 225:     uint8_t i=0;
  3689  00175E  0E00               	movlw	0
  3690  001760  6FA9               	movwf	EJECUTARINS@i& (0+255),b
  3691                           
  3692                           ;SETPOINTS.c: 226:     uint16_t XN;;SETPOINTS.c: 227:     uint16_t YN;;SETPOINTS.c: 228:
      +                               while(dato!=0&&dir<252) {
  3693  001762  EF2E  F00C         	goto	l4697
  3694  001766                     l4655:
  3695                           
  3696                           ; BSR set to: 0
  3697                           ;SETPOINTS.c: 229:         dato=EEPROM_R(dir);
  3698  001766  51AB               	movf	EJECUTARINS@dir& (0+255),w,b
  3699  001768  EC79  F01A         	call	_EEPROM_R
  3700  00176C  0100               	movlb	0	; () banked
  3701  00176E  6FAA               	movwf	EJECUTARINS@dato& (0+255),b
  3702  001770                     
  3703                           ; BSR set to: 0
  3704                           ;SETPOINTS.c: 230:         if(dato>20&&dato<252) {
  3705  001770  0E14               	movlw	20
  3706  001772  65AA               	cpfsgt	EJECUTARINS@dato& (0+255),b
  3707  001774  EFBE  F00B         	goto	u4951
  3708  001778  EFC0  F00B         	goto	u4950
  3709  00177C                     u4951:
  3710  00177C  EF21  F00C         	goto	l4691
  3711  001780                     u4950:
  3712  001780                     
  3713                           ; BSR set to: 0
  3714  001780  0EFC               	movlw	252
  3715  001782  61AA               	cpfslt	EJECUTARINS@dato& (0+255),b
  3716  001784  EFC6  F00B         	goto	u4961
  3717  001788  EFC8  F00B         	goto	u4960
  3718  00178C                     u4961:
  3719  00178C  EF21  F00C         	goto	l4691
  3720  001790                     u4960:
  3721  001790                     
  3722                           ; BSR set to: 0
  3723                           ;SETPOINTS.c: 231:             for(uint8_t E=0; E<4; E++) {
  3724  001790  0E00               	movlw	0
  3725  001792  6FA8               	movwf	EJECUTARINS@E& (0+255),b
  3726  001794                     l4667:
  3727                           
  3728                           ; BSR set to: 0
  3729                           ;SETPOINTS.c: 232:                 INSTRNAME[E]=EEPROM_R(E+dir);
  3730  001794  0EA0               	movlw	low EJECUTARINS@INSTRNAME
  3731  001796  25A8               	addwf	EJECUTARINS@E& (0+255),w,b
  3732  001798  6ED9               	movwf	fsr2l,c
  3733  00179A  6ADA               	clrf	fsr2h,c
  3734  00179C  0E00               	movlw	high EJECUTARINS@INSTRNAME
  3735  00179E  22DA               	addwfc	fsr2h,f,c
  3736  0017A0  51A8               	movf	EJECUTARINS@E& (0+255),w,b
  3737  0017A2  25AB               	addwf	EJECUTARINS@dir& (0+255),w,b
  3738  0017A4  EC79  F01A         	call	_EEPROM_R
  3739  0017A8  6EDF               	movwf	indf2,c
  3740  0017AA                     
  3741                           ;SETPOINTS.c: 233:             }
  3742  0017AA  0100               	movlb	0	; () banked
  3743  0017AC  2BA8               	incf	EJECUTARINS@E& (0+255),f,b
  3744  0017AE                     
  3745                           ; BSR set to: 0
  3746  0017AE  0E03               	movlw	3
  3747  0017B0  65A8               	cpfsgt	EJECUTARINS@E& (0+255),b
  3748  0017B2  EFDD  F00B         	goto	u4971
  3749  0017B6  EFDF  F00B         	goto	u4970
  3750  0017BA                     u4971:
  3751  0017BA  EFCA  F00B         	goto	l4667
  3752  0017BE                     u4970:
  3753  0017BE                     
  3754                           ; BSR set to: 0
  3755                           ;SETPOINTS.c: 235:             i=SETPOINTBUSCAR(INSTRNAME);
  3756  0017BE  0EA0               	movlw	low EJECUTARINS@INSTRNAME
  3757  0017C0  6F61               	movwf	SETPOINTBUSCAR@dato& (0+255),b
  3758  0017C2  0E00               	movlw	high EJECUTARINS@INSTRNAME
  3759  0017C4  6F62               	movwf	(SETPOINTBUSCAR@dato+1)& (0+255),b
  3760  0017C6  ECF1  F010         	call	_SETPOINTBUSCAR	;wreg free
  3761  0017CA  0100               	movlb	0	; () banked
  3762  0017CC  6FA9               	movwf	EJECUTARINS@i& (0+255),b
  3763  0017CE                     
  3764                           ; BSR set to: 0
  3765                           ;SETPOINTS.c: 236:             if(i<160) {
  3766  0017CE  0EA0               	movlw	160
  3767  0017D0  61A9               	cpfslt	EJECUTARINS@i& (0+255),b
  3768  0017D2  EFED  F00B         	goto	u4981
  3769  0017D6  EFEF  F00B         	goto	u4980
  3770  0017DA                     u4981:
  3771  0017DA  EF1D  F00C         	goto	l4687
  3772  0017DE                     u4980:
  3773  0017DE                     
  3774                           ; BSR set to: 0
  3775                           ;SETPOINTS.c: 237:                 XN=ExtraerDato(i+4);
  3776  0017DE  51A9               	movf	EJECUTARINS@i& (0+255),w,b
  3777  0017E0  0F04               	addlw	4
  3778  0017E2  EC85  F018         	call	_ExtraerDato
  3779  0017E6  C061  F0A4         	movff	?_ExtraerDato,EJECUTARINS@XN
  3780  0017EA  C062  F0A5         	movff	?_ExtraerDato+1,EJECUTARINS@XN+1
  3781                           
  3782                           ;SETPOINTS.c: 238:                 YN=ExtraerDato(i+6);
  3783  0017EE  0100               	movlb	0	; () banked
  3784  0017F0  51A9               	movf	EJECUTARINS@i& (0+255),w,b
  3785  0017F2  0F06               	addlw	6
  3786  0017F4  EC85  F018         	call	_ExtraerDato
  3787  0017F8  C061  F0A6         	movff	?_ExtraerDato,EJECUTARINS@YN
  3788  0017FC  C062  F0A7         	movff	?_ExtraerDato+1,EJECUTARINS@YN+1
  3789  001800                     
  3790                           ;SETPOINTS.c: 239:                 motoresmov((XN-XR), (YN-YR));
  3791  001800  0100               	movlb	0	; () banked
  3792  001802  519C               	movf	EJECUTARINS@XR& (0+255),w,b
  3793  001804  5DA4               	subwf	EJECUTARINS@XN& (0+255),w,b
  3794  001806  6F94               	movwf	motoresmov@DifX& (0+255),b
  3795  001808  519D               	movf	(EJECUTARINS@XR+1)& (0+255),w,b
  3796  00180A  59A5               	subwfb	(EJECUTARINS@XN+1)& (0+255),w,b
  3797  00180C  6F95               	movwf	(motoresmov@DifX+1)& (0+255),b
  3798  00180E  519E               	movf	EJECUTARINS@YR& (0+255),w,b
  3799  001810  5DA6               	subwf	EJECUTARINS@YN& (0+255),w,b
  3800  001812  6F96               	movwf	motoresmov@DifY& (0+255),b
  3801  001814  519F               	movf	(EJECUTARINS@YR+1)& (0+255),w,b
  3802  001816  59A7               	subwfb	(EJECUTARINS@YN+1)& (0+255),w,b
  3803  001818  6F97               	movwf	(motoresmov@DifY+1)& (0+255),b
  3804  00181A  ECCE  F011         	call	_motoresmov	;wreg free
  3805  00181E                     
  3806                           ;SETPOINTS.c: 240:                 XR=XN;
  3807  00181E  C0A4  F09C         	movff	EJECUTARINS@XN,EJECUTARINS@XR
  3808  001822  C0A5  F09D         	movff	EJECUTARINS@XN+1,EJECUTARINS@XR+1
  3809  001826                     
  3810                           ;SETPOINTS.c: 241:                 YR=YN;
  3811  001826  C0A6  F09E         	movff	EJECUTARINS@YN,EJECUTARINS@YR
  3812  00182A  C0A7  F09F         	movff	EJECUTARINS@YN+1,EJECUTARINS@YR+1
  3813  00182E                     l4685:
  3814                           
  3815                           ;SETPOINTS.c: 242:                 dir=dir+4;
  3816  00182E  0100               	movlb	0	; () banked
  3817  001830  51AB               	movf	EJECUTARINS@dir& (0+255),w,b
  3818  001832  0F04               	addlw	4
  3819  001834  6FAB               	movwf	EJECUTARINS@dir& (0+255),b
  3820                           
  3821                           ;SETPOINTS.c: 243:             }else {
  3822  001836  EF2E  F00C         	goto	l4697
  3823  00183A                     l4687:
  3824                           
  3825                           ; BSR set to: 0
  3826                           ;SETPOINTS.c: 244:                 SETNOEX();
  3827  00183A  EC02  F017         	call	_SETNOEX	;wreg free
  3828  00183E  EF17  F00C         	goto	l4685
  3829  001842                     l4691:
  3830                           
  3831                           ; BSR set to: 0
  3832  001842  0E14               	movlw	20
  3833  001844  19AA               	xorwf	EJECUTARINS@dato& (0+255),w,b
  3834  001846  A4D8               	btfss	status,2,c
  3835  001848  EF28  F00C         	goto	u4991
  3836  00184C  EF2A  F00C         	goto	u4990
  3837  001850                     u4991:
  3838  001850  EF2E  F00C         	goto	l4697
  3839  001854                     u4990:
  3840  001854                     
  3841                           ; BSR set to: 0
  3842                           ;SETPOINTS.c: 248:             Accion();
  3843  001854  EC4F  F015         	call	_Accion	;wreg free
  3844  001858                     
  3845                           ;SETPOINTS.c: 249:             dir++;
  3846  001858  0100               	movlb	0	; () banked
  3847  00185A  2BAB               	incf	EJECUTARINS@dir& (0+255),f,b
  3848  00185C                     l4697:
  3849                           
  3850                           ; BSR set to: 0
  3851                           ;SETPOINTS.c: 228:     while(dato!=0&&dir<252) {
  3852  00185C  51AA               	movf	EJECUTARINS@dato& (0+255),w,b
  3853  00185E  B4D8               	btfsc	status,2,c
  3854  001860  EF34  F00C         	goto	u5001
  3855  001864  EF36  F00C         	goto	u5000
  3856  001868                     u5001:
  3857  001868  EF3E  F00C         	goto	l4701
  3858  00186C                     u5000:
  3859  00186C                     
  3860                           ; BSR set to: 0
  3861  00186C  0EFB               	movlw	251
  3862  00186E  65AB               	cpfsgt	EJECUTARINS@dir& (0+255),b
  3863  001870  EF3C  F00C         	goto	u5011
  3864  001874  EF3E  F00C         	goto	u5010
  3865  001878                     u5011:
  3866  001878  EFB3  F00B         	goto	l4655
  3867  00187C                     u5010:
  3868  00187C                     l4701:
  3869                           
  3870                           ; BSR set to: 0
  3871                           ;SETPOINTS.c: 252:     if(dato==0&&dir==160){
  3872  00187C  51AA               	movf	EJECUTARINS@dato& (0+255),w,b
  3873  00187E  A4D8               	btfss	status,2,c
  3874  001880  EF44  F00C         	goto	u5021
  3875  001884  EF46  F00C         	goto	u5020
  3876  001888                     u5021:
  3877  001888  EF51  F00C         	goto	l710
  3878  00188C                     u5020:
  3879  00188C                     
  3880                           ; BSR set to: 0
  3881  00188C  0EA0               	movlw	160
  3882  00188E  19AB               	xorwf	EJECUTARINS@dir& (0+255),w,b
  3883  001890  A4D8               	btfss	status,2,c
  3884  001892  EF4D  F00C         	goto	u5031
  3885  001896  EF4F  F00C         	goto	u5030
  3886  00189A                     u5031:
  3887  00189A  EF51  F00C         	goto	l710
  3888  00189E                     u5030:
  3889  00189E                     
  3890                           ; BSR set to: 0
  3891                           ;SETPOINTS.c: 253:         i=170;
  3892  00189E  0EAA               	movlw	170
  3893  0018A0  6FA9               	movwf	EJECUTARINS@i& (0+255),b
  3894  0018A2                     l710:
  3895                           
  3896                           ; BSR set to: 0
  3897                           ;SETPOINTS.c: 255:     return i;
  3898  0018A2  51A9               	movf	EJECUTARINS@i& (0+255),w,b
  3899  0018A4                     
  3900                           ; BSR set to: 0
  3901  0018A4  0012               	return		;funcret
  3902  0018A6                     __end_of_EJECUTARINS:
  3903                           	opt callstack 0
  3904                           
  3905 ;; *************** function _Accion *****************
  3906 ;; Defined at:
  3907 ;;		line 60 in file "../Proyectoa4550.X/MOTOR.c"
  3908 ;; Parameters:    Size  Location     Type
  3909 ;;		None
  3910 ;; Auto vars:     Size  Location     Type
  3911 ;;		None
  3912 ;; Return value:  Size  Location     Type
  3913 ;;                  1    wreg      void 
  3914 ;; Registers used:
  3915 ;;		wreg, status,2, status,0
  3916 ;; Tracked objects:
  3917 ;;		On entry : 0/0
  3918 ;;		On exit  : 0/0
  3919 ;;		Unchanged: 0/0
  3920 ;; Data sizes:     COMRAM   BANK0   BANK1   BANK2   BANK3   BANK4   BANK5   BANK6   BANK7
  3921 ;;      Params:         0       0       0       0       0       0       0       0       0
  3922 ;;      Locals:         0       0       0       0       0       0       0       0       0
  3923 ;;      Temps:          0       2       0       0       0       0       0       0       0
  3924 ;;      Totals:         0       2       0       0       0       0       0       0       0
  3925 ;;Total ram usage:        2 bytes
  3926 ;; Hardware stack levels used:    1
  3927 ;; Hardware stack levels required when called:    5
  3928 ;; This function calls:
  3929 ;;		Nothing
  3930 ;; This function is called by:
  3931 ;;		_main
  3932 ;;		_EJECUTARINS
  3933 ;; This function uses a non-reentrant model
  3934 ;;
  3935                           
  3936                           	psect	text11
  3937  002A9E                     __ptext11:
  3938                           	opt callstack 0
  3939  002A9E                     _Accion:
  3940                           	opt callstack 23
  3941  002A9E                     
  3942                           ;../Proyectoa4550.X/MOTOR.c: 62:     if(banderaaccion==0) {
  3943  002A9E  505E               	movf	_banderaaccion^0,w,c
  3944  002AA0  A4D8               	btfss	status,2,c
  3945  002AA2  EF55  F015         	goto	u4331
  3946  002AA6  EF57  F015         	goto	u4330
  3947  002AAA                     u4331:
  3948  002AAA  EF5C  F015         	goto	l4223
  3949  002AAE                     u4330:
  3950  002AAE                     
  3951                           ;../Proyectoa4550.X/MOTOR.c: 63:         banderaaccion=1;
  3952  002AAE  0E01               	movlw	1
  3953  002AB0  6E5E               	movwf	_banderaaccion^0,c
  3954  002AB2                     
  3955                           ;../Proyectoa4550.X/MOTOR.c: 64:         PORTDbits.RD7=1;
  3956  002AB2  8E83               	bsf	131,7,c	;volatile
  3957                           
  3958                           ;../Proyectoa4550.X/MOTOR.c: 66:     } else if(banderaaccion==1){
  3959  002AB4  EF67  F015         	goto	l4229
  3960  002AB8                     l4223:
  3961  002AB8  045E               	decf	_banderaaccion^0,w,c
  3962  002ABA  A4D8               	btfss	status,2,c
  3963  002ABC  EF62  F015         	goto	u4341
  3964  002AC0  EF64  F015         	goto	u4340
  3965  002AC4                     u4341:
  3966  002AC4  EF67  F015         	goto	l4229
  3967  002AC8                     u4340:
  3968  002AC8                     
  3969                           ;../Proyectoa4550.X/MOTOR.c: 67:         banderaaccion=0;
  3970  002AC8  0E00               	movlw	0
  3971  002ACA  6E5E               	movwf	_banderaaccion^0,c
  3972  002ACC                     
  3973                           ;../Proyectoa4550.X/MOTOR.c: 68:         PORTDbits.RD7=0;
  3974  002ACC  9E83               	bcf	131,7,c	;volatile
  3975  002ACE                     l4229:
  3976                           
  3977                           ;../Proyectoa4550.X/MOTOR.c: 70:     _delay((unsigned long)((1000)*(4000000/4000.0)));
  3978  002ACE  0E06               	movlw	6
  3979  002AD0  0100               	movlb	0	; () banked
  3980  002AD2  6F61               	movwf	(??_Accion+1)& (0+255),b
  3981  002AD4  0E13               	movlw	19
  3982  002AD6  6F60               	movwf	??_Accion& (0+255),b
  3983  002AD8  0EAD               	movlw	173
  3984  002ADA                     u6057:
  3985  002ADA  2EE8               	decfsz	wreg,f,c
  3986  002ADC  D7FE               	bra	u6057
  3987  002ADE  2F60               	decfsz	??_Accion& (0+255),f,b
  3988  002AE0  D7FC               	bra	u6057
  3989  002AE2  2F61               	decfsz	(??_Accion+1)& (0+255),f,b
  3990  002AE4  D7FA               	bra	u6057
  3991  002AE6  D000               	nop2	
  3992  002AE8  0012               	return		;funcret
  3993  002AEA                     __end_of_Accion:
  3994                           	opt callstack 0
  3995                           
  3996 ;; *************** function _OCUPADO *****************
  3997 ;; Defined at:
  3998 ;;		line 239 in file "../Proyectoa4550.X/Mensajes50.c"
  3999 ;; Parameters:    Size  Location     Type
  4000 ;;		None
  4001 ;; Auto vars:     Size  Location     Type
  4002 ;;  C               1    3[BANK0 ] unsigned char 
  4003 ;;  F               2    1[BANK0 ] unsigned char [2]
  4004 ;; Return value:  Size  Location     Type
  4005 ;;                  1    wreg      void 
  4006 ;; Registers used:
  4007 ;;		wreg, fsr2l, fsr2h, status,2, status,0, cstack
  4008 ;; Tracked objects:
  4009 ;;		On entry : 0/0
  4010 ;;		On exit  : 0/0
  4011 ;;		Unchanged: 0/0
  4012 ;; Data sizes:     COMRAM   BANK0   BANK1   BANK2   BANK3   BANK4   BANK5   BANK6   BANK7
  4013 ;;      Params:         0       0       0       0       0       0       0       0       0
  4014 ;;      Locals:         0       3       0       0       0       0       0       0       0
  4015 ;;      Temps:          0       0       0       0       0       0       0       0       0
  4016 ;;      Totals:         0       3       0       0       0       0       0       0       0
  4017 ;;Total ram usage:        3 bytes
  4018 ;; Hardware stack levels used:    1
  4019 ;; Hardware stack levels required when called:    6
  4020 ;; This function calls:
  4021 ;;		_UARTWrite
  4022 ;; This function is called by:
  4023 ;;		_main
  4024 ;; This function uses a non-reentrant model
  4025 ;;
  4026                           
  4027                           	psect	text12
  4028  0030D4                     __ptext12:
  4029                           	opt callstack 0
  4030  0030D4                     _OCUPADO:
  4031                           	opt callstack 24
  4032  0030D4                     
  4033                           ;../Proyectoa4550.X/Mensajes50.c: 240:     uint8_t F[]="B";
  4034  0030D4  C0E1  F061         	movff	OCUPADO@F3685,OCUPADO@F
  4035  0030D8  C0E2  F062         	movff	OCUPADO@F3685+1,OCUPADO@F+1
  4036  0030DC                     
  4037                           ;../Proyectoa4550.X/Mensajes50.c: 241:     for(uint8_t C=0; C<(sizeof(F)); C++) {
  4038  0030DC  0E00               	movlw	0
  4039  0030DE  0100               	movlb	0	; () banked
  4040  0030E0  6F63               	movwf	OCUPADO@C& (0+255),b
  4041  0030E2                     l4983:
  4042                           
  4043                           ; BSR set to: 0
  4044                           ;../Proyectoa4550.X/Mensajes50.c: 242:             UARTWrite(F[C]);
  4045  0030E2  0E61               	movlw	low OCUPADO@F
  4046  0030E4  2563               	addwf	OCUPADO@C& (0+255),w,b
  4047  0030E6  6ED9               	movwf	fsr2l,c
  4048  0030E8  6ADA               	clrf	fsr2h,c
  4049  0030EA  0E00               	movlw	high OCUPADO@F
  4050  0030EC  22DA               	addwfc	fsr2h,f,c
  4051  0030EE  50DF               	movf	indf2,w,c
  4052  0030F0  EC57  F01A         	call	_UARTWrite
  4053  0030F4                     
  4054                           ;../Proyectoa4550.X/Mensajes50.c: 243:     }
  4055  0030F4  0100               	movlb	0	; () banked
  4056  0030F6  2B63               	incf	OCUPADO@C& (0+255),f,b
  4057  0030F8                     
  4058                           ; BSR set to: 0
  4059  0030F8  0E01               	movlw	1
  4060  0030FA  6563               	cpfsgt	OCUPADO@C& (0+255),b
  4061  0030FC  EF82  F018         	goto	u5371
  4062  003100  EF84  F018         	goto	u5370
  4063  003104                     u5371:
  4064  003104  EF71  F018         	goto	l4983
  4065  003108                     u5370:
  4066  003108                     
  4067                           ; BSR set to: 0
  4068  003108  0012               	return		;funcret
  4069  00310A                     __end_of_OCUPADO:
  4070                           	opt callstack 0
  4071                           
  4072 ;; *************** function _NOcomando *****************
  4073 ;; Defined at:
  4074 ;;		line 226 in file "../Proyectoa4550.X/Mensajes50.c"
  4075 ;; Parameters:    Size  Location     Type
  4076 ;;		None
  4077 ;; Auto vars:     Size  Location     Type
  4078 ;;  C               1    4[BANK0 ] unsigned char 
  4079 ;;  F               3    1[BANK0 ] unsigned char [3]
  4080 ;; Return value:  Size  Location     Type
  4081 ;;                  1    wreg      void 
  4082 ;; Registers used:
  4083 ;;		wreg, fsr2l, fsr2h, status,2, status,0, cstack
  4084 ;; Tracked objects:
  4085 ;;		On entry : 0/0
  4086 ;;		On exit  : 0/0
  4087 ;;		Unchanged: 0/0
  4088 ;; Data sizes:     COMRAM   BANK0   BANK1   BANK2   BANK3   BANK4   BANK5   BANK6   BANK7
  4089 ;;      Params:         0       0       0       0       0       0       0       0       0
  4090 ;;      Locals:         0       4       0       0       0       0       0       0       0
  4091 ;;      Temps:          0       0       0       0       0       0       0       0       0
  4092 ;;      Totals:         0       4       0       0       0       0       0       0       0
  4093 ;;Total ram usage:        4 bytes
  4094 ;; Hardware stack levels used:    1
  4095 ;; Hardware stack levels required when called:    6
  4096 ;; This function calls:
  4097 ;;		_UARTWrite
  4098 ;; This function is called by:
  4099 ;;		_main
  4100 ;; This function uses a non-reentrant model
  4101 ;;
  4102                           
  4103                           	psect	text13
  4104  003028                     __ptext13:
  4105                           	opt callstack 0
  4106  003028                     _NOcomando:
  4107                           	opt callstack 24
  4108  003028                     
  4109                           ;../Proyectoa4550.X/Mensajes50.c: 227:     uint8_t F[]="E0";
  4110  003028  C0DB  F061         	movff	NOcomando@F3677,NOcomando@F
  4111  00302C  C0DC  F062         	movff	NOcomando@F3677+1,NOcomando@F+1
  4112  003030  C0DD  F063         	movff	NOcomando@F3677+2,NOcomando@F+2
  4113  003034                     
  4114                           ;../Proyectoa4550.X/Mensajes50.c: 228:     for(uint8_t C=0; C<(sizeof(F)); C++) {
  4115  003034  0E00               	movlw	0
  4116  003036  0100               	movlb	0	; () banked
  4117  003038  6F64               	movwf	NOcomando@C& (0+255),b
  4118  00303A                     l4969:
  4119                           
  4120                           ; BSR set to: 0
  4121                           ;../Proyectoa4550.X/Mensajes50.c: 229:             UARTWrite(F[C]);
  4122  00303A  0E61               	movlw	low NOcomando@F
  4123  00303C  2564               	addwf	NOcomando@C& (0+255),w,b
  4124  00303E  6ED9               	movwf	fsr2l,c
  4125  003040  6ADA               	clrf	fsr2h,c
  4126  003042  0E00               	movlw	high NOcomando@F
  4127  003044  22DA               	addwfc	fsr2h,f,c
  4128  003046  50DF               	movf	indf2,w,c
  4129  003048  EC57  F01A         	call	_UARTWrite
  4130  00304C                     
  4131                           ;../Proyectoa4550.X/Mensajes50.c: 230:     }
  4132  00304C  0100               	movlb	0	; () banked
  4133  00304E  2B64               	incf	NOcomando@C& (0+255),f,b
  4134  003050                     
  4135                           ; BSR set to: 0
  4136  003050  0E02               	movlw	2
  4137  003052  6564               	cpfsgt	NOcomando@C& (0+255),b
  4138  003054  EF2E  F018         	goto	u5361
  4139  003058  EF30  F018         	goto	u5360
  4140  00305C                     u5361:
  4141  00305C  EF1D  F018         	goto	l4969
  4142  003060                     u5360:
  4143  003060                     
  4144                           ; BSR set to: 0
  4145  003060  0012               	return		;funcret
  4146  003062                     __end_of_NOcomando:
  4147                           	opt callstack 0
  4148                           
  4149 ;; *************** function _Mensaje_comando_completado *****************
  4150 ;; Defined at:
  4151 ;;		line 138 in file "../Proyectoa4550.X/Mensajes50.c"
  4152 ;; Parameters:    Size  Location     Type
  4153 ;;		None
  4154 ;; Auto vars:     Size  Location     Type
  4155 ;;  C               1    3[BANK0 ] unsigned char 
  4156 ;;  F               2    1[BANK0 ] unsigned char [2]
  4157 ;; Return value:  Size  Location     Type
  4158 ;;                  1    wreg      void 
  4159 ;; Registers used:
  4160 ;;		wreg, fsr2l, fsr2h, status,2, status,0, cstack
  4161 ;; Tracked objects:
  4162 ;;		On entry : 0/0
  4163 ;;		On exit  : 0/0
  4164 ;;		Unchanged: 0/0
  4165 ;; Data sizes:     COMRAM   BANK0   BANK1   BANK2   BANK3   BANK4   BANK5   BANK6   BANK7
  4166 ;;      Params:         0       0       0       0       0       0       0       0       0
  4167 ;;      Locals:         0       3       0       0       0       0       0       0       0
  4168 ;;      Temps:          0       0       0       0       0       0       0       0       0
  4169 ;;      Totals:         0       3       0       0       0       0       0       0       0
  4170 ;;Total ram usage:        3 bytes
  4171 ;; Hardware stack levels used:    1
  4172 ;; Hardware stack levels required when called:    6
  4173 ;; This function calls:
  4174 ;;		_UARTWrite
  4175 ;; This function is called by:
  4176 ;;		_main
  4177 ;; This function uses a non-reentrant model
  4178 ;;
  4179                           
  4180                           	psect	text14
  4181  002EC4                     __ptext14:
  4182                           	opt callstack 0
  4183  002EC4                     _Mensaje_comando_completado:
  4184                           	opt callstack 24
  4185  002EC4                     
  4186                           ;../Proyectoa4550.X/Mensajes50.c: 139:     RCREG1 = 0;
  4187  002EC4  0E00               	movlw	0
  4188  002EC6  6EAE               	movwf	174,c	;volatile
  4189  002EC8                     
  4190                           ;../Proyectoa4550.X/Mensajes50.c: 140:     PIR1bits.RCIF=0;
  4191  002EC8  9A9E               	bcf	158,5,c	;volatile
  4192  002ECA                     
  4193                           ;../Proyectoa4550.X/Mensajes50.c: 141:     uint8_t F[]="R";
  4194  002ECA  C0E3  F061         	movff	Mensaje_comando_completado@F3636,Mensaje_comando_completado@F
  4195  002ECE  C0E4  F062         	movff	Mensaje_comando_completado@F3636+1,Mensaje_comando_completado@F+1
  4196                           
  4197                           ;../Proyectoa4550.X/Mensajes50.c: 142:     for(uint8_t C=0; C<(sizeof(F)); C++) {
  4198  002ED2  0E00               	movlw	0
  4199  002ED4  0100               	movlb	0	; () banked
  4200  002ED6  6F63               	movwf	Mensaje_comando_completado@C& (0+255),b
  4201  002ED8                     l4917:
  4202                           
  4203                           ; BSR set to: 0
  4204                           ;../Proyectoa4550.X/Mensajes50.c: 143:             UARTWrite(F[C]);
  4205  002ED8  0E61               	movlw	low Mensaje_comando_completado@F
  4206  002EDA  2563               	addwf	Mensaje_comando_completado@C& (0+255),w,b
  4207  002EDC  6ED9               	movwf	fsr2l,c
  4208  002EDE  6ADA               	clrf	fsr2h,c
  4209  002EE0  0E00               	movlw	high Mensaje_comando_completado@F
  4210  002EE2  22DA               	addwfc	fsr2h,f,c
  4211  002EE4  50DF               	movf	indf2,w,c
  4212  002EE6  EC57  F01A         	call	_UARTWrite
  4213  002EEA                     
  4214                           ;../Proyectoa4550.X/Mensajes50.c: 144:     }
  4215  002EEA  0100               	movlb	0	; () banked
  4216  002EEC  2B63               	incf	Mensaje_comando_completado@C& (0+255),f,b
  4217  002EEE                     
  4218                           ; BSR set to: 0
  4219  002EEE  0E01               	movlw	1
  4220  002EF0  6563               	cpfsgt	Mensaje_comando_completado@C& (0+255),b
  4221  002EF2  EF7D  F017         	goto	u5291
  4222  002EF6  EF7F  F017         	goto	u5290
  4223  002EFA                     u5291:
  4224  002EFA  EF6C  F017         	goto	l4917
  4225  002EFE                     u5290:
  4226  002EFE                     
  4227                           ; BSR set to: 0
  4228  002EFE  0012               	return		;funcret
  4229  002F00                     __end_of_Mensaje_comando_completado:
  4230                           	opt callstack 0
  4231                           
  4232 ;; *************** function _Menimp *****************
  4233 ;; Defined at:
  4234 ;;		line 67 in file "../Proyectoa4550.X/Mensajes50.c"
  4235 ;; Parameters:    Size  Location     Type
  4236 ;;		None
  4237 ;; Auto vars:     Size  Location     Type
  4238 ;;  i               1    5[BANK0 ] unsigned char 
  4239 ;;  comandos        3    1[BANK0 ] unsigned char [3]
  4240 ;;  Send            1    4[BANK0 ] unsigned char 
  4241 ;; Return value:  Size  Location     Type
  4242 ;;                  1    wreg      void 
  4243 ;; Registers used:
  4244 ;;		wreg, fsr2l, fsr2h, status,2, status,0, cstack
  4245 ;; Tracked objects:
  4246 ;;		On entry : 0/0
  4247 ;;		On exit  : 0/0
  4248 ;;		Unchanged: 0/0
  4249 ;; Data sizes:     COMRAM   BANK0   BANK1   BANK2   BANK3   BANK4   BANK5   BANK6   BANK7
  4250 ;;      Params:         0       0       0       0       0       0       0       0       0
  4251 ;;      Locals:         0       5       0       0       0       0       0       0       0
  4252 ;;      Temps:          0       0       0       0       0       0       0       0       0
  4253 ;;      Totals:         0       5       0       0       0       0       0       0       0
  4254 ;;Total ram usage:        5 bytes
  4255 ;; Hardware stack levels used:    1
  4256 ;; Hardware stack levels required when called:    6
  4257 ;; This function calls:
  4258 ;;		_UARTWrite
  4259 ;; This function is called by:
  4260 ;;		_main
  4261 ;; This function uses a non-reentrant model
  4262 ;;
  4263                           
  4264                           	psect	text15
  4265  002BBC                     __ptext15:
  4266                           	opt callstack 0
  4267  002BBC                     _Menimp:
  4268                           	opt callstack 24
  4269  002BBC                     
  4270                           ;../Proyectoa4550.X/Mensajes50.c: 68:     RCREG1 = 0;
  4271  002BBC  0E00               	movlw	0
  4272  002BBE  6EAE               	movwf	174,c	;volatile
  4273  002BC0                     
  4274                           ;../Proyectoa4550.X/Mensajes50.c: 69:     PIR1bits.RCIF=0;
  4275  002BC0  9A9E               	bcf	158,5,c	;volatile
  4276  002BC2                     
  4277                           ;../Proyectoa4550.X/Mensajes50.c: 70:     uint8_t Send;;../Proyectoa4550.X/Mensajes50.c:
      +                           71:     uint8_t comandos[]="CL";
  4278  002BC2  C0DE  F061         	movff	Menimp@F3611,Menimp@comandos
  4279  002BC6  C0DF  F062         	movff	Menimp@F3611+1,Menimp@comandos+1
  4280  002BCA  C0E0  F063         	movff	Menimp@F3611+2,Menimp@comandos+2
  4281                           
  4282                           ;../Proyectoa4550.X/Mensajes50.c: 72:     for(uint8_t i=0; i<(sizeof(comandos)); i++) {
  4283  002BCE  0E00               	movlw	0
  4284  002BD0  0100               	movlb	0	; () banked
  4285  002BD2  6F65               	movwf	Menimp@i& (0+255),b
  4286  002BD4                     l4825:
  4287                           
  4288                           ; BSR set to: 0
  4289                           ;../Proyectoa4550.X/Mensajes50.c: 73:                 Send=comandos[i];
  4290  002BD4  0E61               	movlw	low Menimp@comandos
  4291  002BD6  2565               	addwf	Menimp@i& (0+255),w,b
  4292  002BD8  6ED9               	movwf	fsr2l,c
  4293  002BDA  6ADA               	clrf	fsr2h,c
  4294  002BDC  0E00               	movlw	high Menimp@comandos
  4295  002BDE  22DA               	addwfc	fsr2h,f,c
  4296  002BE0  50DF               	movf	indf2,w,c
  4297  002BE2  6F64               	movwf	Menimp@Send& (0+255),b
  4298  002BE4                     
  4299                           ; BSR set to: 0
  4300                           ;../Proyectoa4550.X/Mensajes50.c: 74:                 UARTWrite(Send);
  4301  002BE4  5164               	movf	Menimp@Send& (0+255),w,b
  4302  002BE6  EC57  F01A         	call	_UARTWrite
  4303  002BEA                     
  4304                           ;../Proyectoa4550.X/Mensajes50.c: 75:     }
  4305  002BEA  0100               	movlb	0	; () banked
  4306  002BEC  2B65               	incf	Menimp@i& (0+255),f,b
  4307  002BEE                     
  4308                           ; BSR set to: 0
  4309  002BEE  0E02               	movlw	2
  4310  002BF0  6565               	cpfsgt	Menimp@i& (0+255),b
  4311  002BF2  EFFD  F015         	goto	u5241
  4312  002BF6  EFFF  F015         	goto	u5240
  4313  002BFA                     u5241:
  4314  002BFA  EFEA  F015         	goto	l4825
  4315  002BFE                     u5240:
  4316  002BFE                     
  4317                           ; BSR set to: 0
  4318  002BFE  0012               	return		;funcret
  4319  002C00                     __end_of_Menimp:
  4320                           	opt callstack 0
  4321                           
  4322 ;; *************** function _MOVASETPOINT *****************
  4323 ;; Defined at:
  4324 ;;		line 135 in file "SETPOINTS.c"
  4325 ;; Parameters:    Size  Location     Type
  4326 ;;  XR              2   60[BANK0 ] unsigned short 
  4327 ;;  YR              2   62[BANK0 ] unsigned short 
  4328 ;; Auto vars:     Size  Location     Type
  4329 ;;  b               1   73[BANK0 ] unsigned char 
  4330 ;;  dato            4   64[BANK0 ] unsigned char [4]
  4331 ;;  YN              2   70[BANK0 ] unsigned short 
  4332 ;;  XN              2   68[BANK0 ] unsigned short 
  4333 ;;  i               1   74[BANK0 ] unsigned char 
  4334 ;;  send            1   72[BANK0 ] unsigned char 
  4335 ;; Return value:  Size  Location     Type
  4336 ;;                  2   60[BANK0 ] unsigned short 
  4337 ;; Registers used:
  4338 ;;		wreg, fsr1l, fsr1h, fsr2l, fsr2h, status,2, status,0, prodl, prodh, cstack
  4339 ;; Tracked objects:
  4340 ;;		On entry : 0/0
  4341 ;;		On exit  : 0/0
  4342 ;;		Unchanged: 0/0
  4343 ;; Data sizes:     COMRAM   BANK0   BANK1   BANK2   BANK3   BANK4   BANK5   BANK6   BANK7
  4344 ;;      Params:         0       4       0       0       0       0       0       0       0
  4345 ;;      Locals:         0      11       0       0       0       0       0       0       0
  4346 ;;      Temps:          0       0       0       0       0       0       0       0       0
  4347 ;;      Totals:         0      15       0       0       0       0       0       0       0
  4348 ;;Total ram usage:       15 bytes
  4349 ;; Hardware stack levels used:    1
  4350 ;; Hardware stack levels required when called:    9
  4351 ;; This function calls:
  4352 ;;		_ExtraerDato
  4353 ;;		_SETNOEX
  4354 ;;		_SETPOINTBUSCAR
  4355 ;;		_UARTRead
  4356 ;;		_UARTWrite
  4357 ;;		_motoresmov
  4358 ;; This function is called by:
  4359 ;;		_main
  4360 ;; This function uses a non-reentrant model
  4361 ;;
  4362                           
  4363                           	psect	text16
  4364  002468                     __ptext16:
  4365                           	opt callstack 0
  4366  002468                     _MOVASETPOINT:
  4367                           	opt callstack 21
  4368  002468                     
  4369                           ;SETPOINTS.c: 136:     uint8_t dato[4];;SETPOINTS.c: 137:     uint8_t send;;SETPOINTS.c:
      +                           138:     for(uint8_t b=0; b<4; b++) {
  4370  002468  0E00               	movlw	0
  4371  00246A  0100               	movlb	0	; () banked
  4372  00246C  6FA9               	movwf	MOVASETPOINT@b& (0+255),b
  4373  00246E                     l5121:
  4374                           
  4375                           ; BSR set to: 0
  4376                           ;SETPOINTS.c: 139:         dato[b]=UARTRead();
  4377  00246E  0EA0               	movlw	low MOVASETPOINT@dato
  4378  002470  25A9               	addwf	MOVASETPOINT@b& (0+255),w,b
  4379  002472  6ED9               	movwf	fsr2l,c
  4380  002474  6ADA               	clrf	fsr2h,c
  4381  002476  0E00               	movlw	high MOVASETPOINT@dato
  4382  002478  22DA               	addwfc	fsr2h,f,c
  4383  00247A  ECF1  F014         	call	_UARTRead	;wreg free
  4384  00247E  6EDF               	movwf	indf2,c
  4385  002480                     
  4386                           ;SETPOINTS.c: 140:         __nop();
  4387  002480  F000               	nop	
  4388  002482                     
  4389                           ;SETPOINTS.c: 141:         send=dato[b];
  4390  002482  0EA0               	movlw	low MOVASETPOINT@dato
  4391  002484  0100               	movlb	0	; () banked
  4392  002486  25A9               	addwf	MOVASETPOINT@b& (0+255),w,b
  4393  002488  6ED9               	movwf	fsr2l,c
  4394  00248A  6ADA               	clrf	fsr2h,c
  4395  00248C  0E00               	movlw	high MOVASETPOINT@dato
  4396  00248E  22DA               	addwfc	fsr2h,f,c
  4397  002490  50DF               	movf	indf2,w,c
  4398  002492  6FA8               	movwf	MOVASETPOINT@send& (0+255),b
  4399  002494                     
  4400                           ; BSR set to: 0
  4401                           ;SETPOINTS.c: 142:         __nop();
  4402  002494  F000               	nop	
  4403  002496                     
  4404                           ;SETPOINTS.c: 143:         UARTWrite(send);
  4405  002496  0100               	movlb	0	; () banked
  4406  002498  51A8               	movf	MOVASETPOINT@send& (0+255),w,b
  4407  00249A  EC57  F01A         	call	_UARTWrite
  4408  00249E                     
  4409                           ;SETPOINTS.c: 144:     }
  4410  00249E  0100               	movlb	0	; () banked
  4411  0024A0  2BA9               	incf	MOVASETPOINT@b& (0+255),f,b
  4412  0024A2                     
  4413                           ; BSR set to: 0
  4414  0024A2  0E03               	movlw	3
  4415  0024A4  65A9               	cpfsgt	MOVASETPOINT@b& (0+255),b
  4416  0024A6  EF57  F012         	goto	u5431
  4417  0024AA  EF59  F012         	goto	u5430
  4418  0024AE                     u5431:
  4419  0024AE  EF37  F012         	goto	l5121
  4420  0024B2                     u5430:
  4421  0024B2                     
  4422                           ; BSR set to: 0
  4423                           ;SETPOINTS.c: 145:     UARTWrite('\n');
  4424  0024B2  0E0A               	movlw	10
  4425  0024B4  EC57  F01A         	call	_UARTWrite
  4426                           
  4427                           ;SETPOINTS.c: 146:     UARTWrite('\r');
  4428  0024B8  0E0D               	movlw	13
  4429  0024BA  EC57  F01A         	call	_UARTWrite
  4430  0024BE                     
  4431                           ;SETPOINTS.c: 150:     i=SETPOINTBUSCAR(dato);
  4432  0024BE  0EA0               	movlw	low MOVASETPOINT@dato
  4433  0024C0  0100               	movlb	0	; () banked
  4434  0024C2  6F61               	movwf	SETPOINTBUSCAR@dato& (0+255),b
  4435  0024C4  0E00               	movlw	high MOVASETPOINT@dato
  4436  0024C6  6F62               	movwf	(SETPOINTBUSCAR@dato+1)& (0+255),b
  4437  0024C8  ECF1  F010         	call	_SETPOINTBUSCAR	;wreg free
  4438  0024CC  0100               	movlb	0	; () banked
  4439  0024CE  6FAA               	movwf	MOVASETPOINT@i& (0+255),b
  4440  0024D0                     
  4441                           ; BSR set to: 0
  4442                           ;SETPOINTS.c: 151:     if(i<160) {
  4443  0024D0  0EA0               	movlw	160
  4444  0024D2  61AA               	cpfslt	MOVASETPOINT@i& (0+255),b
  4445  0024D4  EF6E  F012         	goto	u5441
  4446  0024D8  EF70  F012         	goto	u5440
  4447  0024DC                     u5441:
  4448  0024DC  EF92  F012         	goto	l5147
  4449  0024E0                     u5440:
  4450  0024E0                     
  4451                           ; BSR set to: 0
  4452                           ;SETPOINTS.c: 152:         XN=ExtraerDato(i+4);
  4453  0024E0  51AA               	movf	MOVASETPOINT@i& (0+255),w,b
  4454  0024E2  0F04               	addlw	4
  4455  0024E4  EC85  F018         	call	_ExtraerDato
  4456  0024E8  C061  F0A4         	movff	?_ExtraerDato,MOVASETPOINT@XN
  4457  0024EC  C062  F0A5         	movff	?_ExtraerDato+1,MOVASETPOINT@XN+1
  4458                           
  4459                           ;SETPOINTS.c: 153:         YN=ExtraerDato(i+6);
  4460  0024F0  0100               	movlb	0	; () banked
  4461  0024F2  51AA               	movf	MOVASETPOINT@i& (0+255),w,b
  4462  0024F4  0F06               	addlw	6
  4463  0024F6  EC85  F018         	call	_ExtraerDato
  4464  0024FA  C061  F0A6         	movff	?_ExtraerDato,MOVASETPOINT@YN
  4465  0024FE  C062  F0A7         	movff	?_ExtraerDato+1,MOVASETPOINT@YN+1
  4466  002502                     
  4467                           ;SETPOINTS.c: 154:         motoresmov((XN-XR), (YN-YR));
  4468  002502  0100               	movlb	0	; () banked
  4469  002504  519C               	movf	MOVASETPOINT@XR& (0+255),w,b
  4470  002506  5DA4               	subwf	MOVASETPOINT@XN& (0+255),w,b
  4471  002508  6F94               	movwf	motoresmov@DifX& (0+255),b
  4472  00250A  519D               	movf	(MOVASETPOINT@XR+1)& (0+255),w,b
  4473  00250C  59A5               	subwfb	(MOVASETPOINT@XN+1)& (0+255),w,b
  4474  00250E  6F95               	movwf	(motoresmov@DifX+1)& (0+255),b
  4475  002510  519E               	movf	MOVASETPOINT@YR& (0+255),w,b
  4476  002512  5DA6               	subwf	MOVASETPOINT@YN& (0+255),w,b
  4477  002514  6F96               	movwf	motoresmov@DifY& (0+255),b
  4478  002516  519F               	movf	(MOVASETPOINT@YR+1)& (0+255),w,b
  4479  002518  59A7               	subwfb	(MOVASETPOINT@YN+1)& (0+255),w,b
  4480  00251A  6F97               	movwf	(motoresmov@DifY+1)& (0+255),b
  4481  00251C  ECCE  F011         	call	_motoresmov	;wreg free
  4482                           
  4483                           ;SETPOINTS.c: 155:     }else {
  4484  002520  EF94  F012         	goto	l5149
  4485  002524                     l5147:
  4486                           
  4487                           ; BSR set to: 0
  4488                           ;SETPOINTS.c: 156:         SETNOEX();
  4489  002524  EC02  F017         	call	_SETNOEX	;wreg free
  4490  002528                     l5149:
  4491                           
  4492                           ;SETPOINTS.c: 158:     return i;
  4493  002528  C0AA  F09C         	movff	MOVASETPOINT@i,?_MOVASETPOINT
  4494  00252C  0100               	movlb	0	; () banked
  4495  00252E  6B9D               	clrf	(?_MOVASETPOINT+1)& (0+255),b
  4496  002530                     
  4497                           ; BSR set to: 0
  4498  002530  0012               	return		;funcret
  4499  002532                     __end_of_MOVASETPOINT:
  4500                           	opt callstack 0
  4501                           
  4502 ;; *************** function _motoresmov *****************
  4503 ;; Defined at:
  4504 ;;		line 17 in file "../Proyectoa4550.X/MOTOR.c"
  4505 ;; Parameters:    Size  Location     Type
  4506 ;;  DifX            2   52[BANK0 ] short 
  4507 ;;  DifY            2   54[BANK0 ] short 
  4508 ;; Auto vars:     Size  Location     Type
  4509 ;;  DifB            2   58[BANK0 ] short 
  4510 ;;  DifA            2   56[BANK0 ] short 
  4511 ;; Return value:  Size  Location     Type
  4512 ;;                  1    wreg      void 
  4513 ;; Registers used:
  4514 ;;		wreg, status,2, status,0, prodl, prodh, cstack
  4515 ;; Tracked objects:
  4516 ;;		On entry : 0/0
  4517 ;;		On exit  : 0/0
  4518 ;;		Unchanged: 0/0
  4519 ;; Data sizes:     COMRAM   BANK0   BANK1   BANK2   BANK3   BANK4   BANK5   BANK6   BANK7
  4520 ;;      Params:         0       4       0       0       0       0       0       0       0
  4521 ;;      Locals:         0       4       0       0       0       0       0       0       0
  4522 ;;      Temps:          0       0       0       0       0       0       0       0       0
  4523 ;;      Totals:         0       8       0       0       0       0       0       0       0
  4524 ;;Total ram usage:        8 bytes
  4525 ;; Hardware stack levels used:    1
  4526 ;; Hardware stack levels required when called:    8
  4527 ;; This function calls:
  4528 ;;		_CONTADOR
  4529 ;;		_Conversion
  4530 ;;		_DIR_A
  4531 ;;		_DIR_B
  4532 ;;		_ENABLE_A
  4533 ;;		_ENABLE_B
  4534 ;; This function is called by:
  4535 ;;		_main
  4536 ;;		_MOVASETPOINT
  4537 ;;		_EJECUTARINS
  4538 ;; This function uses a non-reentrant model
  4539 ;;
  4540                           
  4541                           	psect	text17
  4542  00239C                     __ptext17:
  4543                           	opt callstack 0
  4544  00239C                     _motoresmov:
  4545                           	opt callstack 22
  4546  00239C                     
  4547                           ;../Proyectoa4550.X/MOTOR.c: 18:     int16_t DifA=DifX+DifY;
  4548  00239C  0100               	movlb	0	; () banked
  4549  00239E  5196               	movf	motoresmov@DifY& (0+255),w,b
  4550  0023A0  2594               	addwf	motoresmov@DifX& (0+255),w,b
  4551  0023A2  6F98               	movwf	motoresmov@DifA& (0+255),b
  4552  0023A4  5197               	movf	(motoresmov@DifY+1)& (0+255),w,b
  4553  0023A6  2195               	addwfc	(motoresmov@DifX+1)& (0+255),w,b
  4554  0023A8  6F99               	movwf	(motoresmov@DifA+1)& (0+255),b
  4555                           
  4556                           ;../Proyectoa4550.X/MOTOR.c: 19:     int16_t DifB=DifX-DifY;
  4557  0023AA  5196               	movf	motoresmov@DifY& (0+255),w,b
  4558  0023AC  5D94               	subwf	motoresmov@DifX& (0+255),w,b
  4559  0023AE  6F9A               	movwf	motoresmov@DifB& (0+255),b
  4560  0023B0  5197               	movf	(motoresmov@DifY+1)& (0+255),w,b
  4561  0023B2  5995               	subwfb	(motoresmov@DifX+1)& (0+255),w,b
  4562  0023B4  6F9B               	movwf	(motoresmov@DifB+1)& (0+255),b
  4563  0023B6                     
  4564                           ; BSR set to: 0
  4565                           ;../Proyectoa4550.X/MOTOR.c: 20:     DifA=Conversion(DifA);
  4566  0023B6  C098  F088         	movff	motoresmov@DifA,Conversion@Dif
  4567  0023BA  C099  F089         	movff	motoresmov@DifA+1,Conversion@Dif+1
  4568  0023BE  ECD8  F00E         	call	_Conversion	;wreg free
  4569  0023C2  C088  F098         	movff	?_Conversion,motoresmov@DifA
  4570  0023C6  C089  F099         	movff	?_Conversion+1,motoresmov@DifA+1
  4571  0023CA                     
  4572                           ;../Proyectoa4550.X/MOTOR.c: 21:     DifB=Conversion(DifB);
  4573  0023CA  C09A  F088         	movff	motoresmov@DifB,Conversion@Dif
  4574  0023CE  C09B  F089         	movff	motoresmov@DifB+1,Conversion@Dif+1
  4575  0023D2  ECD8  F00E         	call	_Conversion	;wreg free
  4576  0023D6  C088  F09A         	movff	?_Conversion,motoresmov@DifB
  4577  0023DA  C089  F09B         	movff	?_Conversion+1,motoresmov@DifB+1
  4578                           
  4579                           ;../Proyectoa4550.X/MOTOR.c: 23:     if(DifA<0) {
  4580  0023DE  0100               	movlb	0	; () banked
  4581  0023E0  BF99               	btfsc	(motoresmov@DifA+1)& (0+255),7,b
  4582  0023E2  EFF7  F011         	goto	u4290
  4583  0023E6  EFF5  F011         	goto	u4291
  4584  0023EA                     u4291:
  4585  0023EA  EFFC  F011         	goto	l4199
  4586  0023EE                     u4290:
  4587  0023EE                     
  4588                           ; BSR set to: 0
  4589                           ;../Proyectoa4550.X/MOTOR.c: 24:         DIR_A(0);
  4590  0023EE  0E00               	movlw	0
  4591  0023F0  ECE0  F019         	call	_DIR_A
  4592                           
  4593                           ;../Proyectoa4550.X/MOTOR.c: 25:     } else {
  4594  0023F4  EFFF  F011         	goto	l4201
  4595  0023F8                     l4199:
  4596                           
  4597                           ; BSR set to: 0
  4598                           ;../Proyectoa4550.X/MOTOR.c: 26:         DIR_A(1);
  4599  0023F8  0E01               	movlw	1
  4600  0023FA  ECE0  F019         	call	_DIR_A
  4601  0023FE                     l4201:
  4602                           
  4603                           ;../Proyectoa4550.X/MOTOR.c: 28:     if(DifB<0) {
  4604  0023FE  0100               	movlb	0	; () banked
  4605  002400  BF9B               	btfsc	(motoresmov@DifB+1)& (0+255),7,b
  4606  002402  EF07  F012         	goto	u4300
  4607  002406  EF05  F012         	goto	u4301
  4608  00240A                     u4301:
  4609  00240A  EF0C  F012         	goto	l4205
  4610  00240E                     u4300:
  4611  00240E                     
  4612                           ; BSR set to: 0
  4613                           ;../Proyectoa4550.X/MOTOR.c: 29:         DIR_B(0);
  4614  00240E  0E00               	movlw	0
  4615  002410  ECD0  F019         	call	_DIR_B
  4616                           
  4617                           ;../Proyectoa4550.X/MOTOR.c: 30:     } else {
  4618  002414  EF0F  F012         	goto	l4207
  4619  002418                     l4205:
  4620                           
  4621                           ; BSR set to: 0
  4622                           ;../Proyectoa4550.X/MOTOR.c: 31:         DIR_B(1);
  4623  002418  0E01               	movlw	1
  4624  00241A  ECD0  F019         	call	_DIR_B
  4625  00241E                     l4207:
  4626                           
  4627                           ;../Proyectoa4550.X/MOTOR.c: 33:     if(DifB!=0) {
  4628  00241E  0100               	movlb	0	; () banked
  4629  002420  519A               	movf	motoresmov@DifB& (0+255),w,b
  4630  002422  119B               	iorwf	(motoresmov@DifB+1)& (0+255),w,b
  4631  002424  B4D8               	btfsc	status,2,c
  4632  002426  EF17  F012         	goto	u4311
  4633  00242A  EF19  F012         	goto	u4310
  4634  00242E                     u4311:
  4635  00242E  EF1C  F012         	goto	l4211
  4636  002432                     u4310:
  4637  002432                     
  4638                           ; BSR set to: 0
  4639                           ;../Proyectoa4550.X/MOTOR.c: 34:         ENABLE_B(1);
  4640  002432  0E01               	movlw	1
  4641  002434  ECF0  F019         	call	_ENABLE_B
  4642  002438                     l4211:
  4643                           
  4644                           ;../Proyectoa4550.X/MOTOR.c: 36:     if(DifA!=0) {
  4645  002438  0100               	movlb	0	; () banked
  4646  00243A  5198               	movf	motoresmov@DifA& (0+255),w,b
  4647  00243C  1199               	iorwf	(motoresmov@DifA+1)& (0+255),w,b
  4648  00243E  B4D8               	btfsc	status,2,c
  4649  002440  EF24  F012         	goto	u4321
  4650  002444  EF26  F012         	goto	u4320
  4651  002448                     u4321:
  4652  002448  EF29  F012         	goto	l4215
  4653  00244C                     u4320:
  4654  00244C                     
  4655                           ; BSR set to: 0
  4656                           ;../Proyectoa4550.X/MOTOR.c: 37:         ENABLE_A(1);
  4657  00244C  0E01               	movlw	1
  4658  00244E  EC00  F01A         	call	_ENABLE_A
  4659  002452                     l4215:
  4660                           
  4661                           ;../Proyectoa4550.X/MOTOR.c: 39:     CONTADOR(DifA, DifB);
  4662  002452  C098  F065         	movff	motoresmov@DifA,CONTADOR@DifA
  4663  002456  C099  F066         	movff	motoresmov@DifA+1,CONTADOR@DifA+1
  4664  00245A  C09A  F067         	movff	motoresmov@DifB,CONTADOR@DifB
  4665  00245E  C09B  F068         	movff	motoresmov@DifB+1,CONTADOR@DifB+1
  4666  002462  ECFD  F00C         	call	_CONTADOR	;wreg free
  4667  002466  0012               	return		;funcret
  4668  002468                     __end_of_motoresmov:
  4669                           	opt callstack 0
  4670                           
  4671 ;; *************** function _DIR_B *****************
  4672 ;; Defined at:
  4673 ;;		line 51 in file "../Proyectoa4550.X/GPIO.c"
  4674 ;; Parameters:    Size  Location     Type
  4675 ;;  X               1    wreg     unsigned char 
  4676 ;; Auto vars:     Size  Location     Type
  4677 ;;  X               1    0[BANK0 ] unsigned char 
  4678 ;; Return value:  Size  Location     Type
  4679 ;;                  1    wreg      void 
  4680 ;; Registers used:
  4681 ;;		wreg, status,2, status,0
  4682 ;; Tracked objects:
  4683 ;;		On entry : 0/0
  4684 ;;		On exit  : 0/0
  4685 ;;		Unchanged: 0/0
  4686 ;; Data sizes:     COMRAM   BANK0   BANK1   BANK2   BANK3   BANK4   BANK5   BANK6   BANK7
  4687 ;;      Params:         0       0       0       0       0       0       0       0       0
  4688 ;;      Locals:         0       1       0       0       0       0       0       0       0
  4689 ;;      Temps:          0       0       0       0       0       0       0       0       0
  4690 ;;      Totals:         0       1       0       0       0       0       0       0       0
  4691 ;;Total ram usage:        1 bytes
  4692 ;; Hardware stack levels used:    1
  4693 ;; Hardware stack levels required when called:    5
  4694 ;; This function calls:
  4695 ;;		Nothing
  4696 ;; This function is called by:
  4697 ;;		_motoresmov
  4698 ;; This function uses a non-reentrant model
  4699 ;;
  4700                           
  4701                           	psect	text18
  4702  0033A0                     __ptext18:
  4703                           	opt callstack 0
  4704  0033A0                     _DIR_B:
  4705                           	opt callstack 24
  4706                           
  4707                           ;incstack = 0
  4708                           ;DIR_B@X stored from wreg
  4709  0033A0  0100               	movlb	0	; () banked
  4710  0033A2  6F60               	movwf	DIR_B@X& (0+255),b
  4711  0033A4                     
  4712                           ;../Proyectoa4550.X/GPIO.c: 52:     if(X==1) {
  4713  0033A4  0100               	movlb	0	; () banked
  4714  0033A6  0560               	decf	DIR_B@X& (0+255),w,b
  4715  0033A8  A4D8               	btfss	status,2,c
  4716  0033AA  EFD9  F019         	goto	u3681
  4717  0033AE  EFDB  F019         	goto	u3680
  4718  0033B2                     u3681:
  4719  0033B2  EFDE  F019         	goto	l759
  4720  0033B6                     u3680:
  4721  0033B6                     
  4722                           ; BSR set to: 0
  4723                           ;../Proyectoa4550.X/GPIO.c: 53:         PORTDbits.RD0=1;
  4724  0033B6  8083               	bsf	131,0,c	;volatile
  4725                           
  4726                           ;../Proyectoa4550.X/GPIO.c: 54:     } else {
  4727  0033B8  EFDF  F019         	goto	l761
  4728  0033BC                     l759:
  4729                           
  4730                           ; BSR set to: 0
  4731                           ;../Proyectoa4550.X/GPIO.c: 55:         PORTDbits.RD0=0;
  4732  0033BC  9083               	bcf	131,0,c	;volatile
  4733  0033BE                     l761:
  4734                           
  4735                           ; BSR set to: 0
  4736  0033BE  0012               	return		;funcret
  4737  0033C0                     __end_of_DIR_B:
  4738                           	opt callstack 0
  4739                           
  4740 ;; *************** function _DIR_A *****************
  4741 ;; Defined at:
  4742 ;;		line 59 in file "../Proyectoa4550.X/GPIO.c"
  4743 ;; Parameters:    Size  Location     Type
  4744 ;;  X               1    wreg     unsigned char 
  4745 ;; Auto vars:     Size  Location     Type
  4746 ;;  X               1    0[BANK0 ] unsigned char 
  4747 ;; Return value:  Size  Location     Type
  4748 ;;                  1    wreg      void 
  4749 ;; Registers used:
  4750 ;;		wreg, status,2, status,0
  4751 ;; Tracked objects:
  4752 ;;		On entry : 0/0
  4753 ;;		On exit  : 0/0
  4754 ;;		Unchanged: 0/0
  4755 ;; Data sizes:     COMRAM   BANK0   BANK1   BANK2   BANK3   BANK4   BANK5   BANK6   BANK7
  4756 ;;      Params:         0       0       0       0       0       0       0       0       0
  4757 ;;      Locals:         0       1       0       0       0       0       0       0       0
  4758 ;;      Temps:          0       0       0       0       0       0       0       0       0
  4759 ;;      Totals:         0       1       0       0       0       0       0       0       0
  4760 ;;Total ram usage:        1 bytes
  4761 ;; Hardware stack levels used:    1
  4762 ;; Hardware stack levels required when called:    5
  4763 ;; This function calls:
  4764 ;;		Nothing
  4765 ;; This function is called by:
  4766 ;;		_motoresmov
  4767 ;; This function uses a non-reentrant model
  4768 ;;
  4769                           
  4770                           	psect	text19
  4771  0033C0                     __ptext19:
  4772                           	opt callstack 0
  4773  0033C0                     _DIR_A:
  4774                           	opt callstack 24
  4775                           
  4776                           ; BSR set to: 0
  4777                           ;incstack = 0
  4778                           ;DIR_A@X stored from wreg
  4779  0033C0  0100               	movlb	0	; () banked
  4780  0033C2  6F60               	movwf	DIR_A@X& (0+255),b
  4781  0033C4                     
  4782                           ;../Proyectoa4550.X/GPIO.c: 60:     if(X==1) {
  4783  0033C4  0100               	movlb	0	; () banked
  4784  0033C6  0560               	decf	DIR_A@X& (0+255),w,b
  4785  0033C8  A4D8               	btfss	status,2,c
  4786  0033CA  EFE9  F019         	goto	u3671
  4787  0033CE  EFEB  F019         	goto	u3670
  4788  0033D2                     u3671:
  4789  0033D2  EFEE  F019         	goto	l764
  4790  0033D6                     u3670:
  4791  0033D6                     
  4792                           ; BSR set to: 0
  4793                           ;../Proyectoa4550.X/GPIO.c: 61:         PORTDbits.RD1=1;
  4794  0033D6  8283               	bsf	131,1,c	;volatile
  4795                           
  4796                           ;../Proyectoa4550.X/GPIO.c: 62:     } else {
  4797  0033D8  EFEF  F019         	goto	l766
  4798  0033DC                     l764:
  4799                           
  4800                           ; BSR set to: 0
  4801                           ;../Proyectoa4550.X/GPIO.c: 63:         PORTDbits.RD1=0;
  4802  0033DC  9283               	bcf	131,1,c	;volatile
  4803  0033DE                     l766:
  4804                           
  4805                           ; BSR set to: 0
  4806  0033DE  0012               	return		;funcret
  4807  0033E0                     __end_of_DIR_A:
  4808                           	opt callstack 0
  4809                           
  4810 ;; *************** function _Conversion *****************
  4811 ;; Defined at:
  4812 ;;		line 43 in file "../Proyectoa4550.X/MOTOR.c"
  4813 ;; Parameters:    Size  Location     Type
  4814 ;;  Dif             2   40[BANK0 ] short 
  4815 ;; Auto vars:     Size  Location     Type
  4816 ;;  X1              4   44[BANK0 ] float 
  4817 ;;  X2              2   50[BANK0 ] unsigned short 
  4818 ;;  B               2   48[BANK0 ] unsigned short 
  4819 ;; Return value:  Size  Location     Type
  4820 ;;                  2   40[BANK0 ] short 
  4821 ;; Registers used:
  4822 ;;		wreg, status,2, status,0, prodl, prodh, cstack
  4823 ;; Tracked objects:
  4824 ;;		On entry : 0/0
  4825 ;;		On exit  : 0/0
  4826 ;;		Unchanged: 0/0
  4827 ;; Data sizes:     COMRAM   BANK0   BANK1   BANK2   BANK3   BANK4   BANK5   BANK6   BANK7
  4828 ;;      Params:         0       2       0       0       0       0       0       0       0
  4829 ;;      Locals:         0       8       0       0       0       0       0       0       0
  4830 ;;      Temps:          0       2       0       0       0       0       0       0       0
  4831 ;;      Totals:         0      12       0       0       0       0       0       0       0
  4832 ;;Total ram usage:       12 bytes
  4833 ;; Hardware stack levels used:    1
  4834 ;; Hardware stack levels required when called:    7
  4835 ;; This function calls:
  4836 ;;		___flge
  4837 ;;		___flsub
  4838 ;;		___wmul
  4839 ;;		___xxtofl
  4840 ;;		_abs
  4841 ;; This function is called by:
  4842 ;;		_motoresmov
  4843 ;; This function uses a non-reentrant model
  4844 ;;
  4845                           
  4846                           	psect	text20
  4847  001DB0                     __ptext20:
  4848                           	opt callstack 0
  4849  001DB0                     _Conversion:
  4850                           	opt callstack 22
  4851  001DB0                     
  4852                           ;../Proyectoa4550.X/MOTOR.c: 47:     uint16_t B=abs(Dif);
  4853  001DB0  C088  F060         	movff	Conversion@Dif,abs@a
  4854  001DB4  C089  F061         	movff	Conversion@Dif+1,abs@a+1
  4855  001DB8  EC00  F016         	call	_abs	;wreg free
  4856  001DBC  C060  F090         	movff	?_abs,Conversion@B
  4857  001DC0  C061  F091         	movff	?_abs+1,Conversion@B+1
  4858  001DC4                     
  4859                           ;../Proyectoa4550.X/MOTOR.c: 48:     float X1=B*5;
  4860  001DC4  C090  F060         	movff	Conversion@B,___wmul@multiplier
  4861  001DC8  C091  F061         	movff	Conversion@B+1,___wmul@multiplier+1
  4862  001DCC  0E00               	movlw	0
  4863  001DCE  0100               	movlb	0	; () banked
  4864  001DD0  6F63               	movwf	(___wmul@multiplicand+1)& (0+255),b
  4865  001DD2  0E05               	movlw	5
  4866  001DD4  6F62               	movwf	___wmul@multiplicand& (0+255),b
  4867  001DD6  EC36  F019         	call	___wmul	;wreg free
  4868  001DDA  0100               	movlb	0	; () banked
  4869  001DDC  C060  F066         	movff	?___wmul,___xxtofl@val
  4870  001DE0  C061  F067         	movff	?___wmul+1,___xxtofl@val+1
  4871  001DE4  6B68               	clrf	(___xxtofl@val+2)& (0+255),b
  4872  001DE6  6B69               	clrf	(___xxtofl@val+3)& (0+255),b
  4873  001DE8  0E00               	movlw	0
  4874  001DEA  EC34  F009         	call	___xxtofl
  4875  001DEE  C066  F08C         	movff	?___xxtofl,Conversion@X1
  4876  001DF2  C067  F08D         	movff	?___xxtofl+1,Conversion@X1+1
  4877  001DF6  C068  F08E         	movff	?___xxtofl+2,Conversion@X1+2
  4878  001DFA  C069  F08F         	movff	?___xxtofl+3,Conversion@X1+3
  4879  001DFE                     
  4880                           ;../Proyectoa4550.X/MOTOR.c: 49:     uint16_t X2=B*5;
  4881  001DFE  C090  F060         	movff	Conversion@B,___wmul@multiplier
  4882  001E02  C091  F061         	movff	Conversion@B+1,___wmul@multiplier+1
  4883  001E06  0E00               	movlw	0
  4884  001E08  0100               	movlb	0	; () banked
  4885  001E0A  6F63               	movwf	(___wmul@multiplicand+1)& (0+255),b
  4886  001E0C  0E05               	movlw	5
  4887  001E0E  6F62               	movwf	___wmul@multiplicand& (0+255),b
  4888  001E10  EC36  F019         	call	___wmul	;wreg free
  4889  001E14  C060  F092         	movff	?___wmul,Conversion@X2
  4890  001E18  C061  F093         	movff	?___wmul+1,Conversion@X2+1
  4891                           
  4892                           ;../Proyectoa4550.X/MOTOR.c: 50:     if((X1-X2)>=0.5) {
  4893  001E1C  C092  F066         	movff	Conversion@X2,___xxtofl@val
  4894  001E20  C093  F067         	movff	Conversion@X2+1,___xxtofl@val+1
  4895  001E24  0100               	movlb	0	; () banked
  4896  001E26  6B68               	clrf	(___xxtofl@val+2)& (0+255),b
  4897  001E28  6B69               	clrf	(___xxtofl@val+3)& (0+255),b
  4898  001E2A  0E00               	movlw	0
  4899  001E2C  EC34  F009         	call	___xxtofl
  4900  001E30  C066  F078         	movff	?___xxtofl,___flsub@a
  4901  001E34  C067  F079         	movff	?___xxtofl+1,___flsub@a+1
  4902  001E38  C068  F07A         	movff	?___xxtofl+2,___flsub@a+2
  4903  001E3C  C069  F07B         	movff	?___xxtofl+3,___flsub@a+3
  4904  001E40  C08C  F074         	movff	Conversion@X1,___flsub@b
  4905  001E44  C08D  F075         	movff	Conversion@X1+1,___flsub@b+1
  4906  001E48  C08E  F076         	movff	Conversion@X1+2,___flsub@b+2
  4907  001E4C  C08F  F077         	movff	Conversion@X1+3,___flsub@b+3
  4908  001E50  EC75  F015         	call	___flsub	;wreg free
  4909  001E54  C074  F07C         	movff	?___flsub,___flge@ff1
  4910  001E58  C075  F07D         	movff	?___flsub+1,___flge@ff1+1
  4911  001E5C  C076  F07E         	movff	?___flsub+2,___flge@ff1+2
  4912  001E60  C077  F07F         	movff	?___flsub+3,___flge@ff1+3
  4913  001E64  0E00               	movlw	0
  4914  001E66  0100               	movlb	0	; () banked
  4915  001E68  6F80               	movwf	___flge@ff2& (0+255),b
  4916  001E6A  0E00               	movlw	0
  4917  001E6C  6F81               	movwf	(___flge@ff2+1)& (0+255),b
  4918  001E6E  0E00               	movlw	0
  4919  001E70  6F82               	movwf	(___flge@ff2+2)& (0+255),b
  4920  001E72  0E3F               	movlw	63
  4921  001E74  6F83               	movwf	(___flge@ff2+3)& (0+255),b
  4922  001E76  ECEC  F00F         	call	___flge	;wreg free
  4923  001E7A  0100               	movlb	0	; () banked
  4924  001E7C  A0D8               	btfss	status,0,c
  4925  001E7E  EF43  F00F         	goto	u3651
  4926  001E82  EF45  F00F         	goto	u3650
  4927  001E86                     u3651:
  4928  001E86  EF47  F00F         	goto	l3855
  4929  001E8A                     u3650:
  4930  001E8A                     
  4931                           ; BSR set to: 0
  4932                           ;../Proyectoa4550.X/MOTOR.c: 51:         X2++;
  4933  001E8A  4B92               	infsnz	Conversion@X2& (0+255),f,b
  4934  001E8C  2B93               	incf	(Conversion@X2+1)& (0+255),f,b
  4935  001E8E                     l3855:
  4936                           
  4937                           ; BSR set to: 0
  4938                           ;../Proyectoa4550.X/MOTOR.c: 53:     if(Dif<0) {
  4939  001E8E  BF89               	btfsc	(Conversion@Dif+1)& (0+255),7,b
  4940  001E90  EF4E  F00F         	goto	u3660
  4941  001E94  EF4C  F00F         	goto	u3661
  4942  001E98                     u3661:
  4943  001E98  EF54  F00F         	goto	l37
  4944  001E9C                     u3660:
  4945  001E9C                     
  4946                           ; BSR set to: 0
  4947                           ;../Proyectoa4550.X/MOTOR.c: 54:         Dif=X2;
  4948  001E9C  C092  F088         	movff	Conversion@X2,Conversion@Dif
  4949  001EA0  C093  F089         	movff	Conversion@X2+1,Conversion@Dif+1
  4950                           
  4951                           ;../Proyectoa4550.X/MOTOR.c: 55:     } else {
  4952  001EA4  EF60  F00F         	goto	l38
  4953  001EA8                     l37:
  4954                           
  4955                           ; BSR set to: 0
  4956                           ;../Proyectoa4550.X/MOTOR.c: 56:         Dif=(-X2);
  4957  001EA8  C092  F08A         	movff	Conversion@X2,??_Conversion
  4958  001EAC  C093  F08B         	movff	Conversion@X2+1,??_Conversion+1
  4959  001EB0  1F8A               	comf	??_Conversion& (0+255),f,b
  4960  001EB2  1F8B               	comf	(??_Conversion+1)& (0+255),f,b
  4961  001EB4  4B8A               	infsnz	??_Conversion& (0+255),f,b
  4962  001EB6  2B8B               	incf	(??_Conversion+1)& (0+255),f,b
  4963  001EB8  C08A  F088         	movff	??_Conversion,Conversion@Dif
  4964  001EBC  C08B  F089         	movff	??_Conversion+1,Conversion@Dif+1
  4965  001EC0                     l38:
  4966                           
  4967                           ; BSR set to: 0
  4968                           ;../Proyectoa4550.X/MOTOR.c: 58:     return Dif;
  4969  001EC0  C088  F088         	movff	Conversion@Dif,?_Conversion
  4970  001EC4  C089  F089         	movff	Conversion@Dif+1,?_Conversion+1
  4971  001EC8                     
  4972                           ; BSR set to: 0
  4973  001EC8  0012               	return		;funcret
  4974  001ECA                     __end_of_Conversion:
  4975                           	opt callstack 0
  4976                           
  4977 ;; *************** function ___xxtofl *****************
  4978 ;; Defined at:
  4979 ;;		line 10 in file "C:\Program Files (x86)\Microchip\xc8\v2.10\pic\sources\c99\common\xxtofl.c"
  4980 ;; Parameters:    Size  Location     Type
  4981 ;;  sign            1    wreg     unsigned char 
  4982 ;;  val             4    6[BANK0 ] long 
  4983 ;; Auto vars:     Size  Location     Type
  4984 ;;  sign            1   14[BANK0 ] unsigned char 
  4985 ;;  arg             4   16[BANK0 ] unsigned long 
  4986 ;;  exp             1   15[BANK0 ] unsigned char 
  4987 ;; Return value:  Size  Location     Type
  4988 ;;                  4    6[BANK0 ] unsigned char 
  4989 ;; Registers used:
  4990 ;;		wreg, status,2, status,0
  4991 ;; Tracked objects:
  4992 ;;		On entry : 0/0
  4993 ;;		On exit  : 0/0
  4994 ;;		Unchanged: 0/0
  4995 ;; Data sizes:     COMRAM   BANK0   BANK1   BANK2   BANK3   BANK4   BANK5   BANK6   BANK7
  4996 ;;      Params:         0       4       0       0       0       0       0       0       0
  4997 ;;      Locals:         0       6       0       0       0       0       0       0       0
  4998 ;;      Temps:          0       4       0       0       0       0       0       0       0
  4999 ;;      Totals:         0      14       0       0       0       0       0       0       0
  5000 ;;Total ram usage:       14 bytes
  5001 ;; Hardware stack levels used:    1
  5002 ;; Hardware stack levels required when called:    5
  5003 ;; This function calls:
  5004 ;;		Nothing
  5005 ;; This function is called by:
  5006 ;;		_Conversion
  5007 ;; This function uses a non-reentrant model
  5008 ;;
  5009                           
  5010                           	psect	text21
  5011  001268                     __ptext21:
  5012                           	opt callstack 0
  5013  001268                     ___xxtofl:
  5014                           	opt callstack 23
  5015                           
  5016                           ; BSR set to: 0
  5017                           ;incstack = 0
  5018                           ;___xxtofl@sign stored from wreg
  5019  001268  0100               	movlb	0	; () banked
  5020  00126A  6F6E               	movwf	___xxtofl@sign& (0+255),b
  5021  00126C  0100               	movlb	0	; () banked
  5022  00126E  516E               	movf	___xxtofl@sign& (0+255),w,b
  5023  001270  B4D8               	btfsc	status,2,c
  5024  001272  EF3D  F009         	goto	u3551
  5025  001276  EF3F  F009         	goto	u3550
  5026  00127A                     u3551:
  5027  00127A  EF61  F009         	goto	l1440
  5028  00127E                     u3550:
  5029  00127E                     
  5030                           ; BSR set to: 0
  5031  00127E  BF69               	btfsc	(___xxtofl@val+3)& (0+255),7,b
  5032  001280  EF46  F009         	goto	u3560
  5033  001284  EF44  F009         	goto	u3561
  5034  001288                     u3561:
  5035  001288  EF61  F009         	goto	l1440
  5036  00128C                     u3560:
  5037  00128C                     
  5038                           ; BSR set to: 0
  5039  00128C  C066  F06A         	movff	___xxtofl@val,??___xxtofl
  5040  001290  C067  F06B         	movff	___xxtofl@val+1,??___xxtofl+1
  5041  001294  C068  F06C         	movff	___xxtofl@val+2,??___xxtofl+2
  5042  001298  C069  F06D         	movff	___xxtofl@val+3,??___xxtofl+3
  5043  00129C  1F6A               	comf	??___xxtofl& (0+255),f,b
  5044  00129E  1F6B               	comf	(??___xxtofl+1)& (0+255),f,b
  5045  0012A0  1F6C               	comf	(??___xxtofl+2)& (0+255),f,b
  5046  0012A2  1F6D               	comf	(??___xxtofl+3)& (0+255),f,b
  5047  0012A4  2B6A               	incf	??___xxtofl& (0+255),f,b
  5048  0012A6  0E00               	movlw	0
  5049  0012A8  236B               	addwfc	(??___xxtofl+1)& (0+255),f,b
  5050  0012AA  236C               	addwfc	(??___xxtofl+2)& (0+255),f,b
  5051  0012AC  236D               	addwfc	(??___xxtofl+3)& (0+255),f,b
  5052  0012AE  C06A  F070         	movff	??___xxtofl,___xxtofl@arg
  5053  0012B2  C06B  F071         	movff	??___xxtofl+1,___xxtofl@arg+1
  5054  0012B6  C06C  F072         	movff	??___xxtofl+2,___xxtofl@arg+2
  5055  0012BA  C06D  F073         	movff	??___xxtofl+3,___xxtofl@arg+3
  5056  0012BE  EF69  F009         	goto	l3807
  5057  0012C2                     l1440:
  5058                           
  5059                           ; BSR set to: 0
  5060  0012C2  C066  F070         	movff	___xxtofl@val,___xxtofl@arg
  5061  0012C6  C067  F071         	movff	___xxtofl@val+1,___xxtofl@arg+1
  5062  0012CA  C068  F072         	movff	___xxtofl@val+2,___xxtofl@arg+2
  5063  0012CE  C069  F073         	movff	___xxtofl@val+3,___xxtofl@arg+3
  5064  0012D2                     l3807:
  5065                           
  5066                           ; BSR set to: 0
  5067  0012D2  5166               	movf	___xxtofl@val& (0+255),w,b
  5068  0012D4  1167               	iorwf	(___xxtofl@val+1)& (0+255),w,b
  5069  0012D6  1168               	iorwf	(___xxtofl@val+2)& (0+255),w,b
  5070  0012D8  1169               	iorwf	(___xxtofl@val+3)& (0+255),w,b
  5071  0012DA  A4D8               	btfss	status,2,c
  5072  0012DC  EF72  F009         	goto	u3571
  5073  0012E0  EF74  F009         	goto	u3570
  5074  0012E4                     u3571:
  5075  0012E4  EF7E  F009         	goto	l3813
  5076  0012E8                     u3570:
  5077  0012E8                     
  5078                           ; BSR set to: 0
  5079  0012E8  0E00               	movlw	0
  5080  0012EA  6F66               	movwf	?___xxtofl& (0+255),b
  5081  0012EC  0E00               	movlw	0
  5082  0012EE  6F67               	movwf	(?___xxtofl+1)& (0+255),b
  5083  0012F0  0E00               	movlw	0
  5084  0012F2  6F68               	movwf	(?___xxtofl+2)& (0+255),b
  5085  0012F4  0E00               	movlw	0
  5086  0012F6  6F69               	movwf	(?___xxtofl+3)& (0+255),b
  5087  0012F8  EF0F  F00A         	goto	l1443
  5088  0012FC                     l3813:
  5089                           
  5090                           ; BSR set to: 0
  5091  0012FC  0E96               	movlw	150
  5092  0012FE  6F6F               	movwf	___xxtofl@exp& (0+255),b
  5093  001300  EF88  F009         	goto	l3817
  5094  001304                     l3815:
  5095                           
  5096                           ; BSR set to: 0
  5097  001304  2B6F               	incf	___xxtofl@exp& (0+255),f,b
  5098  001306  90D8               	bcf	status,0,c
  5099  001308  3373               	rrcf	(___xxtofl@arg+3)& (0+255),f,b
  5100  00130A  3372               	rrcf	(___xxtofl@arg+2)& (0+255),f,b
  5101  00130C  3371               	rrcf	(___xxtofl@arg+1)& (0+255),f,b
  5102  00130E  3370               	rrcf	___xxtofl@arg& (0+255),f,b
  5103  001310                     l3817:
  5104                           
  5105                           ; BSR set to: 0
  5106  001310  0E00               	movlw	0
  5107  001312  1570               	andwf	___xxtofl@arg& (0+255),w,b
  5108  001314  6F6A               	movwf	??___xxtofl& (0+255),b
  5109  001316  0E00               	movlw	0
  5110  001318  1571               	andwf	(___xxtofl@arg+1)& (0+255),w,b
  5111  00131A  6F6B               	movwf	(??___xxtofl+1)& (0+255),b
  5112  00131C  0E00               	movlw	0
  5113  00131E  1572               	andwf	(___xxtofl@arg+2)& (0+255),w,b
  5114  001320  6F6C               	movwf	(??___xxtofl+2)& (0+255),b
  5115  001322  0EFE               	movlw	254
  5116  001324  1573               	andwf	(___xxtofl@arg+3)& (0+255),w,b
  5117  001326  6F6D               	movwf	(??___xxtofl+3)& (0+255),b
  5118  001328  516A               	movf	??___xxtofl& (0+255),w,b
  5119  00132A  116B               	iorwf	(??___xxtofl+1)& (0+255),w,b
  5120  00132C  116C               	iorwf	(??___xxtofl+2)& (0+255),w,b
  5121  00132E  116D               	iorwf	(??___xxtofl+3)& (0+255),w,b
  5122  001330  A4D8               	btfss	status,2,c
  5123  001332  EF9D  F009         	goto	u3581
  5124  001336  EF9F  F009         	goto	u3580
  5125  00133A                     u3581:
  5126  00133A  EF82  F009         	goto	l3815
  5127  00133E                     u3580:
  5128  00133E  EFAD  F009         	goto	l1447
  5129  001342                     l3819:
  5130                           
  5131                           ; BSR set to: 0
  5132  001342  2B6F               	incf	___xxtofl@exp& (0+255),f,b
  5133  001344                     
  5134                           ; BSR set to: 0
  5135  001344  0E01               	movlw	1
  5136  001346  2770               	addwf	___xxtofl@arg& (0+255),f,b
  5137  001348  0E00               	movlw	0
  5138  00134A  2371               	addwfc	(___xxtofl@arg+1)& (0+255),f,b
  5139  00134C  2372               	addwfc	(___xxtofl@arg+2)& (0+255),f,b
  5140  00134E  2373               	addwfc	(___xxtofl@arg+3)& (0+255),f,b
  5141  001350                     
  5142                           ; BSR set to: 0
  5143  001350  90D8               	bcf	status,0,c
  5144  001352  3373               	rrcf	(___xxtofl@arg+3)& (0+255),f,b
  5145  001354  3372               	rrcf	(___xxtofl@arg+2)& (0+255),f,b
  5146  001356  3371               	rrcf	(___xxtofl@arg+1)& (0+255),f,b
  5147  001358  3370               	rrcf	___xxtofl@arg& (0+255),f,b
  5148  00135A                     l1447:
  5149                           
  5150                           ; BSR set to: 0
  5151  00135A  0E00               	movlw	0
  5152  00135C  1570               	andwf	___xxtofl@arg& (0+255),w,b
  5153  00135E  6F6A               	movwf	??___xxtofl& (0+255),b
  5154  001360  0E00               	movlw	0
  5155  001362  1571               	andwf	(___xxtofl@arg+1)& (0+255),w,b
  5156  001364  6F6B               	movwf	(??___xxtofl+1)& (0+255),b
  5157  001366  0E00               	movlw	0
  5158  001368  1572               	andwf	(___xxtofl@arg+2)& (0+255),w,b
  5159  00136A  6F6C               	movwf	(??___xxtofl+2)& (0+255),b
  5160  00136C  0EFF               	movlw	255
  5161  00136E  1573               	andwf	(___xxtofl@arg+3)& (0+255),w,b
  5162  001370  6F6D               	movwf	(??___xxtofl+3)& (0+255),b
  5163  001372  516A               	movf	??___xxtofl& (0+255),w,b
  5164  001374  116B               	iorwf	(??___xxtofl+1)& (0+255),w,b
  5165  001376  116C               	iorwf	(??___xxtofl+2)& (0+255),w,b
  5166  001378  116D               	iorwf	(??___xxtofl+3)& (0+255),w,b
  5167  00137A  A4D8               	btfss	status,2,c
  5168  00137C  EFC2  F009         	goto	u3591
  5169  001380  EFC4  F009         	goto	u3590
  5170  001384                     u3591:
  5171  001384  EFA1  F009         	goto	l3819
  5172  001388                     u3590:
  5173  001388  EFCC  F009         	goto	l3827
  5174  00138C                     l3825:
  5175                           
  5176                           ; BSR set to: 0
  5177  00138C  076F               	decf	___xxtofl@exp& (0+255),f,b
  5178  00138E  90D8               	bcf	status,0,c
  5179  001390  3770               	rlcf	___xxtofl@arg& (0+255),f,b
  5180  001392  3771               	rlcf	(___xxtofl@arg+1)& (0+255),f,b
  5181  001394  3772               	rlcf	(___xxtofl@arg+2)& (0+255),f,b
  5182  001396  3773               	rlcf	(___xxtofl@arg+3)& (0+255),f,b
  5183  001398                     l3827:
  5184                           
  5185                           ; BSR set to: 0
  5186  001398  BF72               	btfsc	(___xxtofl@arg+2)& (0+255),7,b
  5187  00139A  EFD1  F009         	goto	u3601
  5188  00139E  EFD3  F009         	goto	u3600
  5189  0013A2                     u3601:
  5190  0013A2  EFDB  F009         	goto	l1454
  5191  0013A6                     u3600:
  5192  0013A6                     
  5193                           ; BSR set to: 0
  5194  0013A6  0E02               	movlw	2
  5195  0013A8  616F               	cpfslt	___xxtofl@exp& (0+255),b
  5196  0013AA  EFD9  F009         	goto	u3611
  5197  0013AE  EFDB  F009         	goto	u3610
  5198  0013B2                     u3611:
  5199  0013B2  EFC6  F009         	goto	l3825
  5200  0013B6                     u3610:
  5201  0013B6                     l1454:
  5202                           
  5203                           ; BSR set to: 0
  5204  0013B6  B16F               	btfsc	___xxtofl@exp& (0+255),0,b
  5205  0013B8  EFE0  F009         	goto	u3621
  5206  0013BC  EFE2  F009         	goto	u3620
  5207  0013C0                     u3621:
  5208  0013C0  EFE3  F009         	goto	l3833
  5209  0013C4                     u3620:
  5210  0013C4                     
  5211                           ; BSR set to: 0
  5212  0013C4  9F72               	bcf	(___xxtofl@arg+2)& (0+255),7,b
  5213  0013C6                     l3833:
  5214                           
  5215                           ; BSR set to: 0
  5216  0013C6  90D8               	bcf	status,0,c
  5217  0013C8  336F               	rrcf	___xxtofl@exp& (0+255),f,b
  5218  0013CA                     
  5219                           ; BSR set to: 0
  5220  0013CA  C06F  F06A         	movff	___xxtofl@exp,??___xxtofl
  5221  0013CE  6B6B               	clrf	(??___xxtofl+1)& (0+255),b
  5222  0013D0  6B6C               	clrf	(??___xxtofl+2)& (0+255),b
  5223  0013D2  6B6D               	clrf	(??___xxtofl+3)& (0+255),b
  5224  0013D4  C06A  F06D         	movff	??___xxtofl,??___xxtofl+3
  5225  0013D8  6B6C               	clrf	(??___xxtofl+2)& (0+255),b
  5226  0013DA  6B6B               	clrf	(??___xxtofl+1)& (0+255),b
  5227  0013DC  6B6A               	clrf	??___xxtofl& (0+255),b
  5228  0013DE  516A               	movf	??___xxtofl& (0+255),w,b
  5229  0013E0  1370               	iorwf	___xxtofl@arg& (0+255),f,b
  5230  0013E2  516B               	movf	(??___xxtofl+1)& (0+255),w,b
  5231  0013E4  1371               	iorwf	(___xxtofl@arg+1)& (0+255),f,b
  5232  0013E6  516C               	movf	(??___xxtofl+2)& (0+255),w,b
  5233  0013E8  1372               	iorwf	(___xxtofl@arg+2)& (0+255),f,b
  5234  0013EA  516D               	movf	(??___xxtofl+3)& (0+255),w,b
  5235  0013EC  1373               	iorwf	(___xxtofl@arg+3)& (0+255),f,b
  5236  0013EE                     
  5237                           ; BSR set to: 0
  5238  0013EE  516E               	movf	___xxtofl@sign& (0+255),w,b
  5239  0013F0  B4D8               	btfsc	status,2,c
  5240  0013F2  EFFD  F009         	goto	u3631
  5241  0013F6  EFFF  F009         	goto	u3630
  5242  0013FA                     u3631:
  5243  0013FA  EF07  F00A         	goto	l3843
  5244  0013FE                     u3630:
  5245  0013FE                     
  5246                           ; BSR set to: 0
  5247  0013FE  BF69               	btfsc	(___xxtofl@val+3)& (0+255),7,b
  5248  001400  EF06  F00A         	goto	u3640
  5249  001404  EF04  F00A         	goto	u3641
  5250  001408                     u3641:
  5251  001408  EF07  F00A         	goto	l3843
  5252  00140C                     u3640:
  5253  00140C                     
  5254                           ; BSR set to: 0
  5255  00140C  8F73               	bsf	(___xxtofl@arg+3)& (0+255),7,b
  5256  00140E                     l3843:
  5257                           
  5258                           ; BSR set to: 0
  5259  00140E  C070  F066         	movff	___xxtofl@arg,?___xxtofl
  5260  001412  C071  F067         	movff	___xxtofl@arg+1,?___xxtofl+1
  5261  001416  C072  F068         	movff	___xxtofl@arg+2,?___xxtofl+2
  5262  00141A  C073  F069         	movff	___xxtofl@arg+3,?___xxtofl+3
  5263  00141E                     l1443:
  5264                           
  5265                           ; BSR set to: 0
  5266  00141E  0012               	return		;funcret
  5267  001420                     __end_of___xxtofl:
  5268                           	opt callstack 0
  5269                           
  5270 ;; *************** function ___wmul *****************
  5271 ;; Defined at:
  5272 ;;		line 15 in file "C:\Program Files (x86)\Microchip\xc8\v2.10\pic\sources\c99\common\Umul16.c"
  5273 ;; Parameters:    Size  Location     Type
  5274 ;;  multiplier      2    0[BANK0 ] unsigned int 
  5275 ;;  multiplicand    2    2[BANK0 ] unsigned int 
  5276 ;; Auto vars:     Size  Location     Type
  5277 ;;  product         2    4[BANK0 ] unsigned int 
  5278 ;; Return value:  Size  Location     Type
  5279 ;;                  2    0[BANK0 ] unsigned int 
  5280 ;; Registers used:
  5281 ;;		wreg, status,2, status,0, prodl, prodh
  5282 ;; Tracked objects:
  5283 ;;		On entry : 0/0
  5284 ;;		On exit  : 0/0
  5285 ;;		Unchanged: 0/0
  5286 ;; Data sizes:     COMRAM   BANK0   BANK1   BANK2   BANK3   BANK4   BANK5   BANK6   BANK7
  5287 ;;      Params:         0       4       0       0       0       0       0       0       0
  5288 ;;      Locals:         0       2       0       0       0       0       0       0       0
  5289 ;;      Temps:          0       0       0       0       0       0       0       0       0
  5290 ;;      Totals:         0       6       0       0       0       0       0       0       0
  5291 ;;Total ram usage:        6 bytes
  5292 ;; Hardware stack levels used:    1
  5293 ;; Hardware stack levels required when called:    5
  5294 ;; This function calls:
  5295 ;;		Nothing
  5296 ;; This function is called by:
  5297 ;;		_Conversion
  5298 ;; This function uses a non-reentrant model
  5299 ;;
  5300                           
  5301                           	psect	text22
  5302  00326C                     __ptext22:
  5303                           	opt callstack 0
  5304  00326C                     ___wmul:
  5305                           	opt callstack 23
  5306  00326C  0100               	movlb	0	; () banked
  5307  00326E  5160               	movf	___wmul@multiplier& (0+255),w,b
  5308  003270  0362               	mulwf	___wmul@multiplicand& (0+255),b
  5309  003272  CFF3 F064          	movff	prodl,___wmul@product
  5310  003276  CFF4 F065          	movff	prodh,___wmul@product+1
  5311  00327A  5160               	movf	___wmul@multiplier& (0+255),w,b
  5312  00327C  0363               	mulwf	(___wmul@multiplicand+1)& (0+255),b
  5313  00327E  50F3               	movf	243,w,c
  5314  003280  2765               	addwf	(___wmul@product+1)& (0+255),f,b
  5315  003282  5161               	movf	(___wmul@multiplier+1)& (0+255),w,b
  5316  003284  0362               	mulwf	___wmul@multiplicand& (0+255),b
  5317  003286  50F3               	movf	243,w,c
  5318  003288  2765               	addwf	(___wmul@product+1)& (0+255),f,b
  5319  00328A                     
  5320                           ; BSR set to: 0
  5321  00328A  C064  F060         	movff	___wmul@product,?___wmul
  5322  00328E  C065  F061         	movff	___wmul@product+1,?___wmul+1
  5323  003292                     
  5324                           ; BSR set to: 0
  5325  003292  0012               	return		;funcret
  5326  003294                     __end_of___wmul:
  5327                           	opt callstack 0
  5328                           
  5329 ;; *************** function ___flsub *****************
  5330 ;; Defined at:
  5331 ;;		line 245 in file "C:\Program Files (x86)\Microchip\xc8\v2.10\pic\sources\c99\common\sprcadd.c"
  5332 ;; Parameters:    Size  Location     Type
  5333 ;;  b               4   20[BANK0 ] unsigned int 
  5334 ;;  a               4   24[BANK0 ] unsigned int 
  5335 ;; Auto vars:     Size  Location     Type
  5336 ;;		None
  5337 ;; Return value:  Size  Location     Type
  5338 ;;                  4   20[BANK0 ] unsigned int 
  5339 ;; Registers used:
  5340 ;;		wreg, status,2, status,0, cstack
  5341 ;; Tracked objects:
  5342 ;;		On entry : 0/0
  5343 ;;		On exit  : 0/0
  5344 ;;		Unchanged: 0/0
  5345 ;; Data sizes:     COMRAM   BANK0   BANK1   BANK2   BANK3   BANK4   BANK5   BANK6   BANK7
  5346 ;;      Params:         0       8       0       0       0       0       0       0       0
  5347 ;;      Locals:         0       0       0       0       0       0       0       0       0
  5348 ;;      Temps:          0       0       0       0       0       0       0       0       0
  5349 ;;      Totals:         0       8       0       0       0       0       0       0       0
  5350 ;;Total ram usage:        8 bytes
  5351 ;; Hardware stack levels used:    1
  5352 ;; Hardware stack levels required when called:    6
  5353 ;; This function calls:
  5354 ;;		___fladd
  5355 ;; This function is called by:
  5356 ;;		_Conversion
  5357 ;; This function uses a non-reentrant model
  5358 ;;
  5359                           
  5360                           	psect	text23
  5361  002AEA                     __ptext23:
  5362                           	opt callstack 0
  5363  002AEA                     ___flsub:
  5364                           	opt callstack 22
  5365  002AEA  0E00               	movlw	0
  5366  002AEC  0100               	movlb	0	; () banked
  5367  002AEE  1B78               	xorwf	___flsub@a& (0+255),f,b
  5368  002AF0  0E00               	movlw	0
  5369  002AF2  1B79               	xorwf	(___flsub@a+1)& (0+255),f,b
  5370  002AF4  0E00               	movlw	0
  5371  002AF6  1B7A               	xorwf	(___flsub@a+2)& (0+255),f,b
  5372  002AF8  0E80               	movlw	128
  5373  002AFA  1B7B               	xorwf	(___flsub@a+3)& (0+255),f,b
  5374  002AFC                     
  5375                           ; BSR set to: 0
  5376  002AFC  C074  F060         	movff	___flsub@b,___fladd@b
  5377  002B00  C075  F061         	movff	___flsub@b+1,___fladd@b+1
  5378  002B04  C076  F062         	movff	___flsub@b+2,___fladd@b+2
  5379  002B08  C077  F063         	movff	___flsub@b+3,___fladd@b+3
  5380  002B0C  C078  F064         	movff	___flsub@a,___fladd@a
  5381  002B10  C079  F065         	movff	___flsub@a+1,___fladd@a+1
  5382  002B14  C07A  F066         	movff	___flsub@a+2,___fladd@a+2
  5383  002B18  C07B  F067         	movff	___flsub@a+3,___fladd@a+3
  5384  002B1C  EC7D  F002         	call	___fladd	;wreg free
  5385  002B20  C060  F074         	movff	?___fladd,?___flsub
  5386  002B24  C061  F075         	movff	?___fladd+1,?___flsub+1
  5387  002B28  C062  F076         	movff	?___fladd+2,?___flsub+2
  5388  002B2C  C063  F077         	movff	?___fladd+3,?___flsub+3
  5389  002B30  0012               	return		;funcret
  5390  002B32                     __end_of___flsub:
  5391                           	opt callstack 0
  5392                           
  5393 ;; *************** function ___fladd *****************
  5394 ;; Defined at:
  5395 ;;		line 10 in file "C:\Program Files (x86)\Microchip\xc8\v2.10\pic\sources\c99\common\sprcadd.c"
  5396 ;; Parameters:    Size  Location     Type
  5397 ;;  b               4    0[BANK0 ] unsigned int 
  5398 ;;  a               4    4[BANK0 ] unsigned int 
  5399 ;; Auto vars:     Size  Location     Type
  5400 ;;  grs             1   15[BANK0 ] unsigned char 
  5401 ;;  bexp            1   14[BANK0 ] unsigned char 
  5402 ;;  aexp            1   13[BANK0 ] unsigned char 
  5403 ;;  signs           1   12[BANK0 ] unsigned char 
  5404 ;; Return value:  Size  Location     Type
  5405 ;;                  4    0[BANK0 ] unsigned char 
  5406 ;; Registers used:
  5407 ;;		wreg, status,2, status,0
  5408 ;; Tracked objects:
  5409 ;;		On entry : 0/0
  5410 ;;		On exit  : 0/0
  5411 ;;		Unchanged: 0/0
  5412 ;; Data sizes:     COMRAM   BANK0   BANK1   BANK2   BANK3   BANK4   BANK5   BANK6   BANK7
  5413 ;;      Params:         0       8       0       0       0       0       0       0       0
  5414 ;;      Locals:         0       4       0       0       0       0       0       0       0
  5415 ;;      Temps:          0       4       0       0       0       0       0       0       0
  5416 ;;      Totals:         0      16       0       0       0       0       0       0       0
  5417 ;;Total ram usage:       16 bytes
  5418 ;; Hardware stack levels used:    1
  5419 ;; Hardware stack levels required when called:    5
  5420 ;; This function calls:
  5421 ;;		Nothing
  5422 ;; This function is called by:
  5423 ;;		___flsub
  5424 ;; This function uses a non-reentrant model
  5425 ;;
  5426                           
  5427                           	psect	text24
  5428  0004FA                     __ptext24:
  5429                           	opt callstack 0
  5430  0004FA                     ___fladd:
  5431                           	opt callstack 22
  5432  0004FA  0100               	movlb	0	; () banked
  5433  0004FC  5163               	movf	(___fladd@b+3)& (0+255),w,b
  5434  0004FE  0B80               	andlw	128
  5435  000500  6F6C               	movwf	___fladd@signs& (0+255),b
  5436  000502  5163               	movf	(___fladd@b+3)& (0+255),w,b
  5437  000504  2563               	addwf	(___fladd@b+3)& (0+255),w,b
  5438  000506  6F6E               	movwf	___fladd@bexp& (0+255),b
  5439  000508                     
  5440                           ; BSR set to: 0
  5441  000508  AF62               	btfss	(___fladd@b+2)& (0+255),7,b
  5442  00050A  EF89  F002         	goto	u3031
  5443  00050E  EF8B  F002         	goto	u3030
  5444  000512                     u3031:
  5445  000512  EF8C  F002         	goto	l3511
  5446  000516                     u3030:
  5447  000516                     
  5448                           ; BSR set to: 0
  5449  000516  816E               	bsf	___fladd@bexp& (0+255),0,b
  5450  000518                     l3511:
  5451                           
  5452                           ; BSR set to: 0
  5453  000518  516E               	movf	___fladd@bexp& (0+255),w,b
  5454  00051A  B4D8               	btfsc	status,2,c
  5455  00051C  EF92  F002         	goto	u3041
  5456  000520  EF94  F002         	goto	u3040
  5457  000524                     u3041:
  5458  000524  EFA9  F002         	goto	l3521
  5459  000528                     u3040:
  5460  000528                     
  5461                           ; BSR set to: 0
  5462  000528  296E               	incf	___fladd@bexp& (0+255),w,b
  5463  00052A  A4D8               	btfss	status,2,c
  5464  00052C  EF9A  F002         	goto	u3051
  5465  000530  EF9C  F002         	goto	u3050
  5466  000534                     u3051:
  5467  000534  EFA4  F002         	goto	l3517
  5468  000538                     u3050:
  5469  000538                     
  5470                           ; BSR set to: 0
  5471  000538  0E00               	movlw	0
  5472  00053A  6F60               	movwf	___fladd@b& (0+255),b
  5473  00053C  0E00               	movlw	0
  5474  00053E  6F61               	movwf	(___fladd@b+1)& (0+255),b
  5475  000540  0E00               	movlw	0
  5476  000542  6F62               	movwf	(___fladd@b+2)& (0+255),b
  5477  000544  0E00               	movlw	0
  5478  000546  6F63               	movwf	(___fladd@b+3)& (0+255),b
  5479  000548                     l3517:
  5480                           
  5481                           ; BSR set to: 0
  5482  000548  8F62               	bsf	(___fladd@b+2)& (0+255),7,b
  5483  00054A                     
  5484                           ; BSR set to: 0
  5485  00054A  0E00               	movlw	0
  5486  00054C  6F63               	movwf	(___fladd@b+3)& (0+255),b
  5487  00054E  EFB1  F002         	goto	l3523
  5488  000552                     l3521:
  5489                           
  5490                           ; BSR set to: 0
  5491  000552  0E00               	movlw	0
  5492  000554  6F60               	movwf	___fladd@b& (0+255),b
  5493  000556  0E00               	movlw	0
  5494  000558  6F61               	movwf	(___fladd@b+1)& (0+255),b
  5495  00055A  0E00               	movlw	0
  5496  00055C  6F62               	movwf	(___fladd@b+2)& (0+255),b
  5497  00055E  0E00               	movlw	0
  5498  000560  6F63               	movwf	(___fladd@b+3)& (0+255),b
  5499  000562                     l3523:
  5500                           
  5501                           ; BSR set to: 0
  5502  000562  5167               	movf	(___fladd@a+3)& (0+255),w,b
  5503  000564  0B80               	andlw	128
  5504  000566  6F6D               	movwf	___fladd@aexp& (0+255),b
  5505  000568                     
  5506                           ; BSR set to: 0
  5507  000568  516C               	movf	___fladd@signs& (0+255),w,b
  5508  00056A  196D               	xorwf	___fladd@aexp& (0+255),w,b
  5509  00056C  B4D8               	btfsc	status,2,c
  5510  00056E  EFBB  F002         	goto	u3061
  5511  000572  EFBD  F002         	goto	u3060
  5512  000576                     u3061:
  5513  000576  EFBE  F002         	goto	l3529
  5514  00057A                     u3060:
  5515  00057A                     
  5516                           ; BSR set to: 0
  5517  00057A  8D6C               	bsf	___fladd@signs& (0+255),6,b
  5518  00057C                     l3529:
  5519                           
  5520                           ; BSR set to: 0
  5521  00057C  5167               	movf	(___fladd@a+3)& (0+255),w,b
  5522  00057E  2567               	addwf	(___fladd@a+3)& (0+255),w,b
  5523  000580  6F6D               	movwf	___fladd@aexp& (0+255),b
  5524  000582                     
  5525                           ; BSR set to: 0
  5526  000582  AF66               	btfss	(___fladd@a+2)& (0+255),7,b
  5527  000584  EFC6  F002         	goto	u3071
  5528  000588  EFC8  F002         	goto	u3070
  5529  00058C                     u3071:
  5530  00058C  EFC9  F002         	goto	l3535
  5531  000590                     u3070:
  5532  000590                     
  5533                           ; BSR set to: 0
  5534  000590  816D               	bsf	___fladd@aexp& (0+255),0,b
  5535  000592                     l3535:
  5536                           
  5537                           ; BSR set to: 0
  5538  000592  516D               	movf	___fladd@aexp& (0+255),w,b
  5539  000594  B4D8               	btfsc	status,2,c
  5540  000596  EFCF  F002         	goto	u3081
  5541  00059A  EFD1  F002         	goto	u3080
  5542  00059E                     u3081:
  5543  00059E  EFE6  F002         	goto	l3545
  5544  0005A2                     u3080:
  5545  0005A2                     
  5546                           ; BSR set to: 0
  5547  0005A2  296D               	incf	___fladd@aexp& (0+255),w,b
  5548  0005A4  A4D8               	btfss	status,2,c
  5549  0005A6  EFD7  F002         	goto	u3091
  5550  0005AA  EFD9  F002         	goto	u3090
  5551  0005AE                     u3091:
  5552  0005AE  EFE1  F002         	goto	l3541
  5553  0005B2                     u3090:
  5554  0005B2                     
  5555                           ; BSR set to: 0
  5556  0005B2  0E00               	movlw	0
  5557  0005B4  6F64               	movwf	___fladd@a& (0+255),b
  5558  0005B6  0E00               	movlw	0
  5559  0005B8  6F65               	movwf	(___fladd@a+1)& (0+255),b
  5560  0005BA  0E00               	movlw	0
  5561  0005BC  6F66               	movwf	(___fladd@a+2)& (0+255),b
  5562  0005BE  0E00               	movlw	0
  5563  0005C0  6F67               	movwf	(___fladd@a+3)& (0+255),b
  5564  0005C2                     l3541:
  5565                           
  5566                           ; BSR set to: 0
  5567  0005C2  8F66               	bsf	(___fladd@a+2)& (0+255),7,b
  5568  0005C4                     
  5569                           ; BSR set to: 0
  5570  0005C4  0E00               	movlw	0
  5571  0005C6  6F67               	movwf	(___fladd@a+3)& (0+255),b
  5572  0005C8  EFEE  F002         	goto	l3547
  5573  0005CC                     l3545:
  5574                           
  5575                           ; BSR set to: 0
  5576  0005CC  0E00               	movlw	0
  5577  0005CE  6F64               	movwf	___fladd@a& (0+255),b
  5578  0005D0  0E00               	movlw	0
  5579  0005D2  6F65               	movwf	(___fladd@a+1)& (0+255),b
  5580  0005D4  0E00               	movlw	0
  5581  0005D6  6F66               	movwf	(___fladd@a+2)& (0+255),b
  5582  0005D8  0E00               	movlw	0
  5583  0005DA  6F67               	movwf	(___fladd@a+3)& (0+255),b
  5584  0005DC                     l3547:
  5585                           
  5586                           ; BSR set to: 0
  5587  0005DC  516E               	movf	___fladd@bexp& (0+255),w,b
  5588  0005DE  5D6D               	subwf	___fladd@aexp& (0+255),w,b
  5589  0005E0  B0D8               	btfsc	status,0,c
  5590  0005E2  EFF5  F002         	goto	u3101
  5591  0005E6  EFF7  F002         	goto	u3100
  5592  0005EA                     u3101:
  5593  0005EA  EF1E  F003         	goto	l3583
  5594  0005EE                     u3100:
  5595  0005EE                     
  5596                           ; BSR set to: 0
  5597  0005EE  AD6C               	btfss	___fladd@signs& (0+255),6,b
  5598  0005F0  EFFC  F002         	goto	u3111
  5599  0005F4  EFFE  F002         	goto	u3110
  5600  0005F8                     u3111:
  5601  0005F8  EF00  F003         	goto	l3553
  5602  0005FC                     u3110:
  5603  0005FC                     
  5604                           ; BSR set to: 0
  5605  0005FC  0E80               	movlw	128
  5606  0005FE  1B6C               	xorwf	___fladd@signs& (0+255),f,b
  5607  000600                     l3553:
  5608                           
  5609                           ; BSR set to: 0
  5610  000600  C06E  F06F         	movff	___fladd@bexp,___fladd@grs
  5611  000604                     
  5612                           ; BSR set to: 0
  5613  000604  C06D  F06E         	movff	___fladd@aexp,___fladd@bexp
  5614  000608                     
  5615                           ; BSR set to: 0
  5616  000608  C06F  F06D         	movff	___fladd@grs,___fladd@aexp
  5617  00060C                     
  5618                           ; BSR set to: 0
  5619  00060C  C060  F06F         	movff	___fladd@b,___fladd@grs
  5620  000610                     
  5621                           ; BSR set to: 0
  5622  000610  C064  F060         	movff	___fladd@a,___fladd@b
  5623  000614                     
  5624                           ; BSR set to: 0
  5625  000614  C06F  F064         	movff	___fladd@grs,___fladd@a
  5626  000618                     
  5627                           ; BSR set to: 0
  5628  000618  C061  F06F         	movff	___fladd@b+1,___fladd@grs
  5629  00061C                     
  5630                           ; BSR set to: 0
  5631  00061C  C065  F061         	movff	___fladd@a+1,___fladd@b+1
  5632  000620                     
  5633                           ; BSR set to: 0
  5634  000620  C06F  F065         	movff	___fladd@grs,___fladd@a+1
  5635  000624                     
  5636                           ; BSR set to: 0
  5637  000624  C062  F06F         	movff	___fladd@b+2,___fladd@grs
  5638  000628                     
  5639                           ; BSR set to: 0
  5640  000628  C066  F062         	movff	___fladd@a+2,___fladd@b+2
  5641  00062C                     
  5642                           ; BSR set to: 0
  5643  00062C  C06F  F066         	movff	___fladd@grs,___fladd@a+2
  5644  000630                     
  5645                           ; BSR set to: 0
  5646  000630  C063  F06F         	movff	___fladd@b+3,___fladd@grs
  5647  000634                     
  5648                           ; BSR set to: 0
  5649  000634  C067  F063         	movff	___fladd@a+3,___fladd@b+3
  5650  000638                     
  5651                           ; BSR set to: 0
  5652  000638  C06F  F067         	movff	___fladd@grs,___fladd@a+3
  5653  00063C                     l3583:
  5654                           
  5655                           ; BSR set to: 0
  5656  00063C  0E00               	movlw	0
  5657  00063E  6F6F               	movwf	___fladd@grs& (0+255),b
  5658  000640                     
  5659                           ; BSR set to: 0
  5660  000640  516E               	movf	___fladd@bexp& (0+255),w,b
  5661  000642  C06D  F068         	movff	___fladd@aexp,??___fladd
  5662  000646  6B69               	clrf	(??___fladd+1)& (0+255),b
  5663  000648  5F68               	subwf	??___fladd& (0+255),f,b
  5664  00064A  0E00               	movlw	0
  5665  00064C  5B69               	subwfb	(??___fladd+1)& (0+255),f,b
  5666  00064E  BF69               	btfsc	(??___fladd+1)& (0+255),7,b
  5667  000650  EF33  F003         	goto	u3121
  5668  000654  5169               	movf	(??___fladd+1)& (0+255),w,b
  5669  000656  E109               	bnz	u3120
  5670  000658  0E1A               	movlw	26
  5671  00065A  5D68               	subwf	??___fladd& (0+255),w,b
  5672  00065C  A0D8               	btfss	status,0,c
  5673  00065E  EF33  F003         	goto	u3121
  5674  000662  EF35  F003         	goto	u3120
  5675  000666                     u3121:
  5676  000666  EF6C  F003         	goto	l1314
  5677  00066A                     u3120:
  5678  00066A                     
  5679                           ; BSR set to: 0
  5680  00066A  5160               	movf	___fladd@b& (0+255),w,b
  5681  00066C  1161               	iorwf	(___fladd@b+1)& (0+255),w,b
  5682  00066E  1162               	iorwf	(___fladd@b+2)& (0+255),w,b
  5683  000670  1163               	iorwf	(___fladd@b+3)& (0+255),w,b
  5684  000672  A4D8               	btfss	status,2,c
  5685  000674  EF3E  F003         	goto	u3131
  5686  000678  EF41  F003         	goto	u3130
  5687  00067C                     u3131:
  5688  00067C  0E01               	movlw	1
  5689  00067E  EF42  F003         	goto	u3140
  5690  000682                     u3130:
  5691  000682  0E00               	movlw	0
  5692  000684                     u3140:
  5693  000684  6F6F               	movwf	___fladd@grs& (0+255),b
  5694  000686                     
  5695                           ; BSR set to: 0
  5696  000686  0E00               	movlw	0
  5697  000688  6F60               	movwf	___fladd@b& (0+255),b
  5698  00068A  0E00               	movlw	0
  5699  00068C  6F61               	movwf	(___fladd@b+1)& (0+255),b
  5700  00068E  0E00               	movlw	0
  5701  000690  6F62               	movwf	(___fladd@b+2)& (0+255),b
  5702  000692  0E00               	movlw	0
  5703  000694  6F63               	movwf	(___fladd@b+3)& (0+255),b
  5704  000696                     
  5705                           ; BSR set to: 0
  5706  000696  C06D  F06E         	movff	___fladd@aexp,___fladd@bexp
  5707  00069A  EF75  F003         	goto	l1313
  5708  00069E                     l1315:
  5709                           
  5710                           ; BSR set to: 0
  5711  00069E  A16F               	btfss	___fladd@grs& (0+255),0,b
  5712  0006A0  EF54  F003         	goto	u3151
  5713  0006A4  EF56  F003         	goto	u3150
  5714  0006A8                     u3151:
  5715  0006A8  EF5C  F003         	goto	l3595
  5716  0006AC                     u3150:
  5717  0006AC                     
  5718                           ; BSR set to: 0
  5719  0006AC  90D8               	bcf	status,0,c
  5720  0006AE  316F               	rrcf	___fladd@grs& (0+255),w,b
  5721  0006B0  0901               	iorlw	1
  5722  0006B2  6F6F               	movwf	___fladd@grs& (0+255),b
  5723  0006B4  EF5E  F003         	goto	l3597
  5724  0006B8                     l3595:
  5725                           
  5726                           ; BSR set to: 0
  5727  0006B8  90D8               	bcf	status,0,c
  5728  0006BA  336F               	rrcf	___fladd@grs& (0+255),f,b
  5729  0006BC                     l3597:
  5730                           
  5731                           ; BSR set to: 0
  5732  0006BC  A160               	btfss	___fladd@b& (0+255),0,b
  5733  0006BE  EF63  F003         	goto	u3161
  5734  0006C2  EF65  F003         	goto	u3160
  5735  0006C6                     u3161:
  5736  0006C6  EF66  F003         	goto	l3601
  5737  0006CA                     u3160:
  5738  0006CA                     
  5739                           ; BSR set to: 0
  5740  0006CA  8F6F               	bsf	___fladd@grs& (0+255),7,b
  5741  0006CC                     l3601:
  5742                           
  5743                           ; BSR set to: 0
  5744  0006CC  3563               	rlcf	(___fladd@b+3)& (0+255),w,b
  5745  0006CE  3363               	rrcf	(___fladd@b+3)& (0+255),f,b
  5746  0006D0  3362               	rrcf	(___fladd@b+2)& (0+255),f,b
  5747  0006D2  3361               	rrcf	(___fladd@b+1)& (0+255),f,b
  5748  0006D4  3360               	rrcf	___fladd@b& (0+255),f,b
  5749  0006D6                     
  5750                           ; BSR set to: 0
  5751  0006D6  2B6E               	incf	___fladd@bexp& (0+255),f,b
  5752  0006D8                     l1314:
  5753                           
  5754                           ; BSR set to: 0
  5755  0006D8  516D               	movf	___fladd@aexp& (0+255),w,b
  5756  0006DA  5D6E               	subwf	___fladd@bexp& (0+255),w,b
  5757  0006DC  A0D8               	btfss	status,0,c
  5758  0006DE  EF73  F003         	goto	u3171
  5759  0006E2  EF75  F003         	goto	u3170
  5760  0006E6                     u3171:
  5761  0006E6  EF4F  F003         	goto	l1315
  5762  0006EA                     u3170:
  5763  0006EA                     l1313:
  5764                           
  5765                           ; BSR set to: 0
  5766  0006EA  BD6C               	btfsc	___fladd@signs& (0+255),6,b
  5767  0006EC  EF7A  F003         	goto	u3181
  5768  0006F0  EF7C  F003         	goto	u3180
  5769  0006F4                     u3181:
  5770  0006F4  EFBC  F003         	goto	l3629
  5771  0006F8                     u3180:
  5772  0006F8                     
  5773                           ; BSR set to: 0
  5774  0006F8  516E               	movf	___fladd@bexp& (0+255),w,b
  5775  0006FA  A4D8               	btfss	status,2,c
  5776  0006FC  EF82  F003         	goto	u3191
  5777  000700  EF84  F003         	goto	u3190
  5778  000704                     u3191:
  5779  000704  EF8E  F003         	goto	l3611
  5780  000708                     u3190:
  5781  000708                     
  5782                           ; BSR set to: 0
  5783  000708  0E00               	movlw	0
  5784  00070A  6F60               	movwf	?___fladd& (0+255),b
  5785  00070C  0E00               	movlw	0
  5786  00070E  6F61               	movwf	(?___fladd+1)& (0+255),b
  5787  000710  0E00               	movlw	0
  5788  000712  6F62               	movwf	(?___fladd+2)& (0+255),b
  5789  000714  0E00               	movlw	0
  5790  000716  6F63               	movwf	(?___fladd+3)& (0+255),b
  5791  000718  EFDD  F004         	goto	l1322
  5792  00071C                     l3611:
  5793                           
  5794                           ; BSR set to: 0
  5795  00071C  5164               	movf	___fladd@a& (0+255),w,b
  5796  00071E  2760               	addwf	___fladd@b& (0+255),f,b
  5797  000720  5165               	movf	(___fladd@a+1)& (0+255),w,b
  5798  000722  2361               	addwfc	(___fladd@b+1)& (0+255),f,b
  5799  000724  5166               	movf	(___fladd@a+2)& (0+255),w,b
  5800  000726  2362               	addwfc	(___fladd@b+2)& (0+255),f,b
  5801  000728  5167               	movf	(___fladd@a+3)& (0+255),w,b
  5802  00072A  2363               	addwfc	(___fladd@b+3)& (0+255),f,b
  5803  00072C                     
  5804                           ; BSR set to: 0
  5805  00072C  A163               	btfss	(___fladd@b+3)& (0+255),0,b
  5806  00072E  EF9B  F003         	goto	u3201
  5807  000732  EF9D  F003         	goto	u3200
  5808  000736                     u3201:
  5809  000736  EF49  F004         	goto	l3665
  5810  00073A                     u3200:
  5811  00073A                     
  5812                           ; BSR set to: 0
  5813  00073A  A16F               	btfss	___fladd@grs& (0+255),0,b
  5814  00073C  EFA2  F003         	goto	u3211
  5815  000740  EFA4  F003         	goto	u3210
  5816  000744                     u3211:
  5817  000744  EFAA  F003         	goto	l3619
  5818  000748                     u3210:
  5819  000748                     
  5820                           ; BSR set to: 0
  5821  000748  90D8               	bcf	status,0,c
  5822  00074A  316F               	rrcf	___fladd@grs& (0+255),w,b
  5823  00074C  0901               	iorlw	1
  5824  00074E  6F6F               	movwf	___fladd@grs& (0+255),b
  5825  000750  EFAC  F003         	goto	l3621
  5826  000754                     l3619:
  5827                           
  5828                           ; BSR set to: 0
  5829  000754  90D8               	bcf	status,0,c
  5830  000756  336F               	rrcf	___fladd@grs& (0+255),f,b
  5831  000758                     l3621:
  5832                           
  5833                           ; BSR set to: 0
  5834  000758  A160               	btfss	___fladd@b& (0+255),0,b
  5835  00075A  EFB1  F003         	goto	u3221
  5836  00075E  EFB3  F003         	goto	u3220
  5837  000762                     u3221:
  5838  000762  EFB4  F003         	goto	l3625
  5839  000766                     u3220:
  5840  000766                     
  5841                           ; BSR set to: 0
  5842  000766  8F6F               	bsf	___fladd@grs& (0+255),7,b
  5843  000768                     l3625:
  5844                           
  5845                           ; BSR set to: 0
  5846  000768  3563               	rlcf	(___fladd@b+3)& (0+255),w,b
  5847  00076A  3363               	rrcf	(___fladd@b+3)& (0+255),f,b
  5848  00076C  3362               	rrcf	(___fladd@b+2)& (0+255),f,b
  5849  00076E  3361               	rrcf	(___fladd@b+1)& (0+255),f,b
  5850  000770  3360               	rrcf	___fladd@b& (0+255),f,b
  5851  000772                     
  5852                           ; BSR set to: 0
  5853  000772  2B6E               	incf	___fladd@bexp& (0+255),f,b
  5854  000774  EF49  F004         	goto	l3665
  5855  000778                     l3629:
  5856                           
  5857                           ; BSR set to: 0
  5858  000778  5164               	movf	___fladd@a& (0+255),w,b
  5859  00077A  5D60               	subwf	___fladd@b& (0+255),w,b
  5860  00077C  5165               	movf	(___fladd@a+1)& (0+255),w,b
  5861  00077E  5961               	subwfb	(___fladd@b+1)& (0+255),w,b
  5862  000780  5166               	movf	(___fladd@a+2)& (0+255),w,b
  5863  000782  5962               	subwfb	(___fladd@b+2)& (0+255),w,b
  5864  000784  5163               	movf	(___fladd@b+3)& (0+255),w,b
  5865  000786  0A80               	xorlw	128
  5866  000788  6F68               	movwf	??___fladd& (0+255),b
  5867  00078A  5167               	movf	(___fladd@a+3)& (0+255),w,b
  5868  00078C  0A80               	xorlw	128
  5869  00078E  5968               	subwfb	??___fladd& (0+255),w,b
  5870  000790  B0D8               	btfsc	status,0,c
  5871  000792  EFCD  F003         	goto	u3231
  5872  000796  EFCF  F003         	goto	u3230
  5873  00079A                     u3231:
  5874  00079A  EFFA  F003         	goto	l3639
  5875  00079E                     u3230:
  5876  00079E                     
  5877                           ; BSR set to: 0
  5878  00079E  5160               	movf	___fladd@b& (0+255),w,b
  5879  0007A0  5D64               	subwf	___fladd@a& (0+255),w,b
  5880  0007A2  6F68               	movwf	??___fladd& (0+255),b
  5881  0007A4  5161               	movf	(___fladd@b+1)& (0+255),w,b
  5882  0007A6  5965               	subwfb	(___fladd@a+1)& (0+255),w,b
  5883  0007A8  6F69               	movwf	(??___fladd+1)& (0+255),b
  5884  0007AA  5162               	movf	(___fladd@b+2)& (0+255),w,b
  5885  0007AC  5966               	subwfb	(___fladd@a+2)& (0+255),w,b
  5886  0007AE  6F6A               	movwf	(??___fladd+2)& (0+255),b
  5887  0007B0  5163               	movf	(___fladd@b+3)& (0+255),w,b
  5888  0007B2  5967               	subwfb	(___fladd@a+3)& (0+255),w,b
  5889  0007B4  6F6B               	movwf	(??___fladd+3)& (0+255),b
  5890  0007B6  0EFF               	movlw	255
  5891  0007B8  2568               	addwf	??___fladd& (0+255),w,b
  5892  0007BA  6F60               	movwf	___fladd@b& (0+255),b
  5893  0007BC  0EFF               	movlw	255
  5894  0007BE  2169               	addwfc	(??___fladd+1)& (0+255),w,b
  5895  0007C0  6F61               	movwf	(___fladd@b+1)& (0+255),b
  5896  0007C2  0EFF               	movlw	255
  5897  0007C4  216A               	addwfc	(??___fladd+2)& (0+255),w,b
  5898  0007C6  6F62               	movwf	(___fladd@b+2)& (0+255),b
  5899  0007C8  0EFF               	movlw	255
  5900  0007CA  216B               	addwfc	(??___fladd+3)& (0+255),w,b
  5901  0007CC  6F63               	movwf	(___fladd@b+3)& (0+255),b
  5902  0007CE  0E80               	movlw	128
  5903  0007D0  1B6C               	xorwf	___fladd@signs& (0+255),f,b
  5904  0007D2                     
  5905                           ; BSR set to: 0
  5906  0007D2  6D6F               	negf	___fladd@grs& (0+255),b
  5907  0007D4                     
  5908                           ; BSR set to: 0
  5909  0007D4  516F               	movf	___fladd@grs& (0+255),w,b
  5910  0007D6  A4D8               	btfss	status,2,c
  5911  0007D8  EFF0  F003         	goto	u3241
  5912  0007DC  EFF2  F003         	goto	u3240
  5913  0007E0                     u3241:
  5914  0007E0  EF02  F004         	goto	l1330
  5915  0007E4                     u3240:
  5916  0007E4                     
  5917                           ; BSR set to: 0
  5918  0007E4  0E01               	movlw	1
  5919  0007E6  2760               	addwf	___fladd@b& (0+255),f,b
  5920  0007E8  0E00               	movlw	0
  5921  0007EA  2361               	addwfc	(___fladd@b+1)& (0+255),f,b
  5922  0007EC  2362               	addwfc	(___fladd@b+2)& (0+255),f,b
  5923  0007EE  2363               	addwfc	(___fladd@b+3)& (0+255),f,b
  5924  0007F0  EF02  F004         	goto	l1330
  5925  0007F4                     l3639:
  5926                           
  5927                           ; BSR set to: 0
  5928  0007F4  5164               	movf	___fladd@a& (0+255),w,b
  5929  0007F6  5F60               	subwf	___fladd@b& (0+255),f,b
  5930  0007F8  5165               	movf	(___fladd@a+1)& (0+255),w,b
  5931  0007FA  5B61               	subwfb	(___fladd@b+1)& (0+255),f,b
  5932  0007FC  5166               	movf	(___fladd@a+2)& (0+255),w,b
  5933  0007FE  5B62               	subwfb	(___fladd@b+2)& (0+255),f,b
  5934  000800  5167               	movf	(___fladd@a+3)& (0+255),w,b
  5935  000802  5B63               	subwfb	(___fladd@b+3)& (0+255),f,b
  5936  000804                     l1330:
  5937                           
  5938                           ; BSR set to: 0
  5939  000804  5160               	movf	___fladd@b& (0+255),w,b
  5940  000806  1161               	iorwf	(___fladd@b+1)& (0+255),w,b
  5941  000808  1162               	iorwf	(___fladd@b+2)& (0+255),w,b
  5942  00080A  1163               	iorwf	(___fladd@b+3)& (0+255),w,b
  5943  00080C  A4D8               	btfss	status,2,c
  5944  00080E  EF0B  F004         	goto	u3251
  5945  000812  EF0D  F004         	goto	u3250
  5946  000816                     u3251:
  5947  000816  EF42  F004         	goto	l3663
  5948  00081A                     u3250:
  5949  00081A                     
  5950                           ; BSR set to: 0
  5951  00081A  516F               	movf	___fladd@grs& (0+255),w,b
  5952  00081C  A4D8               	btfss	status,2,c
  5953  00081E  EF13  F004         	goto	u3261
  5954  000822  EF15  F004         	goto	u3260
  5955  000826                     u3261:
  5956  000826  EF42  F004         	goto	l3663
  5957  00082A                     u3260:
  5958  00082A                     
  5959                           ; BSR set to: 0
  5960  00082A  0E00               	movlw	0
  5961  00082C  6F60               	movwf	?___fladd& (0+255),b
  5962  00082E  0E00               	movlw	0
  5963  000830  6F61               	movwf	(?___fladd+1)& (0+255),b
  5964  000832  0E00               	movlw	0
  5965  000834  6F62               	movwf	(?___fladd+2)& (0+255),b
  5966  000836  0E00               	movlw	0
  5967  000838  6F63               	movwf	(?___fladd+3)& (0+255),b
  5968  00083A  EFDD  F004         	goto	l1322
  5969  00083E                     l3647:
  5970                           
  5971                           ; BSR set to: 0
  5972  00083E  90D8               	bcf	status,0,c
  5973  000840  3760               	rlcf	___fladd@b& (0+255),f,b
  5974  000842  3761               	rlcf	(___fladd@b+1)& (0+255),f,b
  5975  000844  3762               	rlcf	(___fladd@b+2)& (0+255),f,b
  5976  000846  3763               	rlcf	(___fladd@b+3)& (0+255),f,b
  5977  000848                     
  5978                           ; BSR set to: 0
  5979  000848  AF6F               	btfss	___fladd@grs& (0+255),7,b
  5980  00084A  EF29  F004         	goto	u3271
  5981  00084E  EF2B  F004         	goto	u3270
  5982  000852                     u3271:
  5983  000852  EF2C  F004         	goto	l3653
  5984  000856                     u3270:
  5985  000856                     
  5986                           ; BSR set to: 0
  5987  000856  8160               	bsf	___fladd@b& (0+255),0,b
  5988  000858                     l3653:
  5989                           
  5990                           ; BSR set to: 0
  5991  000858  A16F               	btfss	___fladd@grs& (0+255),0,b
  5992  00085A  EF31  F004         	goto	u3281
  5993  00085E  EF33  F004         	goto	u3280
  5994  000862                     u3281:
  5995  000862  EF37  F004         	goto	l3657
  5996  000866                     u3280:
  5997  000866                     
  5998                           ; BSR set to: 0
  5999  000866  80D8               	bsf	status,0,c
  6000  000868  376F               	rlcf	___fladd@grs& (0+255),f,b
  6001  00086A  EF39  F004         	goto	l3659
  6002  00086E                     l3657:
  6003                           
  6004                           ; BSR set to: 0
  6005  00086E  90D8               	bcf	status,0,c
  6006  000870  376F               	rlcf	___fladd@grs& (0+255),f,b
  6007  000872                     l3659:
  6008                           
  6009                           ; BSR set to: 0
  6010  000872  516E               	movf	___fladd@bexp& (0+255),w,b
  6011  000874  B4D8               	btfsc	status,2,c
  6012  000876  EF3F  F004         	goto	u3291
  6013  00087A  EF41  F004         	goto	u3290
  6014  00087E                     u3291:
  6015  00087E  EF42  F004         	goto	l3663
  6016  000882                     u3290:
  6017  000882                     
  6018                           ; BSR set to: 0
  6019  000882  076E               	decf	___fladd@bexp& (0+255),f,b
  6020  000884                     l3663:
  6021                           
  6022                           ; BSR set to: 0
  6023  000884  AF62               	btfss	(___fladd@b+2)& (0+255),7,b
  6024  000886  EF47  F004         	goto	u3301
  6025  00088A  EF49  F004         	goto	u3300
  6026  00088E                     u3301:
  6027  00088E  EF1F  F004         	goto	l3647
  6028  000892                     u3300:
  6029  000892                     l3665:
  6030                           
  6031                           ; BSR set to: 0
  6032  000892  0E00               	movlw	0
  6033  000894  6F6D               	movwf	___fladd@aexp& (0+255),b
  6034  000896                     
  6035                           ; BSR set to: 0
  6036  000896  AF6F               	btfss	___fladd@grs& (0+255),7,b
  6037  000898  EF50  F004         	goto	u3311
  6038  00089C  EF52  F004         	goto	u3310
  6039  0008A0                     u3311:
  6040  0008A0  EF6A  F004         	goto	l1339
  6041  0008A4                     u3310:
  6042  0008A4                     
  6043                           ; BSR set to: 0
  6044  0008A4  C06F  F068         	movff	___fladd@grs,??___fladd
  6045  0008A8  0E7F               	movlw	127
  6046  0008AA  1768               	andwf	??___fladd& (0+255),f,b
  6047  0008AC  B4D8               	btfsc	status,2,c
  6048  0008AE  EF5B  F004         	goto	u3321
  6049  0008B2  EF5D  F004         	goto	u3320
  6050  0008B6                     u3321:
  6051  0008B6  EF61  F004         	goto	l1340
  6052  0008BA                     u3320:
  6053  0008BA                     l3671:
  6054                           
  6055                           ; BSR set to: 0
  6056  0008BA  0E01               	movlw	1
  6057  0008BC  6F6D               	movwf	___fladd@aexp& (0+255),b
  6058  0008BE  EF6A  F004         	goto	l1339
  6059  0008C2                     l1340:
  6060                           
  6061                           ; BSR set to: 0
  6062  0008C2  A160               	btfss	___fladd@b& (0+255),0,b
  6063  0008C4  EF66  F004         	goto	u3331
  6064  0008C8  EF68  F004         	goto	u3330
  6065  0008CC                     u3331:
  6066  0008CC  EF6A  F004         	goto	l1339
  6067  0008D0                     u3330:
  6068  0008D0  EF5D  F004         	goto	l3671
  6069  0008D4                     l1339:
  6070                           
  6071                           ; BSR set to: 0
  6072  0008D4  516D               	movf	___fladd@aexp& (0+255),w,b
  6073  0008D6  B4D8               	btfsc	status,2,c
  6074  0008D8  EF70  F004         	goto	u3341
  6075  0008DC  EF72  F004         	goto	u3340
  6076  0008E0                     u3341:
  6077  0008E0  EF9D  F004         	goto	l3683
  6078  0008E4                     u3340:
  6079  0008E4                     
  6080                           ; BSR set to: 0
  6081  0008E4  0E01               	movlw	1
  6082  0008E6  2760               	addwf	___fladd@b& (0+255),f,b
  6083  0008E8  0E00               	movlw	0
  6084  0008EA  2361               	addwfc	(___fladd@b+1)& (0+255),f,b
  6085  0008EC  2362               	addwfc	(___fladd@b+2)& (0+255),f,b
  6086  0008EE  2363               	addwfc	(___fladd@b+3)& (0+255),f,b
  6087  0008F0                     
  6088                           ; BSR set to: 0
  6089  0008F0  A163               	btfss	(___fladd@b+3)& (0+255),0,b
  6090  0008F2  EF7D  F004         	goto	u3351
  6091  0008F6  EF7F  F004         	goto	u3350
  6092  0008FA                     u3351:
  6093  0008FA  EF9D  F004         	goto	l3683
  6094  0008FE                     u3350:
  6095  0008FE                     
  6096                           ; BSR set to: 0
  6097  0008FE  C060  F068         	movff	___fladd@b,??___fladd
  6098  000902  C061  F069         	movff	___fladd@b+1,??___fladd+1
  6099  000906  C062  F06A         	movff	___fladd@b+2,??___fladd+2
  6100  00090A  C063  F06B         	movff	___fladd@b+3,??___fladd+3
  6101  00090E  356B               	rlcf	(??___fladd+3)& (0+255),w,b
  6102  000910  336B               	rrcf	(??___fladd+3)& (0+255),f,b
  6103  000912  336A               	rrcf	(??___fladd+2)& (0+255),f,b
  6104  000914  3369               	rrcf	(??___fladd+1)& (0+255),f,b
  6105  000916  3368               	rrcf	??___fladd& (0+255),f,b
  6106  000918  C068  F060         	movff	??___fladd,___fladd@b
  6107  00091C  C069  F061         	movff	??___fladd+1,___fladd@b+1
  6108  000920  C06A  F062         	movff	??___fladd+2,___fladd@b+2
  6109  000924  C06B  F063         	movff	??___fladd+3,___fladd@b+3
  6110  000928  296E               	incf	___fladd@bexp& (0+255),w,b
  6111  00092A  B4D8               	btfsc	status,2,c
  6112  00092C  EF9A  F004         	goto	u3361
  6113  000930  EF9C  F004         	goto	u3360
  6114  000934                     u3361:
  6115  000934  EF9D  F004         	goto	l3683
  6116  000938                     u3360:
  6117  000938                     
  6118                           ; BSR set to: 0
  6119  000938  2B6E               	incf	___fladd@bexp& (0+255),f,b
  6120  00093A                     l3683:
  6121                           
  6122                           ; BSR set to: 0
  6123  00093A  296E               	incf	___fladd@bexp& (0+255),w,b
  6124  00093C  B4D8               	btfsc	status,2,c
  6125  00093E  EFA3  F004         	goto	u3371
  6126  000942  EFA5  F004         	goto	u3370
  6127  000946                     u3371:
  6128  000946  EFAD  F004         	goto	l3687
  6129  00094A                     u3370:
  6130  00094A                     
  6131                           ; BSR set to: 0
  6132  00094A  516E               	movf	___fladd@bexp& (0+255),w,b
  6133  00094C  A4D8               	btfss	status,2,c
  6134  00094E  EFAB  F004         	goto	u3381
  6135  000952  EFAD  F004         	goto	u3380
  6136  000956                     u3381:
  6137  000956  EFBF  F004         	goto	l3691
  6138  00095A                     u3380:
  6139  00095A                     l3687:
  6140                           
  6141                           ; BSR set to: 0
  6142  00095A  0E00               	movlw	0
  6143  00095C  6F60               	movwf	___fladd@b& (0+255),b
  6144  00095E  0E00               	movlw	0
  6145  000960  6F61               	movwf	(___fladd@b+1)& (0+255),b
  6146  000962  0E00               	movlw	0
  6147  000964  6F62               	movwf	(___fladd@b+2)& (0+255),b
  6148  000966  0E00               	movlw	0
  6149  000968  6F63               	movwf	(___fladd@b+3)& (0+255),b
  6150  00096A  516E               	movf	___fladd@bexp& (0+255),w,b
  6151  00096C  A4D8               	btfss	status,2,c
  6152  00096E  EFBB  F004         	goto	u3391
  6153  000972  EFBD  F004         	goto	u3390
  6154  000976                     u3391:
  6155  000976  EFBF  F004         	goto	l3691
  6156  00097A                     u3390:
  6157  00097A                     
  6158                           ; BSR set to: 0
  6159  00097A  0E00               	movlw	0
  6160  00097C  6F6C               	movwf	___fladd@signs& (0+255),b
  6161  00097E                     l3691:
  6162                           
  6163                           ; BSR set to: 0
  6164  00097E  A16E               	btfss	___fladd@bexp& (0+255),0,b
  6165  000980  EFC4  F004         	goto	u3401
  6166  000984  EFC6  F004         	goto	u3400
  6167  000988                     u3401:
  6168  000988  EFC9  F004         	goto	l3695
  6169  00098C                     u3400:
  6170  00098C                     
  6171                           ; BSR set to: 0
  6172  00098C  8F62               	bsf	(___fladd@b+2)& (0+255),7,b
  6173  00098E  EFCA  F004         	goto	l3697
  6174  000992                     l3695:
  6175                           
  6176                           ; BSR set to: 0
  6177  000992  9F62               	bcf	(___fladd@b+2)& (0+255),7,b
  6178  000994                     l3697:
  6179                           
  6180                           ; BSR set to: 0
  6181  000994  90D8               	bcf	status,0,c
  6182  000996  316E               	rrcf	___fladd@bexp& (0+255),w,b
  6183  000998  6F63               	movwf	(___fladd@b+3)& (0+255),b
  6184  00099A                     
  6185                           ; BSR set to: 0
  6186  00099A  AF6C               	btfss	___fladd@signs& (0+255),7,b
  6187  00099C  EFD2  F004         	goto	u3411
  6188  0009A0  EFD4  F004         	goto	u3410
  6189  0009A4                     u3411:
  6190  0009A4  EFD5  F004         	goto	l3703
  6191  0009A8                     u3410:
  6192  0009A8                     
  6193                           ; BSR set to: 0
  6194  0009A8  8F63               	bsf	(___fladd@b+3)& (0+255),7,b
  6195  0009AA                     l3703:
  6196                           
  6197                           ; BSR set to: 0
  6198  0009AA  C060  F060         	movff	___fladd@b,?___fladd
  6199  0009AE  C061  F061         	movff	___fladd@b+1,?___fladd+1
  6200  0009B2  C062  F062         	movff	___fladd@b+2,?___fladd+2
  6201  0009B6  C063  F063         	movff	___fladd@b+3,?___fladd+3
  6202  0009BA                     l1322:
  6203                           
  6204                           ; BSR set to: 0
  6205  0009BA  0012               	return		;funcret
  6206  0009BC                     __end_of___fladd:
  6207                           	opt callstack 0
  6208                           
  6209 ;; *************** function ___flge *****************
  6210 ;; Defined at:
  6211 ;;		line 4 in file "C:\Program Files (x86)\Microchip\xc8\v2.10\pic\sources\c99\common\flge.c"
  6212 ;; Parameters:    Size  Location     Type
  6213 ;;  ff1             4   28[BANK0 ] unsigned char 
  6214 ;;  ff2             4   32[BANK0 ] unsigned char 
  6215 ;; Auto vars:     Size  Location     Type
  6216 ;;		None
  6217 ;; Return value:  Size  Location     Type
  6218 ;;		None               void
  6219 ;; Registers used:
  6220 ;;		wreg, status,2, status,0
  6221 ;; Tracked objects:
  6222 ;;		On entry : 0/0
  6223 ;;		On exit  : 0/0
  6224 ;;		Unchanged: 0/0
  6225 ;; Data sizes:     COMRAM   BANK0   BANK1   BANK2   BANK3   BANK4   BANK5   BANK6   BANK7
  6226 ;;      Params:         0       8       0       0       0       0       0       0       0
  6227 ;;      Locals:         0       0       0       0       0       0       0       0       0
  6228 ;;      Temps:          0       4       0       0       0       0       0       0       0
  6229 ;;      Totals:         0      12       0       0       0       0       0       0       0
  6230 ;;Total ram usage:       12 bytes
  6231 ;; Hardware stack levels used:    1
  6232 ;; Hardware stack levels required when called:    5
  6233 ;; This function calls:
  6234 ;;		Nothing
  6235 ;; This function is called by:
  6236 ;;		_Conversion
  6237 ;; This function uses a non-reentrant model
  6238 ;;
  6239                           
  6240                           	psect	text25
  6241  001FD8                     __ptext25:
  6242                           	opt callstack 0
  6243  001FD8                     ___flge:
  6244                           	opt callstack 23
  6245  001FD8  0E00               	movlw	0
  6246  001FDA  0100               	movlb	0	; () banked
  6247  001FDC  157C               	andwf	___flge@ff1& (0+255),w,b
  6248  001FDE  6F84               	movwf	??___flge& (0+255),b
  6249  001FE0  0E00               	movlw	0
  6250  001FE2  157D               	andwf	(___flge@ff1+1)& (0+255),w,b
  6251  001FE4  6F85               	movwf	(??___flge+1)& (0+255),b
  6252  001FE6  0E80               	movlw	128
  6253  001FE8  157E               	andwf	(___flge@ff1+2)& (0+255),w,b
  6254  001FEA  6F86               	movwf	(??___flge+2)& (0+255),b
  6255  001FEC  0E7F               	movlw	127
  6256  001FEE  157F               	andwf	(___flge@ff1+3)& (0+255),w,b
  6257  001FF0  6F87               	movwf	(??___flge+3)& (0+255),b
  6258  001FF2  5184               	movf	??___flge& (0+255),w,b
  6259  001FF4  1185               	iorwf	(??___flge+1)& (0+255),w,b
  6260  001FF6  1186               	iorwf	(??___flge+2)& (0+255),w,b
  6261  001FF8  1187               	iorwf	(??___flge+3)& (0+255),w,b
  6262  001FFA  A4D8               	btfss	status,2,c
  6263  001FFC  EF02  F010         	goto	u3501
  6264  002000  EF04  F010         	goto	u3500
  6265  002004                     u3501:
  6266  002004  EF0C  F010         	goto	l3783
  6267  002008                     u3500:
  6268  002008                     
  6269                           ; BSR set to: 0
  6270  002008  0E00               	movlw	0
  6271  00200A  6F7C               	movwf	___flge@ff1& (0+255),b
  6272  00200C  0E00               	movlw	0
  6273  00200E  6F7D               	movwf	(___flge@ff1+1)& (0+255),b
  6274  002010  0E00               	movlw	0
  6275  002012  6F7E               	movwf	(___flge@ff1+2)& (0+255),b
  6276  002014  0E00               	movlw	0
  6277  002016  6F7F               	movwf	(___flge@ff1+3)& (0+255),b
  6278  002018                     l3783:
  6279                           
  6280                           ; BSR set to: 0
  6281  002018  0E00               	movlw	0
  6282  00201A  1580               	andwf	___flge@ff2& (0+255),w,b
  6283  00201C  6F84               	movwf	??___flge& (0+255),b
  6284  00201E  0E00               	movlw	0
  6285  002020  1581               	andwf	(___flge@ff2+1)& (0+255),w,b
  6286  002022  6F85               	movwf	(??___flge+1)& (0+255),b
  6287  002024  0E80               	movlw	128
  6288  002026  1582               	andwf	(___flge@ff2+2)& (0+255),w,b
  6289  002028  6F86               	movwf	(??___flge+2)& (0+255),b
  6290  00202A  0E7F               	movlw	127
  6291  00202C  1583               	andwf	(___flge@ff2+3)& (0+255),w,b
  6292  00202E  6F87               	movwf	(??___flge+3)& (0+255),b
  6293  002030  5184               	movf	??___flge& (0+255),w,b
  6294  002032  1185               	iorwf	(??___flge+1)& (0+255),w,b
  6295  002034  1186               	iorwf	(??___flge+2)& (0+255),w,b
  6296  002036  1187               	iorwf	(??___flge+3)& (0+255),w,b
  6297  002038  A4D8               	btfss	status,2,c
  6298  00203A  EF21  F010         	goto	u3511
  6299  00203E  EF23  F010         	goto	u3510
  6300  002042                     u3511:
  6301  002042  EF2B  F010         	goto	l3787
  6302  002046                     u3510:
  6303  002046                     
  6304                           ; BSR set to: 0
  6305  002046  0E00               	movlw	0
  6306  002048  6F80               	movwf	___flge@ff2& (0+255),b
  6307  00204A  0E00               	movlw	0
  6308  00204C  6F81               	movwf	(___flge@ff2+1)& (0+255),b
  6309  00204E  0E00               	movlw	0
  6310  002050  6F82               	movwf	(___flge@ff2+2)& (0+255),b
  6311  002052  0E00               	movlw	0
  6312  002054  6F83               	movwf	(___flge@ff2+3)& (0+255),b
  6313  002056                     l3787:
  6314                           
  6315                           ; BSR set to: 0
  6316  002056  AF7F               	btfss	(___flge@ff1+3)& (0+255),7,b
  6317  002058  EF30  F010         	goto	u3521
  6318  00205C  EF32  F010         	goto	u3520
  6319  002060                     u3521:
  6320  002060  EF3B  F010         	goto	l3791
  6321  002064                     u3520:
  6322  002064                     
  6323                           ; BSR set to: 0
  6324  002064  6D7C               	negf	___flge@ff1& (0+255),b
  6325  002066  1F7D               	comf	(___flge@ff1+1)& (0+255),f,b
  6326  002068  B0D8               	btfsc	status,0,c
  6327  00206A  2B7D               	incf	(___flge@ff1+1)& (0+255),f,b
  6328  00206C  1F7E               	comf	(___flge@ff1+2)& (0+255),f,b
  6329  00206E  B0D8               	btfsc	status,0,c
  6330  002070  2B7E               	incf	(___flge@ff1+2)& (0+255),f,b
  6331  002072  0E80               	movlw	128
  6332  002074  577F               	subfwb	(___flge@ff1+3)& (0+255),f,b
  6333  002076                     l3791:
  6334                           
  6335                           ; BSR set to: 0
  6336  002076  AF83               	btfss	(___flge@ff2+3)& (0+255),7,b
  6337  002078  EF40  F010         	goto	u3531
  6338  00207C  EF42  F010         	goto	u3530
  6339  002080                     u3531:
  6340  002080  EF4B  F010         	goto	l1050
  6341  002084                     u3530:
  6342  002084                     
  6343                           ; BSR set to: 0
  6344  002084  6D80               	negf	___flge@ff2& (0+255),b
  6345  002086  1F81               	comf	(___flge@ff2+1)& (0+255),f,b
  6346  002088  B0D8               	btfsc	status,0,c
  6347  00208A  2B81               	incf	(___flge@ff2+1)& (0+255),f,b
  6348  00208C  1F82               	comf	(___flge@ff2+2)& (0+255),f,b
  6349  00208E  B0D8               	btfsc	status,0,c
  6350  002090  2B82               	incf	(___flge@ff2+2)& (0+255),f,b
  6351  002092  0E80               	movlw	128
  6352  002094  5783               	subfwb	(___flge@ff2+3)& (0+255),f,b
  6353  002096                     l1050:
  6354                           
  6355                           ; BSR set to: 0
  6356  002096  0E00               	movlw	0
  6357  002098  1B7C               	xorwf	___flge@ff1& (0+255),f,b
  6358  00209A  0E00               	movlw	0
  6359  00209C  1B7D               	xorwf	(___flge@ff1+1)& (0+255),f,b
  6360  00209E  0E00               	movlw	0
  6361  0020A0  1B7E               	xorwf	(___flge@ff1+2)& (0+255),f,b
  6362  0020A2  0E80               	movlw	128
  6363  0020A4  1B7F               	xorwf	(___flge@ff1+3)& (0+255),f,b
  6364  0020A6  0E00               	movlw	0
  6365  0020A8  1B80               	xorwf	___flge@ff2& (0+255),f,b
  6366  0020AA  0E00               	movlw	0
  6367  0020AC  1B81               	xorwf	(___flge@ff2+1)& (0+255),f,b
  6368  0020AE  0E00               	movlw	0
  6369  0020B0  1B82               	xorwf	(___flge@ff2+2)& (0+255),f,b
  6370  0020B2  0E80               	movlw	128
  6371  0020B4  1B83               	xorwf	(___flge@ff2+3)& (0+255),f,b
  6372  0020B6  5180               	movf	___flge@ff2& (0+255),w,b
  6373  0020B8  5D7C               	subwf	___flge@ff1& (0+255),w,b
  6374  0020BA  5181               	movf	(___flge@ff2+1)& (0+255),w,b
  6375  0020BC  597D               	subwfb	(___flge@ff1+1)& (0+255),w,b
  6376  0020BE  5182               	movf	(___flge@ff2+2)& (0+255),w,b
  6377  0020C0  597E               	subwfb	(___flge@ff1+2)& (0+255),w,b
  6378  0020C2  5183               	movf	(___flge@ff2+3)& (0+255),w,b
  6379  0020C4  597F               	subwfb	(___flge@ff1+3)& (0+255),w,b
  6380  0020C6  B0D8               	btfsc	status,0,c
  6381  0020C8  EF68  F010         	goto	u3541
  6382  0020CC  EF6A  F010         	goto	u3540
  6383  0020D0                     u3541:
  6384  0020D0  EF6D  F010         	goto	l3797
  6385  0020D4                     u3540:
  6386  0020D4                     
  6387                           ; BSR set to: 0
  6388  0020D4  90D8               	bcf	status,0,c
  6389  0020D6  EF6E  F010         	goto	l1055
  6390  0020DA                     l3797:
  6391                           
  6392                           ; BSR set to: 0
  6393  0020DA  80D8               	bsf	status,0,c
  6394  0020DC                     l1055:
  6395                           
  6396                           ; BSR set to: 0
  6397  0020DC  0012               	return		;funcret
  6398  0020DE                     __end_of___flge:
  6399                           	opt callstack 0
  6400                           
  6401 ;; *************** function _CONTADOR *****************
  6402 ;; Defined at:
  6403 ;;		line 47 in file "../Proyectoa4550.X/PWM.c"
  6404 ;; Parameters:    Size  Location     Type
  6405 ;;  DifA            2    5[BANK0 ] short 
  6406 ;;  DifB            2    7[BANK0 ] short 
  6407 ;; Auto vars:     Size  Location     Type
  6408 ;;  ContadorB       2   11[BANK0 ] unsigned short 
  6409 ;;  ContadorA       2    9[BANK0 ] unsigned short 
  6410 ;;  B               1   16[BANK0 ] unsigned char 
  6411 ;;  A               1   15[BANK0 ] unsigned char 
  6412 ;;  ZB              1   14[BANK0 ] unsigned char 
  6413 ;;  ZA              1   13[BANK0 ] unsigned char 
  6414 ;; Return value:  Size  Location     Type
  6415 ;;                  1    wreg      void 
  6416 ;; Registers used:
  6417 ;;		wreg, status,2, status,0, prodl, prodh, cstack
  6418 ;; Tracked objects:
  6419 ;;		On entry : 0/0
  6420 ;;		On exit  : 0/0
  6421 ;;		Unchanged: 0/0
  6422 ;; Data sizes:     COMRAM   BANK0   BANK1   BANK2   BANK3   BANK4   BANK5   BANK6   BANK7
  6423 ;;      Params:         0       4       0       0       0       0       0       0       0
  6424 ;;      Locals:         0       8       0       0       0       0       0       0       0
  6425 ;;      Temps:          0       0       0       0       0       0       0       0       0
  6426 ;;      Totals:         0      12       0       0       0       0       0       0       0
  6427 ;;Total ram usage:       12 bytes
  6428 ;; Hardware stack levels used:    1
  6429 ;; Hardware stack levels required when called:    6
  6430 ;; This function calls:
  6431 ;;		_ENABLE_A
  6432 ;;		_ENABLE_B
  6433 ;;		_PWMDutyCycle1
  6434 ;;		_PWMDutyCycle2
  6435 ;;		_abs
  6436 ;; This function is called by:
  6437 ;;		_motoresmov
  6438 ;; This function uses a non-reentrant model
  6439 ;;
  6440                           
  6441                           	psect	text26
  6442  0019FA                     __ptext26:
  6443                           	opt callstack 0
  6444  0019FA                     _CONTADOR:
  6445                           	opt callstack 23
  6446  0019FA                     
  6447                           ;../Proyectoa4550.X/PWM.c: 48:     uint8_t A=0;
  6448  0019FA  0E00               	movlw	0
  6449  0019FC  0100               	movlb	0	; () banked
  6450  0019FE  6F6F               	movwf	CONTADOR@A& (0+255),b
  6451                           
  6452                           ;../Proyectoa4550.X/PWM.c: 49:     uint8_t B=0;
  6453  001A00  0E00               	movlw	0
  6454  001A02  6F70               	movwf	CONTADOR@B& (0+255),b
  6455                           
  6456                           ;../Proyectoa4550.X/PWM.c: 50:     uint8_t ZA=0;
  6457  001A04  0E00               	movlw	0
  6458  001A06  6F6D               	movwf	CONTADOR@ZA& (0+255),b
  6459                           
  6460                           ;../Proyectoa4550.X/PWM.c: 51:     uint8_t ZB=0;
  6461  001A08  0E00               	movlw	0
  6462  001A0A  6F6E               	movwf	CONTADOR@ZB& (0+255),b
  6463                           
  6464                           ;../Proyectoa4550.X/PWM.c: 52:     uint16_t ContadorA=0;
  6465  001A0C  0E00               	movlw	0
  6466  001A0E  6F6A               	movwf	(CONTADOR@ContadorA+1)& (0+255),b
  6467  001A10  0E00               	movlw	0
  6468  001A12  6F69               	movwf	CONTADOR@ContadorA& (0+255),b
  6469                           
  6470                           ;../Proyectoa4550.X/PWM.c: 53:     uint16_t ContadorB=0;
  6471  001A14  0E00               	movlw	0
  6472  001A16  6F6C               	movwf	(CONTADOR@ContadorB+1)& (0+255),b
  6473  001A18  0E00               	movlw	0
  6474  001A1A  6F6B               	movwf	CONTADOR@ContadorB& (0+255),b
  6475  001A1C                     
  6476                           ; BSR set to: 0
  6477                           ;../Proyectoa4550.X/PWM.c: 54:     PA=&A;
  6478  001A1C  0E6F               	movlw	low CONTADOR@A
  6479  001A1E  6E5C               	movwf	_PA^0,c
  6480  001A20  0E00               	movlw	high CONTADOR@A
  6481  001A22  6E5D               	movwf	(_PA+1)^0,c
  6482  001A24                     
  6483                           ; BSR set to: 0
  6484                           ;../Proyectoa4550.X/PWM.c: 55:     PB=&B;
  6485  001A24  0E70               	movlw	low CONTADOR@B
  6486  001A26  6E5A               	movwf	_PB^0,c
  6487  001A28  0E00               	movlw	high CONTADOR@B
  6488  001A2A  6E5B               	movwf	(_PB+1)^0,c
  6489  001A2C                     
  6490                           ; BSR set to: 0
  6491                           ;../Proyectoa4550.X/PWM.c: 56:     PWMDutyCycle1(50);
  6492  001A2C  0E32               	movlw	50
  6493  001A2E  EC20  F019         	call	_PWMDutyCycle1
  6494  001A32                     
  6495                           ;../Proyectoa4550.X/PWM.c: 57:     PWMDutyCycle2(50);
  6496  001A32  0E32               	movlw	50
  6497  001A34  EC0A  F019         	call	_PWMDutyCycle2
  6498                           
  6499                           ;../Proyectoa4550.X/PWM.c: 58:     while(A==0||B==0) {
  6500  001A38  EF8E  F00D         	goto	l3911
  6501  001A3C                     l266:
  6502                           
  6503                           ; BSR set to: 0
  6504                           ;../Proyectoa4550.X/PWM.c: 59:         if((PORTCbits.CCP1==1)&&ZA==0) {
  6505  001A3C  A482               	btfss	130,2,c	;volatile
  6506  001A3E  EF23  F00D         	goto	u3691
  6507  001A42  EF25  F00D         	goto	u3690
  6508  001A46                     u3691:
  6509  001A46  EF33  F00D         	goto	l267
  6510  001A4A                     u3690:
  6511  001A4A                     
  6512                           ; BSR set to: 0
  6513  001A4A  516D               	movf	CONTADOR@ZA& (0+255),w,b
  6514  001A4C  A4D8               	btfss	status,2,c
  6515  001A4E  EF2B  F00D         	goto	u3701
  6516  001A52  EF2D  F00D         	goto	u3700
  6517  001A56                     u3701:
  6518  001A56  EF33  F00D         	goto	l267
  6519  001A5A                     u3700:
  6520  001A5A                     
  6521                           ; BSR set to: 0
  6522                           ;../Proyectoa4550.X/PWM.c: 60:             ZA=1;
  6523  001A5A  0E01               	movlw	1
  6524  001A5C  6F6D               	movwf	CONTADOR@ZA& (0+255),b
  6525  001A5E                     
  6526                           ; BSR set to: 0
  6527                           ;../Proyectoa4550.X/PWM.c: 61:             ContadorA++;
  6528  001A5E  4B69               	infsnz	CONTADOR@ContadorA& (0+255),f,b
  6529  001A60  2B6A               	incf	(CONTADOR@ContadorA+1)& (0+255),f,b
  6530                           
  6531                           ;../Proyectoa4550.X/PWM.c: 62:         } else if(PORTCbits.CCP1==0) {
  6532  001A62  EF3C  F00D         	goto	l3885
  6533  001A66                     l267:
  6534                           
  6535                           ; BSR set to: 0
  6536  001A66  B482               	btfsc	130,2,c	;volatile
  6537  001A68  EF38  F00D         	goto	u3711
  6538  001A6C  EF3A  F00D         	goto	u3710
  6539  001A70                     u3711:
  6540  001A70  EF3C  F00D         	goto	l3885
  6541  001A74                     u3710:
  6542  001A74                     
  6543                           ; BSR set to: 0
  6544                           ;../Proyectoa4550.X/PWM.c: 63:             ZA=0;
  6545  001A74  0E00               	movlw	0
  6546  001A76  6F6D               	movwf	CONTADOR@ZA& (0+255),b
  6547  001A78                     l3885:
  6548                           
  6549                           ; BSR set to: 0
  6550                           ;../Proyectoa4550.X/PWM.c: 65:         if((PORTCbits.CCP2==1)&&ZB==0) {
  6551  001A78  A282               	btfss	130,1,c	;volatile
  6552  001A7A  EF41  F00D         	goto	u3721
  6553  001A7E  EF43  F00D         	goto	u3720
  6554  001A82                     u3721:
  6555  001A82  EF51  F00D         	goto	l270
  6556  001A86                     u3720:
  6557  001A86                     
  6558                           ; BSR set to: 0
  6559  001A86  516E               	movf	CONTADOR@ZB& (0+255),w,b
  6560  001A88  A4D8               	btfss	status,2,c
  6561  001A8A  EF49  F00D         	goto	u3731
  6562  001A8E  EF4B  F00D         	goto	u3730
  6563  001A92                     u3731:
  6564  001A92  EF51  F00D         	goto	l270
  6565  001A96                     u3730:
  6566  001A96                     
  6567                           ; BSR set to: 0
  6568                           ;../Proyectoa4550.X/PWM.c: 66:             ZB=1;
  6569  001A96  0E01               	movlw	1
  6570  001A98  6F6E               	movwf	CONTADOR@ZB& (0+255),b
  6571  001A9A                     
  6572                           ; BSR set to: 0
  6573                           ;../Proyectoa4550.X/PWM.c: 67:             ContadorB++;
  6574  001A9A  4B6B               	infsnz	CONTADOR@ContadorB& (0+255),f,b
  6575  001A9C  2B6C               	incf	(CONTADOR@ContadorB+1)& (0+255),f,b
  6576                           
  6577                           ;../Proyectoa4550.X/PWM.c: 68:         } else if(PORTCbits.CCP2==0) {
  6578  001A9E  EF5A  F00D         	goto	l3895
  6579  001AA2                     l270:
  6580                           
  6581                           ; BSR set to: 0
  6582  001AA2  B282               	btfsc	130,1,c	;volatile
  6583  001AA4  EF56  F00D         	goto	u3741
  6584  001AA8  EF58  F00D         	goto	u3740
  6585  001AAC                     u3741:
  6586  001AAC  EF5A  F00D         	goto	l3895
  6587  001AB0                     u3740:
  6588  001AB0                     
  6589                           ; BSR set to: 0
  6590                           ;../Proyectoa4550.X/PWM.c: 69:             ZB=0;
  6591  001AB0  0E00               	movlw	0
  6592  001AB2  6F6E               	movwf	CONTADOR@ZB& (0+255),b
  6593  001AB4                     l3895:
  6594                           
  6595                           ; BSR set to: 0
  6596                           ;../Proyectoa4550.X/PWM.c: 71:         if(ContadorA>=(abs(DifA))) {
  6597  001AB4  C065  F060         	movff	CONTADOR@DifA,abs@a
  6598  001AB8  C066  F061         	movff	CONTADOR@DifA+1,abs@a+1
  6599  001ABC  EC00  F016         	call	_abs	;wreg free
  6600  001AC0  0100               	movlb	0	; () banked
  6601  001AC2  5160               	movf	?_abs& (0+255),w,b
  6602  001AC4  5D69               	subwf	CONTADOR@ContadorA& (0+255),w,b
  6603  001AC6  5161               	movf	(?_abs+1)& (0+255),w,b
  6604  001AC8  596A               	subwfb	(CONTADOR@ContadorA+1)& (0+255),w,b
  6605  001ACA  A0D8               	btfss	status,0,c
  6606  001ACC  EF6A  F00D         	goto	u3751
  6607  001AD0  EF6C  F00D         	goto	u3750
  6608  001AD4                     u3751:
  6609  001AD4  EF74  F00D         	goto	l3903
  6610  001AD8                     u3750:
  6611  001AD8                     
  6612                           ; BSR set to: 0
  6613                           ;../Proyectoa4550.X/PWM.c: 72:             A=1;
  6614  001AD8  0E01               	movlw	1
  6615  001ADA  6F6F               	movwf	CONTADOR@A& (0+255),b
  6616  001ADC                     
  6617                           ; BSR set to: 0
  6618                           ;../Proyectoa4550.X/PWM.c: 73:             PWMDutyCycle1(0);
  6619  001ADC  0E00               	movlw	0
  6620  001ADE  EC20  F019         	call	_PWMDutyCycle1
  6621  001AE2                     
  6622                           ;../Proyectoa4550.X/PWM.c: 74:             ENABLE_A(0);
  6623  001AE2  0E00               	movlw	0
  6624  001AE4  EC00  F01A         	call	_ENABLE_A
  6625  001AE8                     l3903:
  6626                           
  6627                           ;../Proyectoa4550.X/PWM.c: 76:         if(ContadorB>=(abs(DifB))) {
  6628  001AE8  C067  F060         	movff	CONTADOR@DifB,abs@a
  6629  001AEC  C068  F061         	movff	CONTADOR@DifB+1,abs@a+1
  6630  001AF0  EC00  F016         	call	_abs	;wreg free
  6631  001AF4  0100               	movlb	0	; () banked
  6632  001AF6  5160               	movf	?_abs& (0+255),w,b
  6633  001AF8  5D6B               	subwf	CONTADOR@ContadorB& (0+255),w,b
  6634  001AFA  5161               	movf	(?_abs+1)& (0+255),w,b
  6635  001AFC  596C               	subwfb	(CONTADOR@ContadorB+1)& (0+255),w,b
  6636  001AFE  A0D8               	btfss	status,0,c
  6637  001B00  EF84  F00D         	goto	u3761
  6638  001B04  EF86  F00D         	goto	u3760
  6639  001B08                     u3761:
  6640  001B08  EF8E  F00D         	goto	l3911
  6641  001B0C                     u3760:
  6642  001B0C                     
  6643                           ; BSR set to: 0
  6644                           ;../Proyectoa4550.X/PWM.c: 77:             B=1;
  6645  001B0C  0E01               	movlw	1
  6646  001B0E  6F70               	movwf	CONTADOR@B& (0+255),b
  6647  001B10                     
  6648                           ; BSR set to: 0
  6649                           ;../Proyectoa4550.X/PWM.c: 78:             PWMDutyCycle2(0);
  6650  001B10  0E00               	movlw	0
  6651  001B12  EC0A  F019         	call	_PWMDutyCycle2
  6652  001B16                     
  6653                           ;../Proyectoa4550.X/PWM.c: 79:             ENABLE_B(0);
  6654  001B16  0E00               	movlw	0
  6655  001B18  ECF0  F019         	call	_ENABLE_B
  6656  001B1C                     l3911:
  6657                           
  6658                           ;../Proyectoa4550.X/PWM.c: 58:     while(A==0||B==0) {
  6659  001B1C  0100               	movlb	0	; () banked
  6660  001B1E  516F               	movf	CONTADOR@A& (0+255),w,b
  6661  001B20  B4D8               	btfsc	status,2,c
  6662  001B22  EF95  F00D         	goto	u3771
  6663  001B26  EF97  F00D         	goto	u3770
  6664  001B2A                     u3771:
  6665  001B2A  EF1E  F00D         	goto	l266
  6666  001B2E                     u3770:
  6667  001B2E                     
  6668                           ; BSR set to: 0
  6669  001B2E  5170               	movf	CONTADOR@B& (0+255),w,b
  6670  001B30  B4D8               	btfsc	status,2,c
  6671  001B32  EF9D  F00D         	goto	u3781
  6672  001B36  EF9F  F00D         	goto	u3780
  6673  001B3A                     u3781:
  6674  001B3A  EF1E  F00D         	goto	l266
  6675  001B3E                     u3780:
  6676  001B3E                     
  6677                           ; BSR set to: 0
  6678  001B3E  0012               	return		;funcret
  6679  001B40                     __end_of_CONTADOR:
  6680                           	opt callstack 0
  6681                           
  6682 ;; *************** function _abs *****************
  6683 ;; Defined at:
  6684 ;;		line 1 in file "C:\Program Files (x86)\Microchip\xc8\v2.10\pic\sources\c99\common\abs.c"
  6685 ;; Parameters:    Size  Location     Type
  6686 ;;  a               2    0[BANK0 ] int 
  6687 ;; Auto vars:     Size  Location     Type
  6688 ;;		None
  6689 ;; Return value:  Size  Location     Type
  6690 ;;                  2    0[BANK0 ] int 
  6691 ;; Registers used:
  6692 ;;		wreg, status,2, status,0
  6693 ;; Tracked objects:
  6694 ;;		On entry : 0/0
  6695 ;;		On exit  : 0/0
  6696 ;;		Unchanged: 0/0
  6697 ;; Data sizes:     COMRAM   BANK0   BANK1   BANK2   BANK3   BANK4   BANK5   BANK6   BANK7
  6698 ;;      Params:         0       2       0       0       0       0       0       0       0
  6699 ;;      Locals:         0       0       0       0       0       0       0       0       0
  6700 ;;      Temps:          0       2       0       0       0       0       0       0       0
  6701 ;;      Totals:         0       4       0       0       0       0       0       0       0
  6702 ;;Total ram usage:        4 bytes
  6703 ;; Hardware stack levels used:    1
  6704 ;; Hardware stack levels required when called:    5
  6705 ;; This function calls:
  6706 ;;		Nothing
  6707 ;; This function is called by:
  6708 ;;		_Conversion
  6709 ;;		_CONTADOR
  6710 ;; This function uses a non-reentrant model
  6711 ;;
  6712                           
  6713                           	psect	text27
  6714  002C00                     __ptext27:
  6715                           	opt callstack 0
  6716  002C00                     _abs:
  6717                           	opt callstack 23
  6718  002C00  0100               	movlb	0	; () banked
  6719  002C02  BF61               	btfsc	(abs@a+1)& (0+255),7,b
  6720  002C04  EF0E  F016         	goto	u3440
  6721  002C08  5161               	movf	(abs@a+1)& (0+255),w,b
  6722  002C0A  E106               	bnz	u3441
  6723  002C0C  0560               	decf	abs@a& (0+255),w,b
  6724  002C0E  B0D8               	btfsc	status,0,c
  6725  002C10  EF0C  F016         	goto	u3441
  6726  002C14  EF0E  F016         	goto	u3440
  6727  002C18                     u3441:
  6728  002C18  EF1C  F016         	goto	l1460
  6729  002C1C                     u3440:
  6730  002C1C                     
  6731                           ; BSR set to: 0
  6732  002C1C  C060  F062         	movff	abs@a,??_abs
  6733  002C20  C061  F063         	movff	abs@a+1,??_abs+1
  6734  002C24  1F62               	comf	??_abs& (0+255),f,b
  6735  002C26  1F63               	comf	(??_abs+1)& (0+255),f,b
  6736  002C28  4B62               	infsnz	??_abs& (0+255),f,b
  6737  002C2A  2B63               	incf	(??_abs+1)& (0+255),f,b
  6738  002C2C  C062  F060         	movff	??_abs,?_abs
  6739  002C30  C063  F061         	movff	??_abs+1,?_abs+1
  6740  002C34  EF20  F016         	goto	l1463
  6741  002C38                     l1460:
  6742                           
  6743                           ; BSR set to: 0
  6744  002C38  C060  F060         	movff	abs@a,?_abs
  6745  002C3C  C061  F061         	movff	abs@a+1,?_abs+1
  6746  002C40                     l1463:
  6747                           
  6748                           ; BSR set to: 0
  6749  002C40  0012               	return		;funcret
  6750  002C42                     __end_of_abs:
  6751                           	opt callstack 0
  6752                           
  6753 ;; *************** function _PWMDutyCycle2 *****************
  6754 ;; Defined at:
  6755 ;;		line 41 in file "../Proyectoa4550.X/PWM.c"
  6756 ;; Parameters:    Size  Location     Type
  6757 ;;  DUTY            1    wreg     unsigned char 
  6758 ;; Auto vars:     Size  Location     Type
  6759 ;;  DUTY            1    4[BANK0 ] unsigned char 
  6760 ;;  PERCENT         2    2[BANK0 ] unsigned short 
  6761 ;; Return value:  Size  Location     Type
  6762 ;;                  1    wreg      void 
  6763 ;; Registers used:
  6764 ;;		wreg, status,2, status,0, prodl, prodh
  6765 ;; Tracked objects:
  6766 ;;		On entry : 0/0
  6767 ;;		On exit  : 0/0
  6768 ;;		Unchanged: 0/0
  6769 ;; Data sizes:     COMRAM   BANK0   BANK1   BANK2   BANK3   BANK4   BANK5   BANK6   BANK7
  6770 ;;      Params:         0       0       0       0       0       0       0       0       0
  6771 ;;      Locals:         0       3       0       0       0       0       0       0       0
  6772 ;;      Temps:          0       2       0       0       0       0       0       0       0
  6773 ;;      Totals:         0       5       0       0       0       0       0       0       0
  6774 ;;Total ram usage:        5 bytes
  6775 ;; Hardware stack levels used:    1
  6776 ;; Hardware stack levels required when called:    5
  6777 ;; This function calls:
  6778 ;;		Nothing
  6779 ;; This function is called by:
  6780 ;;		_CONTADOR
  6781 ;; This function uses a non-reentrant model
  6782 ;;
  6783                           
  6784                           	psect	text28
  6785  003214                     __ptext28:
  6786                           	opt callstack 0
  6787  003214                     _PWMDutyCycle2:
  6788                           	opt callstack 23
  6789                           
  6790                           ; BSR set to: 0
  6791                           ;incstack = 0
  6792                           ;PWMDutyCycle2@DUTY stored from wreg
  6793  003214  0100               	movlb	0	; () banked
  6794  003216  6F64               	movwf	PWMDutyCycle2@DUTY& (0+255),b
  6795  003218                     
  6796                           ;../Proyectoa4550.X/PWM.c: 42:     uint16_t PERCENT;;../Proyectoa4550.X/PWM.c: 43:     P
      +                          ERCENT=DUTY*5;
  6797  003218  0100               	movlb	0	; () banked
  6798  00321A  5164               	movf	PWMDutyCycle2@DUTY& (0+255),w,b
  6799  00321C  0D05               	mullw	5
  6800  00321E  CFF3 F062          	movff	prodl,PWMDutyCycle2@PERCENT
  6801  003222  CFF4 F063          	movff	prodh,PWMDutyCycle2@PERCENT+1
  6802  003226                     
  6803                           ; BSR set to: 0
  6804                           ;../Proyectoa4550.X/PWM.c: 44:     CCPR2L=(PERCENT>>2)&0xFF;
  6805  003226  C062  F060         	movff	PWMDutyCycle2@PERCENT,??_PWMDutyCycle2
  6806  00322A  C063  F061         	movff	PWMDutyCycle2@PERCENT+1,??_PWMDutyCycle2+1
  6807  00322E  90D8               	bcf	status,0,c
  6808  003230  3361               	rrcf	(??_PWMDutyCycle2+1)& (0+255),f,b
  6809  003232  3360               	rrcf	??_PWMDutyCycle2& (0+255),f,b
  6810  003234  90D8               	bcf	status,0,c
  6811  003236  3361               	rrcf	(??_PWMDutyCycle2+1)& (0+255),f,b
  6812  003238  3360               	rrcf	??_PWMDutyCycle2& (0+255),f,b
  6813  00323A  5160               	movf	??_PWMDutyCycle2& (0+255),w,b
  6814  00323C  6EBB               	movwf	187,c	;volatile
  6815  00323E                     
  6816                           ; BSR set to: 0
  6817  00323E  0012               	return		;funcret
  6818  003240                     __end_of_PWMDutyCycle2:
  6819                           	opt callstack 0
  6820                           
  6821 ;; *************** function _PWMDutyCycle1 *****************
  6822 ;; Defined at:
  6823 ;;		line 35 in file "../Proyectoa4550.X/PWM.c"
  6824 ;; Parameters:    Size  Location     Type
  6825 ;;  DUTY            1    wreg     unsigned char 
  6826 ;; Auto vars:     Size  Location     Type
  6827 ;;  DUTY            1    4[BANK0 ] unsigned char 
  6828 ;;  PERCENT         2    2[BANK0 ] unsigned short 
  6829 ;; Return value:  Size  Location     Type
  6830 ;;                  1    wreg      void 
  6831 ;; Registers used:
  6832 ;;		wreg, status,2, status,0, prodl, prodh
  6833 ;; Tracked objects:
  6834 ;;		On entry : 0/0
  6835 ;;		On exit  : 0/0
  6836 ;;		Unchanged: 0/0
  6837 ;; Data sizes:     COMRAM   BANK0   BANK1   BANK2   BANK3   BANK4   BANK5   BANK6   BANK7
  6838 ;;      Params:         0       0       0       0       0       0       0       0       0
  6839 ;;      Locals:         0       3       0       0       0       0       0       0       0
  6840 ;;      Temps:          0       2       0       0       0       0       0       0       0
  6841 ;;      Totals:         0       5       0       0       0       0       0       0       0
  6842 ;;Total ram usage:        5 bytes
  6843 ;; Hardware stack levels used:    1
  6844 ;; Hardware stack levels required when called:    5
  6845 ;; This function calls:
  6846 ;;		Nothing
  6847 ;; This function is called by:
  6848 ;;		_CONTADOR
  6849 ;; This function uses a non-reentrant model
  6850 ;;
  6851                           
  6852                           	psect	text29
  6853  003240                     __ptext29:
  6854                           	opt callstack 0
  6855  003240                     _PWMDutyCycle1:
  6856                           	opt callstack 23
  6857                           
  6858                           ; BSR set to: 0
  6859                           ;incstack = 0
  6860                           ;PWMDutyCycle1@DUTY stored from wreg
  6861  003240  0100               	movlb	0	; () banked
  6862  003242  6F64               	movwf	PWMDutyCycle1@DUTY& (0+255),b
  6863  003244                     
  6864                           ;../Proyectoa4550.X/PWM.c: 36:     uint16_t PERCENT;;../Proyectoa4550.X/PWM.c: 37:     P
      +                          ERCENT=DUTY*5;
  6865  003244  0100               	movlb	0	; () banked
  6866  003246  5164               	movf	PWMDutyCycle1@DUTY& (0+255),w,b
  6867  003248  0D05               	mullw	5
  6868  00324A  CFF3 F062          	movff	prodl,PWMDutyCycle1@PERCENT
  6869  00324E  CFF4 F063          	movff	prodh,PWMDutyCycle1@PERCENT+1
  6870  003252                     
  6871                           ; BSR set to: 0
  6872                           ;../Proyectoa4550.X/PWM.c: 38:     CCPR1L=(PERCENT>>2)&0xFF;
  6873  003252  C062  F060         	movff	PWMDutyCycle1@PERCENT,??_PWMDutyCycle1
  6874  003256  C063  F061         	movff	PWMDutyCycle1@PERCENT+1,??_PWMDutyCycle1+1
  6875  00325A  90D8               	bcf	status,0,c
  6876  00325C  3361               	rrcf	(??_PWMDutyCycle1+1)& (0+255),f,b
  6877  00325E  3360               	rrcf	??_PWMDutyCycle1& (0+255),f,b
  6878  003260  90D8               	bcf	status,0,c
  6879  003262  3361               	rrcf	(??_PWMDutyCycle1+1)& (0+255),f,b
  6880  003264  3360               	rrcf	??_PWMDutyCycle1& (0+255),f,b
  6881  003266  5160               	movf	??_PWMDutyCycle1& (0+255),w,b
  6882  003268  6EBE               	movwf	190,c	;volatile
  6883  00326A                     
  6884                           ; BSR set to: 0
  6885  00326A  0012               	return		;funcret
  6886  00326C                     __end_of_PWMDutyCycle1:
  6887                           	opt callstack 0
  6888                           
  6889 ;; *************** function _ENABLE_B *****************
  6890 ;; Defined at:
  6891 ;;		line 77 in file "../Proyectoa4550.X/GPIO.c"
  6892 ;; Parameters:    Size  Location     Type
  6893 ;;  X               1    wreg     unsigned char 
  6894 ;; Auto vars:     Size  Location     Type
  6895 ;;  X               1    0[BANK0 ] unsigned char 
  6896 ;; Return value:  Size  Location     Type
  6897 ;;                  1    wreg      void 
  6898 ;; Registers used:
  6899 ;;		wreg, status,2, status,0
  6900 ;; Tracked objects:
  6901 ;;		On entry : 0/0
  6902 ;;		On exit  : 0/0
  6903 ;;		Unchanged: 0/0
  6904 ;; Data sizes:     COMRAM   BANK0   BANK1   BANK2   BANK3   BANK4   BANK5   BANK6   BANK7
  6905 ;;      Params:         0       0       0       0       0       0       0       0       0
  6906 ;;      Locals:         0       1       0       0       0       0       0       0       0
  6907 ;;      Temps:          0       0       0       0       0       0       0       0       0
  6908 ;;      Totals:         0       1       0       0       0       0       0       0       0
  6909 ;;Total ram usage:        1 bytes
  6910 ;; Hardware stack levels used:    1
  6911 ;; Hardware stack levels required when called:    5
  6912 ;; This function calls:
  6913 ;;		Nothing
  6914 ;; This function is called by:
  6915 ;;		_motoresmov
  6916 ;;		_CONTADOR
  6917 ;; This function uses a non-reentrant model
  6918 ;;
  6919                           
  6920                           	psect	text30
  6921  0033E0                     __ptext30:
  6922                           	opt callstack 0
  6923  0033E0                     _ENABLE_B:
  6924                           	opt callstack 24
  6925                           
  6926                           ; BSR set to: 0
  6927                           ;incstack = 0
  6928                           ;ENABLE_B@X stored from wreg
  6929  0033E0  0100               	movlb	0	; () banked
  6930  0033E2  6F60               	movwf	ENABLE_B@X& (0+255),b
  6931  0033E4                     
  6932                           ;../Proyectoa4550.X/GPIO.c: 78:     if(X==1) {
  6933  0033E4  0100               	movlb	0	; () banked
  6934  0033E6  0560               	decf	ENABLE_B@X& (0+255),w,b
  6935  0033E8  A4D8               	btfss	status,2,c
  6936  0033EA  EFF9  F019         	goto	u3421
  6937  0033EE  EFFB  F019         	goto	u3420
  6938  0033F2                     u3421:
  6939  0033F2  EFFE  F019         	goto	l774
  6940  0033F6                     u3420:
  6941  0033F6                     
  6942                           ; BSR set to: 0
  6943                           ;../Proyectoa4550.X/GPIO.c: 79:         PORTDbits.RD2=0;
  6944  0033F6  9483               	bcf	131,2,c	;volatile
  6945                           
  6946                           ;../Proyectoa4550.X/GPIO.c: 80:     } else {
  6947  0033F8  EFFF  F019         	goto	l776
  6948  0033FC                     l774:
  6949                           
  6950                           ; BSR set to: 0
  6951                           ;../Proyectoa4550.X/GPIO.c: 81:         PORTDbits.RD2=1;
  6952  0033FC  8483               	bsf	131,2,c	;volatile
  6953  0033FE                     l776:
  6954                           
  6955                           ; BSR set to: 0
  6956  0033FE  0012               	return		;funcret
  6957  003400                     __end_of_ENABLE_B:
  6958                           	opt callstack 0
  6959                           
  6960 ;; *************** function _ENABLE_A *****************
  6961 ;; Defined at:
  6962 ;;		line 69 in file "../Proyectoa4550.X/GPIO.c"
  6963 ;; Parameters:    Size  Location     Type
  6964 ;;  X               1    wreg     unsigned char 
  6965 ;; Auto vars:     Size  Location     Type
  6966 ;;  X               1    0[BANK0 ] unsigned char 
  6967 ;; Return value:  Size  Location     Type
  6968 ;;                  1    wreg      void 
  6969 ;; Registers used:
  6970 ;;		wreg, status,2, status,0
  6971 ;; Tracked objects:
  6972 ;;		On entry : 0/0
  6973 ;;		On exit  : 0/0
  6974 ;;		Unchanged: 0/0
  6975 ;; Data sizes:     COMRAM   BANK0   BANK1   BANK2   BANK3   BANK4   BANK5   BANK6   BANK7
  6976 ;;      Params:         0       0       0       0       0       0       0       0       0
  6977 ;;      Locals:         0       1       0       0       0       0       0       0       0
  6978 ;;      Temps:          0       0       0       0       0       0       0       0       0
  6979 ;;      Totals:         0       1       0       0       0       0       0       0       0
  6980 ;;Total ram usage:        1 bytes
  6981 ;; Hardware stack levels used:    1
  6982 ;; Hardware stack levels required when called:    5
  6983 ;; This function calls:
  6984 ;;		Nothing
  6985 ;; This function is called by:
  6986 ;;		_motoresmov
  6987 ;;		_CONTADOR
  6988 ;; This function uses a non-reentrant model
  6989 ;;
  6990                           
  6991                           	psect	text31
  6992  003400                     __ptext31:
  6993                           	opt callstack 0
  6994  003400                     _ENABLE_A:
  6995                           	opt callstack 24
  6996                           
  6997                           ; BSR set to: 0
  6998                           ;incstack = 0
  6999                           ;ENABLE_A@X stored from wreg
  7000  003400  0100               	movlb	0	; () banked
  7001  003402  6F60               	movwf	ENABLE_A@X& (0+255),b
  7002  003404                     
  7003                           ;../Proyectoa4550.X/GPIO.c: 70:     if(X==1) {
  7004  003404  0100               	movlb	0	; () banked
  7005  003406  0560               	decf	ENABLE_A@X& (0+255),w,b
  7006  003408  A4D8               	btfss	status,2,c
  7007  00340A  EF09  F01A         	goto	u3431
  7008  00340E  EF0B  F01A         	goto	u3430
  7009  003412                     u3431:
  7010  003412  EF0E  F01A         	goto	l769
  7011  003416                     u3430:
  7012  003416                     
  7013                           ; BSR set to: 0
  7014                           ;../Proyectoa4550.X/GPIO.c: 71:         PORTDbits.RD3=0;
  7015  003416  9683               	bcf	131,3,c	;volatile
  7016                           
  7017                           ;../Proyectoa4550.X/GPIO.c: 72:     } else {
  7018  003418  EF0F  F01A         	goto	l771
  7019  00341C                     l769:
  7020                           
  7021                           ; BSR set to: 0
  7022                           ;../Proyectoa4550.X/GPIO.c: 73:         PORTDbits.RD3=1;
  7023  00341C  8683               	bsf	131,3,c	;volatile
  7024  00341E                     l771:
  7025                           
  7026                           ; BSR set to: 0
  7027  00341E  0012               	return		;funcret
  7028  003420                     __end_of_ENABLE_A:
  7029                           	opt callstack 0
  7030                           
  7031 ;; *************** function _ExtraerDato *****************
  7032 ;; Defined at:
  7033 ;;		line 161 in file "SETPOINTS.c"
  7034 ;; Parameters:    Size  Location     Type
  7035 ;;  Dir             1    wreg     unsigned char 
  7036 ;; Auto vars:     Size  Location     Type
  7037 ;;  Dir             1    9[BANK0 ] unsigned char 
  7038 ;;  DT              2    5[BANK0 ] unsigned short 
  7039 ;;  DL              1    8[BANK0 ] unsigned char 
  7040 ;;  DH              1    7[BANK0 ] unsigned char 
  7041 ;; Return value:  Size  Location     Type
  7042 ;;                  2    1[BANK0 ] unsigned short 
  7043 ;; Registers used:
  7044 ;;		wreg, status,2, status,0, cstack
  7045 ;; Tracked objects:
  7046 ;;		On entry : 0/0
  7047 ;;		On exit  : 0/0
  7048 ;;		Unchanged: 0/0
  7049 ;; Data sizes:     COMRAM   BANK0   BANK1   BANK2   BANK3   BANK4   BANK5   BANK6   BANK7
  7050 ;;      Params:         0       2       0       0       0       0       0       0       0
  7051 ;;      Locals:         0       5       0       0       0       0       0       0       0
  7052 ;;      Temps:          0       2       0       0       0       0       0       0       0
  7053 ;;      Totals:         0       9       0       0       0       0       0       0       0
  7054 ;;Total ram usage:        9 bytes
  7055 ;; Hardware stack levels used:    1
  7056 ;; Hardware stack levels required when called:    6
  7057 ;; This function calls:
  7058 ;;		_EEPROM_R
  7059 ;; This function is called by:
  7060 ;;		_main
  7061 ;;		_MOVASETPOINT
  7062 ;;		_EJECUTARINS
  7063 ;; This function uses a non-reentrant model
  7064 ;;
  7065                           
  7066                           	psect	text32
  7067  00310A                     __ptext32:
  7068                           	opt callstack 0
  7069  00310A                     _ExtraerDato:
  7070                           	opt callstack 22
  7071                           
  7072                           ; BSR set to: 0
  7073                           ;incstack = 0
  7074                           ;ExtraerDato@Dir stored from wreg
  7075  00310A  0100               	movlb	0	; () banked
  7076  00310C  6F69               	movwf	ExtraerDato@Dir& (0+255),b
  7077  00310E                     
  7078                           ;SETPOINTS.c: 162:     uint8_t DH;;SETPOINTS.c: 163:     uint8_t DL;;SETPOINTS.c: 164:  
      +                             uint16_t DT;;SETPOINTS.c: 165:     DL=EEPROM_R(Dir);
  7079  00310E  0100               	movlb	0	; () banked
  7080  003110  5169               	movf	ExtraerDato@Dir& (0+255),w,b
  7081  003112  EC79  F01A         	call	_EEPROM_R
  7082  003116  0100               	movlb	0	; () banked
  7083  003118  6F68               	movwf	ExtraerDato@DL& (0+255),b
  7084  00311A                     
  7085                           ; BSR set to: 0
  7086                           ;SETPOINTS.c: 166:     DH=EEPROM_R(Dir+1);
  7087  00311A  2969               	incf	ExtraerDato@Dir& (0+255),w,b
  7088  00311C  EC79  F01A         	call	_EEPROM_R
  7089  003120  0100               	movlb	0	; () banked
  7090  003122  6F67               	movwf	ExtraerDato@DH& (0+255),b
  7091  003124                     
  7092                           ; BSR set to: 0
  7093                           ;SETPOINTS.c: 167:     DT=(DH<<8)+DL;
  7094  003124  5167               	movf	ExtraerDato@DH& (0+255),w,b
  7095  003126  6F64               	movwf	(??_ExtraerDato+1)& (0+255),b
  7096  003128  6B63               	clrf	??_ExtraerDato& (0+255),b
  7097  00312A  5168               	movf	ExtraerDato@DL& (0+255),w,b
  7098  00312C  2563               	addwf	??_ExtraerDato& (0+255),w,b
  7099  00312E  6F65               	movwf	ExtraerDato@DT& (0+255),b
  7100  003130  0E00               	movlw	0
  7101  003132  2164               	addwfc	(??_ExtraerDato+1)& (0+255),w,b
  7102  003134  6F66               	movwf	(ExtraerDato@DT+1)& (0+255),b
  7103  003136                     
  7104                           ; BSR set to: 0
  7105                           ;SETPOINTS.c: 168:     return DT;
  7106  003136  C065  F061         	movff	ExtraerDato@DT,?_ExtraerDato
  7107  00313A  C066  F062         	movff	ExtraerDato@DT+1,?_ExtraerDato+1
  7108  00313E                     
  7109                           ; BSR set to: 0
  7110  00313E  0012               	return		;funcret
  7111  003140                     __end_of_ExtraerDato:
  7112                           	opt callstack 0
  7113                           
  7114 ;; *************** function _EditseT *****************
  7115 ;; Defined at:
  7116 ;;		line 38 in file "SETPOINTS.c"
  7117 ;; Parameters:    Size  Location     Type
  7118 ;;		None
  7119 ;; Auto vars:     Size  Location     Type
  7120 ;;  C               1   41[BANK0 ] unsigned char 
  7121 ;;  b               1   40[BANK0 ] unsigned char 
  7122 ;;  dato            4   34[BANK0 ] unsigned char [4]
  7123 ;;  Y               2   32[BANK0 ] unsigned short 
  7124 ;;  X               2   30[BANK0 ] unsigned short 
  7125 ;;  i               1   42[BANK0 ] unsigned char 
  7126 ;;  E               1   39[BANK0 ] unsigned char 
  7127 ;;  d               1   38[BANK0 ] unsigned char 
  7128 ;;  send            1   29[BANK0 ] unsigned char 
  7129 ;; Return value:  Size  Location     Type
  7130 ;;                  1    wreg      void 
  7131 ;; Registers used:
  7132 ;;		wreg, fsr1l, fsr1h, fsr2l, fsr2h, status,2, status,0, prodl, prodh, cstack
  7133 ;; Tracked objects:
  7134 ;;		On entry : 0/0
  7135 ;;		On exit  : 0/0
  7136 ;;		Unchanged: 0/0
  7137 ;; Data sizes:     COMRAM   BANK0   BANK1   BANK2   BANK3   BANK4   BANK5   BANK6   BANK7
  7138 ;;      Params:         0       0       0       0       0       0       0       0       0
  7139 ;;      Locals:         0      14       0       0       0       0       0       0       0
  7140 ;;      Temps:          0       0       0       0       0       0       0       0       0
  7141 ;;      Totals:         0      14       0       0       0       0       0       0       0
  7142 ;;Total ram usage:       14 bytes
  7143 ;; Hardware stack levels used:    1
  7144 ;; Hardware stack levels required when called:    8
  7145 ;; This function calls:
  7146 ;;		_GuardarsetN
  7147 ;;		_GuardarsetX
  7148 ;;		_GuardarsetY
  7149 ;;		_NOcoordenada
  7150 ;;		_Obt
  7151 ;;		_SETNOEX
  7152 ;;		_SETPOINEXIST
  7153 ;;		_SETPOINTBUSCAR
  7154 ;;		_UARTRead
  7155 ;;		_UARTWrite
  7156 ;; This function is called by:
  7157 ;;		_main
  7158 ;; This function uses a non-reentrant model
  7159 ;;
  7160                           
  7161                           	psect	text33
  7162  00109A                     __ptext33:
  7163                           	opt callstack 0
  7164  00109A                     _EditseT:
  7165                           	opt callstack 22
  7166  00109A                     
  7167                           ;SETPOINTS.c: 39:     uint8_t dato[4];;SETPOINTS.c: 40:     uint8_t send;;SETPOINTS.c: 4
      +                          1:     for(uint8_t b=0; b<4; b++) {
  7168  00109A  0E00               	movlw	0
  7169  00109C  0100               	movlb	0	; () banked
  7170  00109E  6F88               	movwf	EditseT@b& (0+255),b
  7171  0010A0                     l5159:
  7172                           
  7173                           ; BSR set to: 0
  7174                           ;SETPOINTS.c: 42:         dato[b]=UARTRead();
  7175  0010A0  0E82               	movlw	low EditseT@dato
  7176  0010A2  2588               	addwf	EditseT@b& (0+255),w,b
  7177  0010A4  6ED9               	movwf	fsr2l,c
  7178  0010A6  6ADA               	clrf	fsr2h,c
  7179  0010A8  0E00               	movlw	high EditseT@dato
  7180  0010AA  22DA               	addwfc	fsr2h,f,c
  7181  0010AC  ECF1  F014         	call	_UARTRead	;wreg free
  7182  0010B0  6EDF               	movwf	indf2,c
  7183  0010B2                     
  7184                           ;SETPOINTS.c: 43:         __nop();
  7185  0010B2  F000               	nop	
  7186  0010B4                     
  7187                           ;SETPOINTS.c: 44:         send=dato[b];
  7188  0010B4  0E82               	movlw	low EditseT@dato
  7189  0010B6  0100               	movlb	0	; () banked
  7190  0010B8  2588               	addwf	EditseT@b& (0+255),w,b
  7191  0010BA  6ED9               	movwf	fsr2l,c
  7192  0010BC  6ADA               	clrf	fsr2h,c
  7193  0010BE  0E00               	movlw	high EditseT@dato
  7194  0010C0  22DA               	addwfc	fsr2h,f,c
  7195  0010C2  50DF               	movf	indf2,w,c
  7196  0010C4  6F7D               	movwf	EditseT@send& (0+255),b
  7197  0010C6                     
  7198                           ; BSR set to: 0
  7199                           ;SETPOINTS.c: 45:         __nop();
  7200  0010C6  F000               	nop	
  7201  0010C8                     
  7202                           ;SETPOINTS.c: 46:         UARTWrite(send);
  7203  0010C8  0100               	movlb	0	; () banked
  7204  0010CA  517D               	movf	EditseT@send& (0+255),w,b
  7205  0010CC  EC57  F01A         	call	_UARTWrite
  7206  0010D0                     
  7207                           ;SETPOINTS.c: 47:     }
  7208  0010D0  0100               	movlb	0	; () banked
  7209  0010D2  2B88               	incf	EditseT@b& (0+255),f,b
  7210  0010D4                     
  7211                           ; BSR set to: 0
  7212  0010D4  0E03               	movlw	3
  7213  0010D6  6588               	cpfsgt	EditseT@b& (0+255),b
  7214  0010D8  EF70  F008         	goto	u5451
  7215  0010DC  EF72  F008         	goto	u5450
  7216  0010E0                     u5451:
  7217  0010E0  EF50  F008         	goto	l5159
  7218  0010E4                     u5450:
  7219  0010E4                     
  7220                           ; BSR set to: 0
  7221                           ;SETPOINTS.c: 48:     UARTWrite('\n');
  7222  0010E4  0E0A               	movlw	10
  7223  0010E6  EC57  F01A         	call	_UARTWrite
  7224                           
  7225                           ;SETPOINTS.c: 49:     UARTWrite('\r');
  7226  0010EA  0E0D               	movlw	13
  7227  0010EC  EC57  F01A         	call	_UARTWrite
  7228  0010F0                     
  7229                           ;SETPOINTS.c: 52:     i=SETPOINTBUSCAR(dato);
  7230  0010F0  0E82               	movlw	low EditseT@dato
  7231  0010F2  0100               	movlb	0	; () banked
  7232  0010F4  6F61               	movwf	SETPOINTBUSCAR@dato& (0+255),b
  7233  0010F6  0E00               	movlw	high EditseT@dato
  7234  0010F8  6F62               	movwf	(SETPOINTBUSCAR@dato+1)& (0+255),b
  7235  0010FA  ECF1  F010         	call	_SETPOINTBUSCAR	;wreg free
  7236  0010FE  0100               	movlb	0	; () banked
  7237  001100  6F8A               	movwf	EditseT@i& (0+255),b
  7238  001102                     
  7239                           ; BSR set to: 0
  7240                           ;SETPOINTS.c: 54:     uint16_t X;;SETPOINTS.c: 55:     uint16_t Y;;SETPOINTS.c: 56:     
      +                          uint8_t E=0;
  7241  001102  0E00               	movlw	0
  7242  001104  6F87               	movwf	EditseT@E& (0+255),b
  7243  001106                     
  7244                           ; BSR set to: 0
  7245                           ;SETPOINTS.c: 57:     if(i<160) {
  7246  001106  0EA0               	movlw	160
  7247  001108  618A               	cpfslt	EditseT@i& (0+255),b
  7248  00110A  EF89  F008         	goto	u5461
  7249  00110E  EF8B  F008         	goto	u5460
  7250  001112                     u5461:
  7251  001112  EF31  F009         	goto	l5243
  7252  001116                     u5460:
  7253  001116                     
  7254                           ; BSR set to: 0
  7255                           ;SETPOINTS.c: 58:         for(uint8_t C=0; C<4; C++) {
  7256  001116  0E00               	movlw	0
  7257  001118  6F89               	movwf	EditseT@C& (0+255),b
  7258  00111A                     l5191:
  7259                           
  7260                           ; BSR set to: 0
  7261                           ;SETPOINTS.c: 59:             dato[C]=UARTRead();
  7262  00111A  0E82               	movlw	low EditseT@dato
  7263  00111C  2589               	addwf	EditseT@C& (0+255),w,b
  7264  00111E  6ED9               	movwf	fsr2l,c
  7265  001120  6ADA               	clrf	fsr2h,c
  7266  001122  0E00               	movlw	high EditseT@dato
  7267  001124  22DA               	addwfc	fsr2h,f,c
  7268  001126  ECF1  F014         	call	_UARTRead	;wreg free
  7269  00112A  6EDF               	movwf	indf2,c
  7270  00112C                     
  7271                           ;SETPOINTS.c: 60:             __nop();
  7272  00112C  F000               	nop	
  7273                           
  7274                           ;SETPOINTS.c: 61:             UARTWrite(dato[C]);
  7275  00112E  0E82               	movlw	low EditseT@dato
  7276  001130  0100               	movlb	0	; () banked
  7277  001132  2589               	addwf	EditseT@C& (0+255),w,b
  7278  001134  6ED9               	movwf	fsr2l,c
  7279  001136  6ADA               	clrf	fsr2h,c
  7280  001138  0E00               	movlw	high EditseT@dato
  7281  00113A  22DA               	addwfc	fsr2h,f,c
  7282  00113C  50DF               	movf	indf2,w,c
  7283  00113E  EC57  F01A         	call	_UARTWrite
  7284  001142                     
  7285                           ;SETPOINTS.c: 62:         }
  7286  001142  0100               	movlb	0	; () banked
  7287  001144  2B89               	incf	EditseT@C& (0+255),f,b
  7288  001146                     
  7289                           ; BSR set to: 0
  7290  001146  0E03               	movlw	3
  7291  001148  6589               	cpfsgt	EditseT@C& (0+255),b
  7292  00114A  EFA9  F008         	goto	u5471
  7293  00114E  EFAB  F008         	goto	u5470
  7294  001152                     u5471:
  7295  001152  EF8D  F008         	goto	l5191
  7296  001156                     u5470:
  7297  001156                     
  7298                           ; BSR set to: 0
  7299                           ;SETPOINTS.c: 63:         d=SETPOINTBUSCAR(dato);
  7300  001156  0E82               	movlw	low EditseT@dato
  7301  001158  6F61               	movwf	SETPOINTBUSCAR@dato& (0+255),b
  7302  00115A  0E00               	movlw	high EditseT@dato
  7303  00115C  6F62               	movwf	(SETPOINTBUSCAR@dato+1)& (0+255),b
  7304  00115E  ECF1  F010         	call	_SETPOINTBUSCAR	;wreg free
  7305  001162  0100               	movlb	0	; () banked
  7306  001164  6F86               	movwf	EditseT@d& (0+255),b
  7307  001166                     
  7308                           ; BSR set to: 0
  7309                           ;SETPOINTS.c: 64:         if(d>=160||d==i) {
  7310  001166  0EA0               	movlw	160
  7311  001168  6186               	cpfslt	EditseT@d& (0+255),b
  7312  00116A  EFB9  F008         	goto	u5481
  7313  00116E  EFBB  F008         	goto	u5480
  7314  001172                     u5481:
  7315  001172  EFC4  F008         	goto	l5205
  7316  001176                     u5480:
  7317  001176                     
  7318                           ; BSR set to: 0
  7319  001176  518A               	movf	EditseT@i& (0+255),w,b
  7320  001178  1986               	xorwf	EditseT@d& (0+255),w,b
  7321  00117A  A4D8               	btfss	status,2,c
  7322  00117C  EFC2  F008         	goto	u5491
  7323  001180  EFC4  F008         	goto	u5490
  7324  001184                     u5491:
  7325  001184  EF2D  F009         	goto	l5241
  7326  001188                     u5490:
  7327  001188                     l5205:
  7328                           
  7329                           ; BSR set to: 0
  7330                           ;SETPOINTS.c: 65:             UARTWrite(' ');
  7331  001188  0E20               	movlw	32
  7332  00118A  EC57  F01A         	call	_UARTWrite
  7333  00118E                     
  7334                           ;SETPOINTS.c: 66:             X=Obt('X');
  7335  00118E  0E58               	movlw	88
  7336  001190  ECEA  F00A         	call	_Obt
  7337  001194  C066  F07E         	movff	?_Obt,EditseT@X
  7338  001198  C067  F07F         	movff	?_Obt+1,EditseT@X+1
  7339  00119C                     
  7340                           ;SETPOINTS.c: 68:             if(X>300) {
  7341  00119C  0E2D               	movlw	45
  7342  00119E  0100               	movlb	0	; () banked
  7343  0011A0  5D7E               	subwf	EditseT@X& (0+255),w,b
  7344  0011A2  0E01               	movlw	1
  7345  0011A4  597F               	subwfb	(EditseT@X+1)& (0+255),w,b
  7346  0011A6  A0D8               	btfss	status,0,c
  7347  0011A8  EFD8  F008         	goto	u5501
  7348  0011AC  EFDA  F008         	goto	u5500
  7349  0011B0                     u5501:
  7350  0011B0  EFDC  F008         	goto	l5213
  7351  0011B4                     u5500:
  7352  0011B4                     
  7353                           ; BSR set to: 0
  7354                           ;SETPOINTS.c: 69:                 E=1;
  7355  0011B4  0E01               	movlw	1
  7356  0011B6  6F87               	movwf	EditseT@E& (0+255),b
  7357  0011B8                     l5213:
  7358                           
  7359                           ; BSR set to: 0
  7360                           ;SETPOINTS.c: 71:             if(E!=1){
  7361  0011B8  0587               	decf	EditseT@E& (0+255),w,b
  7362  0011BA  B4D8               	btfsc	status,2,c
  7363  0011BC  EFE2  F008         	goto	u5511
  7364  0011C0  EFE4  F008         	goto	u5510
  7365  0011C4                     u5511:
  7366  0011C4  EFF4  F008         	goto	l5223
  7367  0011C8                     u5510:
  7368  0011C8                     
  7369                           ; BSR set to: 0
  7370                           ;SETPOINTS.c: 72:                 UARTWrite(' ');
  7371  0011C8  0E20               	movlw	32
  7372  0011CA  EC57  F01A         	call	_UARTWrite
  7373  0011CE                     
  7374                           ;SETPOINTS.c: 73:                 Y=Obt('Y');
  7375  0011CE  0E59               	movlw	89
  7376  0011D0  ECEA  F00A         	call	_Obt
  7377  0011D4  C066  F080         	movff	?_Obt,EditseT@Y
  7378  0011D8  C067  F081         	movff	?_Obt+1,EditseT@Y+1
  7379  0011DC                     
  7380                           ;SETPOINTS.c: 74:                 UARTWrite('\n');
  7381  0011DC  0E0A               	movlw	10
  7382  0011DE  EC57  F01A         	call	_UARTWrite
  7383  0011E2                     
  7384                           ;SETPOINTS.c: 75:                 UARTWrite('\r');
  7385  0011E2  0E0D               	movlw	13
  7386  0011E4  EC57  F01A         	call	_UARTWrite
  7387  0011E8                     l5223:
  7388                           
  7389                           ;SETPOINTS.c: 77:             if(Y>300) {
  7390  0011E8  0E2D               	movlw	45
  7391  0011EA  0100               	movlb	0	; () banked
  7392  0011EC  5D80               	subwf	EditseT@Y& (0+255),w,b
  7393  0011EE  0E01               	movlw	1
  7394  0011F0  5981               	subwfb	(EditseT@Y+1)& (0+255),w,b
  7395  0011F2  A0D8               	btfss	status,0,c
  7396  0011F4  EFFE  F008         	goto	u5521
  7397  0011F8  EF00  F009         	goto	u5520
  7398  0011FC                     u5521:
  7399  0011FC  EF02  F009         	goto	l5227
  7400  001200                     u5520:
  7401  001200                     
  7402                           ; BSR set to: 0
  7403                           ;SETPOINTS.c: 78:                 E=1;
  7404  001200  0E01               	movlw	1
  7405  001202  6F87               	movwf	EditseT@E& (0+255),b
  7406  001204                     l5227:
  7407                           
  7408                           ; BSR set to: 0
  7409                           ;SETPOINTS.c: 80:             if(E!=1) {
  7410  001204  0587               	decf	EditseT@E& (0+255),w,b
  7411  001206  B4D8               	btfsc	status,2,c
  7412  001208  EF08  F009         	goto	u5531
  7413  00120C  EF0A  F009         	goto	u5530
  7414  001210                     u5531:
  7415  001210  EF29  F009         	goto	l5239
  7416  001214                     u5530:
  7417  001214                     
  7418                           ; BSR set to: 0
  7419                           ;SETPOINTS.c: 81:                 GuardarsetN(i, dato);
  7420  001214  0E82               	movlw	low EditseT@dato
  7421  001216  6F62               	movwf	GuardarsetN@dato& (0+255),b
  7422  001218  0E00               	movlw	high EditseT@dato
  7423  00121A  6F63               	movwf	(GuardarsetN@dato+1)& (0+255),b
  7424  00121C  518A               	movf	EditseT@i& (0+255),w,b
  7425  00121E  EC4E  F018         	call	_GuardarsetN
  7426  001222                     
  7427                           ;SETPOINTS.c: 82:                 i=i+4;
  7428  001222  0100               	movlb	0	; () banked
  7429  001224  518A               	movf	EditseT@i& (0+255),w,b
  7430  001226  0F04               	addlw	4
  7431  001228  6F8A               	movwf	EditseT@i& (0+255),b
  7432  00122A                     
  7433                           ; BSR set to: 0
  7434                           ;SETPOINTS.c: 83:                 GuardarsetX(i, X);
  7435  00122A  C07E  F062         	movff	EditseT@X,GuardarsetX@X
  7436  00122E  C07F  F063         	movff	EditseT@X+1,GuardarsetX@X+1
  7437  001232  518A               	movf	EditseT@i& (0+255),w,b
  7438  001234  EC85  F019         	call	_GuardarsetX
  7439  001238                     
  7440                           ;SETPOINTS.c: 84:                 i=i+2;
  7441  001238  0100               	movlb	0	; () banked
  7442  00123A  518A               	movf	EditseT@i& (0+255),w,b
  7443  00123C  0F02               	addlw	2
  7444  00123E  6F8A               	movwf	EditseT@i& (0+255),b
  7445  001240                     
  7446                           ; BSR set to: 0
  7447                           ;SETPOINTS.c: 85:                 GuardarsetY(i, Y);
  7448  001240  C080  F062         	movff	EditseT@Y,GuardarsetY@Y
  7449  001244  C081  F063         	movff	EditseT@Y+1,GuardarsetY@Y+1
  7450  001248  518A               	movf	EditseT@i& (0+255),w,b
  7451  00124A  EC72  F019         	call	_GuardarsetY
  7452                           
  7453                           ;SETPOINTS.c: 86:             } else {
  7454  00124E  EF33  F009         	goto	l639
  7455  001252                     l5239:
  7456                           
  7457                           ; BSR set to: 0
  7458                           ;SETPOINTS.c: 87:                 NOcoordenada();
  7459  001252  EC31  F018         	call	_NOcoordenada	;wreg free
  7460  001256  EF33  F009         	goto	l639
  7461  00125A                     l5241:
  7462                           
  7463                           ; BSR set to: 0
  7464                           ;SETPOINTS.c: 90:             SETPOINEXIST();
  7465  00125A  EC82  F016         	call	_SETPOINEXIST	;wreg free
  7466  00125E  EF33  F009         	goto	l639
  7467  001262                     l5243:
  7468                           
  7469                           ; BSR set to: 0
  7470                           ;SETPOINTS.c: 94:         SETNOEX();
  7471  001262  EC02  F017         	call	_SETNOEX	;wreg free
  7472  001266                     l639:
  7473  001266  0012               	return		;funcret
  7474  001268                     __end_of_EditseT:
  7475                           	opt callstack 0
  7476                           
  7477 ;; *************** function _SETPOINEXIST *****************
  7478 ;; Defined at:
  7479 ;;		line 131 in file "../Proyectoa4550.X/Mensajes50.c"
  7480 ;; Parameters:    Size  Location     Type
  7481 ;;		None
  7482 ;; Auto vars:     Size  Location     Type
  7483 ;;  C               1   28[BANK0 ] unsigned char 
  7484 ;;  F              27    1[BANK0 ] unsigned char [27]
  7485 ;; Return value:  Size  Location     Type
  7486 ;;                  1    wreg      void 
  7487 ;; Registers used:
  7488 ;;		wreg, fsr1l, fsr1h, fsr2l, fsr2h, status,2, status,0, cstack
  7489 ;; Tracked objects:
  7490 ;;		On entry : 0/0
  7491 ;;		On exit  : 0/0
  7492 ;;		Unchanged: 0/0
  7493 ;; Data sizes:     COMRAM   BANK0   BANK1   BANK2   BANK3   BANK4   BANK5   BANK6   BANK7
  7494 ;;      Params:         0       0       0       0       0       0       0       0       0
  7495 ;;      Locals:         0      28       0       0       0       0       0       0       0
  7496 ;;      Temps:          0       0       0       0       0       0       0       0       0
  7497 ;;      Totals:         0      28       0       0       0       0       0       0       0
  7498 ;;Total ram usage:       28 bytes
  7499 ;; Hardware stack levels used:    1
  7500 ;; Hardware stack levels required when called:    6
  7501 ;; This function calls:
  7502 ;;		_UARTWrite
  7503 ;; This function is called by:
  7504 ;;		_EditseT
  7505 ;; This function uses a non-reentrant model
  7506 ;;
  7507                           
  7508                           	psect	text34
  7509  002D04                     __ptext34:
  7510                           	opt callstack 0
  7511  002D04                     _SETPOINEXIST:
  7512                           	opt callstack 23
  7513  002D04                     
  7514                           ;../Proyectoa4550.X/Mensajes50.c: 132:     uint8_t F[]="Ya existe esta direccion\n\r";
  7515  002D04  EE21  F099         	lfsr	2,SETPOINEXIST@F3632
  7516  002D08  EE10  F061         	lfsr	1,SETPOINEXIST@F
  7517  002D0C  0E1A               	movlw	26
  7518  002D0E                     u4721:
  7519  002D0E  CFDB FFE3          	movff	plusw2,plusw1
  7520  002D12  06E8               	decf	wreg,f,c
  7521  002D14  E2FC               	bc	u4721
  7522  002D16                     
  7523                           ;../Proyectoa4550.X/Mensajes50.c: 133:     for(uint8_t C=0; C<(sizeof(F)); C++) {
  7524  002D16  0E00               	movlw	0
  7525  002D18  0100               	movlb	0	; () banked
  7526  002D1A  6F7C               	movwf	SETPOINEXIST@C& (0+255),b
  7527  002D1C                     l4487:
  7528                           
  7529                           ; BSR set to: 0
  7530                           ;../Proyectoa4550.X/Mensajes50.c: 134:             UARTWrite(F[C]);
  7531  002D1C  0E61               	movlw	low SETPOINEXIST@F
  7532  002D1E  257C               	addwf	SETPOINEXIST@C& (0+255),w,b
  7533  002D20  6ED9               	movwf	fsr2l,c
  7534  002D22  6ADA               	clrf	fsr2h,c
  7535  002D24  0E00               	movlw	high SETPOINEXIST@F
  7536  002D26  22DA               	addwfc	fsr2h,f,c
  7537  002D28  50DF               	movf	indf2,w,c
  7538  002D2A  EC57  F01A         	call	_UARTWrite
  7539  002D2E                     
  7540                           ;../Proyectoa4550.X/Mensajes50.c: 135:     }
  7541  002D2E  0100               	movlb	0	; () banked
  7542  002D30  2B7C               	incf	SETPOINEXIST@C& (0+255),f,b
  7543  002D32                     
  7544                           ; BSR set to: 0
  7545  002D32  0E1A               	movlw	26
  7546  002D34  657C               	cpfsgt	SETPOINEXIST@C& (0+255),b
  7547  002D36  EF9F  F016         	goto	u4731
  7548  002D3A  EFA1  F016         	goto	u4730
  7549  002D3E                     u4731:
  7550  002D3E  EF8E  F016         	goto	l4487
  7551  002D42                     u4730:
  7552  002D42                     
  7553                           ; BSR set to: 0
  7554  002D42  0012               	return		;funcret
  7555  002D44                     __end_of_SETPOINEXIST:
  7556                           	opt callstack 0
  7557                           
  7558 ;; *************** function _Obt *****************
  7559 ;; Defined at:
  7560 ;;		line 22 in file "../Proyectoa4550.X/Mensajes50.c"
  7561 ;; Parameters:    Size  Location     Type
  7562 ;;  imp             1    wreg     unsigned char 
  7563 ;; Auto vars:     Size  Location     Type
  7564 ;;  imp             1   10[BANK0 ] unsigned char 
  7565 ;;  Xvalor          3   15[BANK0 ] unsigned char [3]
  7566 ;;  valor           2   11[BANK0 ] unsigned short 
  7567 ;;  E               1   14[BANK0 ] unsigned char 
  7568 ;;  Send            1   13[BANK0 ] unsigned char 
  7569 ;; Return value:  Size  Location     Type
  7570 ;;                  2    6[BANK0 ] unsigned short 
  7571 ;; Registers used:
  7572 ;;		wreg, status,2, status,0, prodl, prodh, cstack
  7573 ;; Tracked objects:
  7574 ;;		On entry : 0/0
  7575 ;;		On exit  : 0/0
  7576 ;;		Unchanged: 0/0
  7577 ;; Data sizes:     COMRAM   BANK0   BANK1   BANK2   BANK3   BANK4   BANK5   BANK6   BANK7
  7578 ;;      Params:         0       2       0       0       0       0       0       0       0
  7579 ;;      Locals:         0       8       0       0       0       0       0       0       0
  7580 ;;      Temps:          0       2       0       0       0       0       0       0       0
  7581 ;;      Totals:         0      12       0       0       0       0       0       0       0
  7582 ;;Total ram usage:       12 bytes
  7583 ;; Hardware stack levels used:    1
  7584 ;; Hardware stack levels required when called:    7
  7585 ;; This function calls:
  7586 ;;		_UARTRead
  7587 ;;		_UARTWrite
  7588 ;; This function is called by:
  7589 ;;		_main
  7590 ;;		_EditseT
  7591 ;; This function uses a non-reentrant model
  7592 ;;
  7593                           
  7594                           	psect	text35
  7595  0015D4                     __ptext35:
  7596                           	opt callstack 0
  7597  0015D4                     _Obt:
  7598                           	opt callstack 23
  7599                           
  7600                           ; BSR set to: 0
  7601                           ;incstack = 0
  7602                           ;Obt@imp stored from wreg
  7603  0015D4  0100               	movlb	0	; () banked
  7604  0015D6  6F6A               	movwf	Obt@imp& (0+255),b
  7605  0015D8                     
  7606                           ;../Proyectoa4550.X/Mensajes50.c: 23:     uint8_t Xvalor[3];;../Proyectoa4550.X/Mensajes
      +                          50.c: 24:     uint8_t Send;;../Proyectoa4550.X/Mensajes50.c: 25:     uint8_t E=0;
  7607  0015D8  0E00               	movlw	0
  7608  0015DA  0100               	movlb	0	; () banked
  7609  0015DC  6F6E               	movwf	Obt@E& (0+255),b
  7610  0015DE                     
  7611                           ; BSR set to: 0
  7612                           ;../Proyectoa4550.X/Mensajes50.c: 27:     UARTWrite(imp);
  7613  0015DE  516A               	movf	Obt@imp& (0+255),w,b
  7614  0015E0  EC57  F01A         	call	_UARTWrite
  7615  0015E4                     
  7616                           ;../Proyectoa4550.X/Mensajes50.c: 28:     Xvalor[0]=UARTRead();
  7617  0015E4  ECF1  F014         	call	_UARTRead	;wreg free
  7618  0015E8  0100               	movlb	0	; () banked
  7619  0015EA  6F6F               	movwf	Obt@Xvalor& (0+255),b
  7620  0015EC                     
  7621                           ; BSR set to: 0
  7622                           ;../Proyectoa4550.X/Mensajes50.c: 29:     if(Xvalor[0]<='9'&&Xvalor[0]>='0') {
  7623  0015EC  0E3A               	movlw	58
  7624  0015EE  616F               	cpfslt	Obt@Xvalor& (0+255),b
  7625  0015F0  EFFC  F00A         	goto	u4601
  7626  0015F4  EFFE  F00A         	goto	u4600
  7627  0015F8                     u4601:
  7628  0015F8  EF0D  F00B         	goto	l4431
  7629  0015FC                     u4600:
  7630  0015FC                     
  7631                           ; BSR set to: 0
  7632  0015FC  0E2F               	movlw	47
  7633  0015FE  656F               	cpfsgt	Obt@Xvalor& (0+255),b
  7634  001600  EF04  F00B         	goto	u4611
  7635  001604  EF06  F00B         	goto	u4610
  7636  001608                     u4611:
  7637  001608  EF0D  F00B         	goto	l4431
  7638  00160C                     u4610:
  7639  00160C                     
  7640                           ; BSR set to: 0
  7641                           ;../Proyectoa4550.X/Mensajes50.c: 30:         Send=Xvalor[0];
  7642  00160C  C06F  F06D         	movff	Obt@Xvalor,Obt@Send
  7643  001610                     
  7644                           ; BSR set to: 0
  7645                           ;../Proyectoa4550.X/Mensajes50.c: 31:         UARTWrite(Send);
  7646  001610  516D               	movf	Obt@Send& (0+255),w,b
  7647  001612  EC57  F01A         	call	_UARTWrite
  7648                           
  7649                           ;../Proyectoa4550.X/Mensajes50.c: 32:     } else {
  7650  001616  EF0F  F00B         	goto	l4433
  7651  00161A                     l4431:
  7652                           
  7653                           ; BSR set to: 0
  7654                           ;../Proyectoa4550.X/Mensajes50.c: 33:         E=1;
  7655  00161A  0E01               	movlw	1
  7656  00161C  6F6E               	movwf	Obt@E& (0+255),b
  7657  00161E                     l4433:
  7658                           
  7659                           ;../Proyectoa4550.X/Mensajes50.c: 35:     if(E!=1) {
  7660  00161E  0100               	movlb	0	; () banked
  7661  001620  056E               	decf	Obt@E& (0+255),w,b
  7662  001622  B4D8               	btfsc	status,2,c
  7663  001624  EF16  F00B         	goto	u4621
  7664  001628  EF18  F00B         	goto	u4620
  7665  00162C                     u4621:
  7666  00162C  EF35  F00B         	goto	l4447
  7667  001630                     u4620:
  7668  001630                     
  7669                           ; BSR set to: 0
  7670                           ;../Proyectoa4550.X/Mensajes50.c: 36:         Xvalor[1]=UARTRead();
  7671  001630  ECF1  F014         	call	_UARTRead	;wreg free
  7672  001634  0100               	movlb	0	; () banked
  7673  001636  6F70               	movwf	(Obt@Xvalor+1)& (0+255),b
  7674  001638                     
  7675                           ; BSR set to: 0
  7676                           ;../Proyectoa4550.X/Mensajes50.c: 37:         if(Xvalor[1]<='9'&&Xvalor[1]>='0') {
  7677  001638  0E3A               	movlw	58
  7678  00163A  6170               	cpfslt	(Obt@Xvalor+1)& (0+255),b
  7679  00163C  EF22  F00B         	goto	u4631
  7680  001640  EF24  F00B         	goto	u4630
  7681  001644                     u4631:
  7682  001644  EF33  F00B         	goto	l4445
  7683  001648                     u4630:
  7684  001648                     
  7685                           ; BSR set to: 0
  7686  001648  0E2F               	movlw	47
  7687  00164A  6570               	cpfsgt	(Obt@Xvalor+1)& (0+255),b
  7688  00164C  EF2A  F00B         	goto	u4641
  7689  001650  EF2C  F00B         	goto	u4640
  7690  001654                     u4641:
  7691  001654  EF33  F00B         	goto	l4445
  7692  001658                     u4640:
  7693  001658                     
  7694                           ; BSR set to: 0
  7695                           ;../Proyectoa4550.X/Mensajes50.c: 38:             Send=Xvalor[1];
  7696  001658  C070  F06D         	movff	Obt@Xvalor+1,Obt@Send
  7697  00165C                     
  7698                           ; BSR set to: 0
  7699                           ;../Proyectoa4550.X/Mensajes50.c: 39:             UARTWrite(Send);
  7700  00165C  516D               	movf	Obt@Send& (0+255),w,b
  7701  00165E  EC57  F01A         	call	_UARTWrite
  7702                           
  7703                           ;../Proyectoa4550.X/Mensajes50.c: 40:         } else {
  7704  001662  EF35  F00B         	goto	l4447
  7705  001666                     l4445:
  7706                           
  7707                           ; BSR set to: 0
  7708                           ;../Proyectoa4550.X/Mensajes50.c: 41:             E=1;
  7709  001666  0E01               	movlw	1
  7710  001668  6F6E               	movwf	Obt@E& (0+255),b
  7711  00166A                     l4447:
  7712                           
  7713                           ;../Proyectoa4550.X/Mensajes50.c: 44:     if(E!=1) {
  7714  00166A  0100               	movlb	0	; () banked
  7715  00166C  056E               	decf	Obt@E& (0+255),w,b
  7716  00166E  B4D8               	btfsc	status,2,c
  7717  001670  EF3C  F00B         	goto	u4651
  7718  001674  EF3E  F00B         	goto	u4650
  7719  001678                     u4651:
  7720  001678  EF5B  F00B         	goto	l4461
  7721  00167C                     u4650:
  7722  00167C                     
  7723                           ; BSR set to: 0
  7724                           ;../Proyectoa4550.X/Mensajes50.c: 45:         Xvalor[2]=UARTRead();
  7725  00167C  ECF1  F014         	call	_UARTRead	;wreg free
  7726  001680  0100               	movlb	0	; () banked
  7727  001682  6F71               	movwf	(Obt@Xvalor+2)& (0+255),b
  7728  001684                     
  7729                           ; BSR set to: 0
  7730                           ;../Proyectoa4550.X/Mensajes50.c: 46:         if(Xvalor[2]<='9'&&Xvalor[2]>='0') {
  7731  001684  0E3A               	movlw	58
  7732  001686  6171               	cpfslt	(Obt@Xvalor+2)& (0+255),b
  7733  001688  EF48  F00B         	goto	u4661
  7734  00168C  EF4A  F00B         	goto	u4660
  7735  001690                     u4661:
  7736  001690  EF59  F00B         	goto	l4459
  7737  001694                     u4660:
  7738  001694                     
  7739                           ; BSR set to: 0
  7740  001694  0E2F               	movlw	47
  7741  001696  6571               	cpfsgt	(Obt@Xvalor+2)& (0+255),b
  7742  001698  EF50  F00B         	goto	u4671
  7743  00169C  EF52  F00B         	goto	u4670
  7744  0016A0                     u4671:
  7745  0016A0  EF59  F00B         	goto	l4459
  7746  0016A4                     u4670:
  7747  0016A4                     
  7748                           ; BSR set to: 0
  7749                           ;../Proyectoa4550.X/Mensajes50.c: 47:             Send=Xvalor[2];
  7750  0016A4  C071  F06D         	movff	Obt@Xvalor+2,Obt@Send
  7751  0016A8                     
  7752                           ; BSR set to: 0
  7753                           ;../Proyectoa4550.X/Mensajes50.c: 48:             UARTWrite(Send);
  7754  0016A8  516D               	movf	Obt@Send& (0+255),w,b
  7755  0016AA  EC57  F01A         	call	_UARTWrite
  7756                           
  7757                           ;../Proyectoa4550.X/Mensajes50.c: 49:         } else {
  7758  0016AE  EF5B  F00B         	goto	l4461
  7759  0016B2                     l4459:
  7760                           
  7761                           ; BSR set to: 0
  7762                           ;../Proyectoa4550.X/Mensajes50.c: 50:             E=1;
  7763  0016B2  0E01               	movlw	1
  7764  0016B4  6F6E               	movwf	Obt@E& (0+255),b
  7765  0016B6                     l4461:
  7766                           
  7767                           ;../Proyectoa4550.X/Mensajes50.c: 53:     if(E==1) {
  7768  0016B6  0100               	movlb	0	; () banked
  7769  0016B8  056E               	decf	Obt@E& (0+255),w,b
  7770  0016BA  A4D8               	btfss	status,2,c
  7771  0016BC  EF62  F00B         	goto	u4681
  7772  0016C0  EF64  F00B         	goto	u4680
  7773  0016C4                     u4681:
  7774  0016C4  EF6A  F00B         	goto	l4465
  7775  0016C8                     u4680:
  7776  0016C8                     
  7777                           ; BSR set to: 0
  7778                           ;../Proyectoa4550.X/Mensajes50.c: 54:         valor=60000;
  7779  0016C8  0EEA               	movlw	234
  7780  0016CA  6F6C               	movwf	(Obt@valor+1)& (0+255),b
  7781  0016CC  0E60               	movlw	96
  7782  0016CE  6F6B               	movwf	Obt@valor& (0+255),b
  7783                           
  7784                           ;../Proyectoa4550.X/Mensajes50.c: 55:     }else {
  7785  0016D0  EF80  F00B         	goto	l4467
  7786  0016D4                     l4465:
  7787                           
  7788                           ; BSR set to: 0
  7789                           ;../Proyectoa4550.X/Mensajes50.c: 56:         valor=((Xvalor[0]-48)*100)+((Xvalor[1]-48)
      +                          *10)+(Xvalor[2]-48);
  7790  0016D4  516F               	movf	Obt@Xvalor& (0+255),w,b
  7791  0016D6  0D64               	mullw	100
  7792  0016D8  CFF3 F068          	movff	prodl,??_Obt
  7793  0016DC  CFF4 F069          	movff	prodh,??_Obt+1
  7794  0016E0  5170               	movf	(Obt@Xvalor+1)& (0+255),w,b
  7795  0016E2  0D0A               	mullw	10
  7796  0016E4  50F3               	movf	243,w,c
  7797  0016E6  2768               	addwf	??_Obt& (0+255),f,b
  7798  0016E8  50F4               	movf	244,w,c
  7799  0016EA  2369               	addwfc	(??_Obt+1)& (0+255),f,b
  7800  0016EC  5171               	movf	(Obt@Xvalor+2)& (0+255),w,b
  7801  0016EE  2768               	addwf	??_Obt& (0+255),f,b
  7802  0016F0  0E00               	movlw	0
  7803  0016F2  2369               	addwfc	(??_Obt+1)& (0+255),f,b
  7804  0016F4  0E30               	movlw	48
  7805  0016F6  2568               	addwf	??_Obt& (0+255),w,b
  7806  0016F8  6F6B               	movwf	Obt@valor& (0+255),b
  7807  0016FA  0EEB               	movlw	235
  7808  0016FC  2169               	addwfc	(??_Obt+1)& (0+255),w,b
  7809  0016FE  6F6C               	movwf	(Obt@valor+1)& (0+255),b
  7810  001700                     l4467:
  7811                           
  7812                           ; BSR set to: 0
  7813                           ;../Proyectoa4550.X/Mensajes50.c: 58:     if(Xvalor[0]==((void*)0)||Xvalor[1]==((void*)0
      +                          )||Xvalor[2]==((void*)0)) {
  7814  001700  516F               	movf	Obt@Xvalor& (0+255),w,b
  7815  001702  B4D8               	btfsc	status,2,c
  7816  001704  EF86  F00B         	goto	u4691
  7817  001708  EF88  F00B         	goto	u4690
  7818  00170C                     u4691:
  7819  00170C  EF98  F00B         	goto	l4473
  7820  001710                     u4690:
  7821  001710                     
  7822                           ; BSR set to: 0
  7823  001710  5170               	movf	(Obt@Xvalor+1)& (0+255),w,b
  7824  001712  B4D8               	btfsc	status,2,c
  7825  001714  EF8E  F00B         	goto	u4701
  7826  001718  EF90  F00B         	goto	u4700
  7827  00171C                     u4701:
  7828  00171C  EF98  F00B         	goto	l4473
  7829  001720                     u4700:
  7830  001720                     
  7831                           ; BSR set to: 0
  7832  001720  5171               	movf	(Obt@Xvalor+2)& (0+255),w,b
  7833  001722  A4D8               	btfss	status,2,c
  7834  001724  EF96  F00B         	goto	u4711
  7835  001728  EF98  F00B         	goto	u4710
  7836  00172C                     u4711:
  7837  00172C  EF9C  F00B         	goto	l4475
  7838  001730                     u4710:
  7839  001730                     l4473:
  7840                           
  7841                           ; BSR set to: 0
  7842                           ;../Proyectoa4550.X/Mensajes50.c: 59:         valor=30000;
  7843  001730  0E75               	movlw	117
  7844  001732  6F6C               	movwf	(Obt@valor+1)& (0+255),b
  7845  001734  0E30               	movlw	48
  7846  001736  6F6B               	movwf	Obt@valor& (0+255),b
  7847  001738                     l4475:
  7848                           
  7849                           ; BSR set to: 0
  7850                           ;../Proyectoa4550.X/Mensajes50.c: 61:     return valor;
  7851  001738  C06B  F066         	movff	Obt@valor,?_Obt
  7852  00173C  C06C  F067         	movff	Obt@valor+1,?_Obt+1
  7853  001740                     
  7854                           ; BSR set to: 0
  7855  001740  0012               	return		;funcret
  7856  001742                     __end_of_Obt:
  7857                           	opt callstack 0
  7858                           
  7859 ;; *************** function _NOcoordenada *****************
  7860 ;; Defined at:
  7861 ;;		line 232 in file "../Proyectoa4550.X/Mensajes50.c"
  7862 ;; Parameters:    Size  Location     Type
  7863 ;;		None
  7864 ;; Auto vars:     Size  Location     Type
  7865 ;;  C               1    4[BANK0 ] unsigned char 
  7866 ;;  F               3    1[BANK0 ] unsigned char [3]
  7867 ;; Return value:  Size  Location     Type
  7868 ;;                  1    wreg      void 
  7869 ;; Registers used:
  7870 ;;		wreg, fsr2l, fsr2h, status,2, status,0, cstack
  7871 ;; Tracked objects:
  7872 ;;		On entry : 0/0
  7873 ;;		On exit  : 0/0
  7874 ;;		Unchanged: 0/0
  7875 ;; Data sizes:     COMRAM   BANK0   BANK1   BANK2   BANK3   BANK4   BANK5   BANK6   BANK7
  7876 ;;      Params:         0       0       0       0       0       0       0       0       0
  7877 ;;      Locals:         0       4       0       0       0       0       0       0       0
  7878 ;;      Temps:          0       0       0       0       0       0       0       0       0
  7879 ;;      Totals:         0       4       0       0       0       0       0       0       0
  7880 ;;Total ram usage:        4 bytes
  7881 ;; Hardware stack levels used:    1
  7882 ;; Hardware stack levels required when called:    6
  7883 ;; This function calls:
  7884 ;;		_UARTWrite
  7885 ;; This function is called by:
  7886 ;;		_main
  7887 ;;		_EditseT
  7888 ;; This function uses a non-reentrant model
  7889 ;;
  7890                           
  7891                           	psect	text36
  7892  003062                     __ptext36:
  7893                           	opt callstack 0
  7894  003062                     _NOcoordenada:
  7895                           	opt callstack 24
  7896  003062                     
  7897                           ;../Proyectoa4550.X/Mensajes50.c: 233:     uint8_t F[]="E1";
  7898  003062  C0D8  F061         	movff	NOcoordenada@F3681,NOcoordenada@F
  7899  003066  C0D9  F062         	movff	NOcoordenada@F3681+1,NOcoordenada@F+1
  7900  00306A  C0DA  F063         	movff	NOcoordenada@F3681+2,NOcoordenada@F+2
  7901  00306E                     
  7902                           ;../Proyectoa4550.X/Mensajes50.c: 234:     for(uint8_t C=0; C<(sizeof(F)); C++) {
  7903  00306E  0E00               	movlw	0
  7904  003070  0100               	movlb	0	; () banked
  7905  003072  6F64               	movwf	NOcoordenada@C& (0+255),b
  7906  003074                     l4585:
  7907                           
  7908                           ; BSR set to: 0
  7909                           ;../Proyectoa4550.X/Mensajes50.c: 235:             UARTWrite(F[C]);
  7910  003074  0E61               	movlw	low NOcoordenada@F
  7911  003076  2564               	addwf	NOcoordenada@C& (0+255),w,b
  7912  003078  6ED9               	movwf	fsr2l,c
  7913  00307A  6ADA               	clrf	fsr2h,c
  7914  00307C  0E00               	movlw	high NOcoordenada@F
  7915  00307E  22DA               	addwfc	fsr2h,f,c
  7916  003080  50DF               	movf	indf2,w,c
  7917  003082  EC57  F01A         	call	_UARTWrite
  7918  003086                     
  7919                           ;../Proyectoa4550.X/Mensajes50.c: 236:     }
  7920  003086  0100               	movlb	0	; () banked
  7921  003088  2B64               	incf	NOcoordenada@C& (0+255),f,b
  7922  00308A                     
  7923                           ; BSR set to: 0
  7924  00308A  0E02               	movlw	2
  7925  00308C  6564               	cpfsgt	NOcoordenada@C& (0+255),b
  7926  00308E  EF4B  F018         	goto	u4861
  7927  003092  EF4D  F018         	goto	u4860
  7928  003096                     u4861:
  7929  003096  EF3A  F018         	goto	l4585
  7930  00309A                     u4860:
  7931  00309A                     
  7932                           ; BSR set to: 0
  7933  00309A  0012               	return		;funcret
  7934  00309C                     __end_of_NOcoordenada:
  7935                           	opt callstack 0
  7936                           
  7937 ;; *************** function _GuardarsetY *****************
  7938 ;; Defined at:
  7939 ;;		line 31 in file "SETPOINTS.c"
  7940 ;; Parameters:    Size  Location     Type
  7941 ;;  dir             1    wreg     unsigned char 
  7942 ;;  Y               2    2[BANK0 ] unsigned short 
  7943 ;; Auto vars:     Size  Location     Type
  7944 ;;  dir             1    6[BANK0 ] unsigned char 
  7945 ;;  YL              1    5[BANK0 ] unsigned char 
  7946 ;;  YH              1    4[BANK0 ] unsigned char 
  7947 ;; Return value:  Size  Location     Type
  7948 ;;                  1    wreg      void 
  7949 ;; Registers used:
  7950 ;;		wreg, status,2, status,0, cstack
  7951 ;; Tracked objects:
  7952 ;;		On entry : 0/0
  7953 ;;		On exit  : 0/0
  7954 ;;		Unchanged: 0/0
  7955 ;; Data sizes:     COMRAM   BANK0   BANK1   BANK2   BANK3   BANK4   BANK5   BANK6   BANK7
  7956 ;;      Params:         0       2       0       0       0       0       0       0       0
  7957 ;;      Locals:         0       3       0       0       0       0       0       0       0
  7958 ;;      Temps:          0       0       0       0       0       0       0       0       0
  7959 ;;      Totals:         0       5       0       0       0       0       0       0       0
  7960 ;;Total ram usage:        5 bytes
  7961 ;; Hardware stack levels used:    1
  7962 ;; Hardware stack levels required when called:    6
  7963 ;; This function calls:
  7964 ;;		_EEPROM_W
  7965 ;; This function is called by:
  7966 ;;		_main
  7967 ;;		_EditseT
  7968 ;; This function uses a non-reentrant model
  7969 ;;
  7970                           
  7971                           	psect	text37
  7972  0032E4                     __ptext37:
  7973                           	opt callstack 0
  7974  0032E4                     _GuardarsetY:
  7975                           	opt callstack 24
  7976                           
  7977                           ; BSR set to: 0
  7978                           ;incstack = 0
  7979                           ;GuardarsetY@dir stored from wreg
  7980  0032E4  0100               	movlb	0	; () banked
  7981  0032E6  6F66               	movwf	GuardarsetY@dir& (0+255),b
  7982  0032E8                     
  7983                           ;SETPOINTS.c: 32:     uint8_t YH=(uint8_t)((Y>>8)&(0xFF));
  7984  0032E8  0100               	movlb	0	; () banked
  7985  0032EA  5163               	movf	(GuardarsetY@Y+1)& (0+255),w,b
  7986  0032EC  6F64               	movwf	GuardarsetY@YH& (0+255),b
  7987  0032EE                     
  7988                           ; BSR set to: 0
  7989                           ;SETPOINTS.c: 33:     uint8_t YL=(uint8_t)(Y&0xFF);
  7990  0032EE  C062  F065         	movff	GuardarsetY@Y,GuardarsetY@YL
  7991  0032F2                     
  7992                           ; BSR set to: 0
  7993                           ;SETPOINTS.c: 34:     EEPROM_W(dir, YL);
  7994  0032F2  C065  F060         	movff	GuardarsetY@YL,EEPROM_W@dato
  7995  0032F6  5166               	movf	GuardarsetY@dir& (0+255),w,b
  7996  0032F8  ECD6  F018         	call	_EEPROM_W
  7997  0032FC                     
  7998                           ;SETPOINTS.c: 35:     EEPROM_W(dir+1, YH);
  7999  0032FC  C064  F060         	movff	GuardarsetY@YH,EEPROM_W@dato
  8000  003300  0100               	movlb	0	; () banked
  8001  003302  2966               	incf	GuardarsetY@dir& (0+255),w,b
  8002  003304  ECD6  F018         	call	_EEPROM_W
  8003  003308  0012               	return		;funcret
  8004  00330A                     __end_of_GuardarsetY:
  8005                           	opt callstack 0
  8006                           
  8007 ;; *************** function _GuardarsetX *****************
  8008 ;; Defined at:
  8009 ;;		line 24 in file "SETPOINTS.c"
  8010 ;; Parameters:    Size  Location     Type
  8011 ;;  dir             1    wreg     unsigned char 
  8012 ;;  X               2    2[BANK0 ] unsigned short 
  8013 ;; Auto vars:     Size  Location     Type
  8014 ;;  dir             1    6[BANK0 ] unsigned char 
  8015 ;;  XL              1    5[BANK0 ] unsigned char 
  8016 ;;  XH              1    4[BANK0 ] unsigned char 
  8017 ;; Return value:  Size  Location     Type
  8018 ;;                  1    wreg      void 
  8019 ;; Registers used:
  8020 ;;		wreg, status,2, status,0, cstack
  8021 ;; Tracked objects:
  8022 ;;		On entry : 0/0
  8023 ;;		On exit  : 0/0
  8024 ;;		Unchanged: 0/0
  8025 ;; Data sizes:     COMRAM   BANK0   BANK1   BANK2   BANK3   BANK4   BANK5   BANK6   BANK7
  8026 ;;      Params:         0       2       0       0       0       0       0       0       0
  8027 ;;      Locals:         0       3       0       0       0       0       0       0       0
  8028 ;;      Temps:          0       0       0       0       0       0       0       0       0
  8029 ;;      Totals:         0       5       0       0       0       0       0       0       0
  8030 ;;Total ram usage:        5 bytes
  8031 ;; Hardware stack levels used:    1
  8032 ;; Hardware stack levels required when called:    6
  8033 ;; This function calls:
  8034 ;;		_EEPROM_W
  8035 ;; This function is called by:
  8036 ;;		_main
  8037 ;;		_EditseT
  8038 ;; This function uses a non-reentrant model
  8039 ;;
  8040                           
  8041                           	psect	text38
  8042  00330A                     __ptext38:
  8043                           	opt callstack 0
  8044  00330A                     _GuardarsetX:
  8045                           	opt callstack 24
  8046                           
  8047                           ;incstack = 0
  8048                           ;GuardarsetX@dir stored from wreg
  8049  00330A  0100               	movlb	0	; () banked
  8050  00330C  6F66               	movwf	GuardarsetX@dir& (0+255),b
  8051  00330E                     
  8052                           ;SETPOINTS.c: 25:     uint8_t XH=(uint8_t)((X>>8)&(0xFF));
  8053  00330E  0100               	movlb	0	; () banked
  8054  003310  5163               	movf	(GuardarsetX@X+1)& (0+255),w,b
  8055  003312  6F64               	movwf	GuardarsetX@XH& (0+255),b
  8056  003314                     
  8057                           ; BSR set to: 0
  8058                           ;SETPOINTS.c: 26:     uint8_t XL=(uint8_t)(X&0xFF);
  8059  003314  C062  F065         	movff	GuardarsetX@X,GuardarsetX@XL
  8060  003318                     
  8061                           ; BSR set to: 0
  8062                           ;SETPOINTS.c: 27:     EEPROM_W(dir, XL);
  8063  003318  C065  F060         	movff	GuardarsetX@XL,EEPROM_W@dato
  8064  00331C  5166               	movf	GuardarsetX@dir& (0+255),w,b
  8065  00331E  ECD6  F018         	call	_EEPROM_W
  8066  003322                     
  8067                           ;SETPOINTS.c: 28:     EEPROM_W(dir+1, XH);
  8068  003322  C064  F060         	movff	GuardarsetX@XH,EEPROM_W@dato
  8069  003326  0100               	movlb	0	; () banked
  8070  003328  2966               	incf	GuardarsetX@dir& (0+255),w,b
  8071  00332A  ECD6  F018         	call	_EEPROM_W
  8072  00332E  0012               	return		;funcret
  8073  003330                     __end_of_GuardarsetX:
  8074                           	opt callstack 0
  8075                           
  8076 ;; *************** function _CREARINS *****************
  8077 ;; Defined at:
  8078 ;;		line 258 in file "SETPOINTS.c"
  8079 ;; Parameters:    Size  Location     Type
  8080 ;;		None
  8081 ;; Auto vars:     Size  Location     Type
  8082 ;;  elecc           1   57[BANK0 ] unsigned char 
  8083 ;; Return value:  Size  Location     Type
  8084 ;;                  1    wreg      void 
  8085 ;; Registers used:
  8086 ;;		wreg, fsr1l, fsr1h, fsr2l, fsr2h, status,2, status,0, cstack
  8087 ;; Tracked objects:
  8088 ;;		On entry : 0/0
  8089 ;;		On exit  : 0/0
  8090 ;;		Unchanged: 0/0
  8091 ;; Data sizes:     COMRAM   BANK0   BANK1   BANK2   BANK3   BANK4   BANK5   BANK6   BANK7
  8092 ;;      Params:         0       0       0       0       0       0       0       0       0
  8093 ;;      Locals:         0       1       0       0       0       0       0       0       0
  8094 ;;      Temps:          0       0       0       0       0       0       0       0       0
  8095 ;;      Totals:         0       1       0       0       0       0       0       0       0
  8096 ;;Total ram usage:        1 bytes
  8097 ;; Hardware stack levels used:    1
  8098 ;; Hardware stack levels required when called:    9
  8099 ;; This function calls:
  8100 ;;		_BORRARINSTRUCCION
  8101 ;;		_INSTRUCCION
  8102 ;;		_PREGUNTA
  8103 ;;		_UARTRead
  8104 ;; This function is called by:
  8105 ;;		_main
  8106 ;; This function uses a non-reentrant model
  8107 ;;
  8108                           
  8109                           	psect	text39
  8110  002A46                     __ptext39:
  8111                           	opt callstack 0
  8112  002A46                     _CREARINS:
  8113                           	opt callstack 21
  8114  002A46                     
  8115                           ;SETPOINTS.c: 259:     uint8_t elecc=0;
  8116  002A46  0E00               	movlw	0
  8117  002A48  0100               	movlb	0	; () banked
  8118  002A4A  6F99               	movwf	CREARINS@elecc& (0+255),b
  8119  002A4C                     
  8120                           ; BSR set to: 0
  8121                           ;SETPOINTS.c: 260:     PREGUNTA();
  8122  002A4C  ECA2  F016         	call	_PREGUNTA	;wreg free
  8123                           
  8124                           ;SETPOINTS.c: 261:     while(elecc!='1'&&elecc!='2') {
  8125  002A50  EF2E  F015         	goto	l5251
  8126  002A54                     l5249:
  8127                           
  8128                           ; BSR set to: 0
  8129                           ;SETPOINTS.c: 262:         elecc=UARTRead();
  8130  002A54  ECF1  F014         	call	_UARTRead	;wreg free
  8131  002A58  0100               	movlb	0	; () banked
  8132  002A5A  6F99               	movwf	CREARINS@elecc& (0+255),b
  8133  002A5C                     l5251:
  8134                           
  8135                           ;SETPOINTS.c: 261:     while(elecc!='1'&&elecc!='2') {
  8136  002A5C  0E31               	movlw	49
  8137  002A5E  0100               	movlb	0	; () banked
  8138  002A60  1999               	xorwf	CREARINS@elecc& (0+255),w,b
  8139  002A62  B4D8               	btfsc	status,2,c
  8140  002A64  EF36  F015         	goto	u5541
  8141  002A68  EF38  F015         	goto	u5540
  8142  002A6C                     u5541:
  8143  002A6C  EF41  F015         	goto	l5255
  8144  002A70                     u5540:
  8145  002A70                     
  8146                           ; BSR set to: 0
  8147  002A70  0E32               	movlw	50
  8148  002A72  1999               	xorwf	CREARINS@elecc& (0+255),w,b
  8149  002A74  A4D8               	btfss	status,2,c
  8150  002A76  EF3F  F015         	goto	u5551
  8151  002A7A  EF41  F015         	goto	u5550
  8152  002A7E                     u5551:
  8153  002A7E  EF2A  F015         	goto	l5249
  8154  002A82                     u5550:
  8155  002A82                     l5255:
  8156                           
  8157                           ; BSR set to: 0
  8158                           ;SETPOINTS.c: 264:     if(elecc=='1') {
  8159  002A82  0E31               	movlw	49
  8160  002A84  1999               	xorwf	CREARINS@elecc& (0+255),w,b
  8161  002A86  A4D8               	btfss	status,2,c
  8162  002A88  EF48  F015         	goto	u5561
  8163  002A8C  EF4A  F015         	goto	u5560
  8164  002A90                     u5561:
  8165  002A90  EF4E  F015         	goto	l720
  8166  002A94                     u5560:
  8167  002A94                     
  8168                           ; BSR set to: 0
  8169                           ;SETPOINTS.c: 265:         BORRARINSTRUCCION();
  8170  002A94  EC98  F019         	call	_BORRARINSTRUCCION	;wreg free
  8171  002A98                     
  8172                           ;SETPOINTS.c: 266:         INSTRUCCION();
  8173  002A98  EC54  F013         	call	_INSTRUCCION	;wreg free
  8174  002A9C                     l720:
  8175  002A9C  0012               	return		;funcret
  8176  002A9E                     __end_of_CREARINS:
  8177                           	opt callstack 0
  8178                           
  8179 ;; *************** function _PREGUNTA *****************
  8180 ;; Defined at:
  8181 ;;		line 161 in file "../Proyectoa4550.X/Mensajes50.c"
  8182 ;; Parameters:    Size  Location     Type
  8183 ;;		None
  8184 ;; Auto vars:     Size  Location     Type
  8185 ;;  C               1   56[BANK0 ] unsigned char 
  8186 ;;  F              55    1[BANK0 ] unsigned char [55]
  8187 ;; Return value:  Size  Location     Type
  8188 ;;                  1    wreg      void 
  8189 ;; Registers used:
  8190 ;;		wreg, fsr1l, fsr1h, fsr2l, fsr2h, status,2, status,0, cstack
  8191 ;; Tracked objects:
  8192 ;;		On entry : 0/0
  8193 ;;		On exit  : 0/0
  8194 ;;		Unchanged: 0/0
  8195 ;; Data sizes:     COMRAM   BANK0   BANK1   BANK2   BANK3   BANK4   BANK5   BANK6   BANK7
  8196 ;;      Params:         0       0       0       0       0       0       0       0       0
  8197 ;;      Locals:         0      56       0       0       0       0       0       0       0
  8198 ;;      Temps:          0       0       0       0       0       0       0       0       0
  8199 ;;      Totals:         0      56       0       0       0       0       0       0       0
  8200 ;;Total ram usage:       56 bytes
  8201 ;; Hardware stack levels used:    1
  8202 ;; Hardware stack levels required when called:    6
  8203 ;; This function calls:
  8204 ;;		_UARTWrite
  8205 ;; This function is called by:
  8206 ;;		_CREARINS
  8207 ;; This function uses a non-reentrant model
  8208 ;;
  8209                           
  8210                           	psect	text40
  8211  002D44                     __ptext40:
  8212                           	opt callstack 0
  8213  002D44                     _PREGUNTA:
  8214                           	opt callstack 23
  8215  002D44                     
  8216                           ;../Proyectoa4550.X/Mensajes50.c: 162:     uint8_t F[]="Borraras la instruccion actual E
      +                          stas seguro? 1Si 2No\n\r";
  8217  002D44  EE21  F000         	lfsr	2,PREGUNTA@F3648
  8218  002D48  EE10  F061         	lfsr	1,PREGUNTA@F
  8219  002D4C  0E36               	movlw	54
  8220  002D4E                     u4741:
  8221  002D4E  CFDB FFE3          	movff	plusw2,plusw1
  8222  002D52  06E8               	decf	wreg,f,c
  8223  002D54  E2FC               	bc	u4741
  8224  002D56                     
  8225                           ;../Proyectoa4550.X/Mensajes50.c: 163:     for(uint8_t C=0; C<(sizeof(F)); C++) {
  8226  002D56  0E00               	movlw	0
  8227  002D58  0100               	movlb	0	; () banked
  8228  002D5A  6F98               	movwf	PREGUNTA@C& (0+255),b
  8229  002D5C                     l4501:
  8230                           
  8231                           ; BSR set to: 0
  8232                           ;../Proyectoa4550.X/Mensajes50.c: 164:             UARTWrite(F[C]);
  8233  002D5C  0E61               	movlw	low PREGUNTA@F
  8234  002D5E  2598               	addwf	PREGUNTA@C& (0+255),w,b
  8235  002D60  6ED9               	movwf	fsr2l,c
  8236  002D62  6ADA               	clrf	fsr2h,c
  8237  002D64  0E00               	movlw	high PREGUNTA@F
  8238  002D66  22DA               	addwfc	fsr2h,f,c
  8239  002D68  50DF               	movf	indf2,w,c
  8240  002D6A  EC57  F01A         	call	_UARTWrite
  8241  002D6E                     
  8242                           ;../Proyectoa4550.X/Mensajes50.c: 165:     }
  8243  002D6E  0100               	movlb	0	; () banked
  8244  002D70  2B98               	incf	PREGUNTA@C& (0+255),f,b
  8245  002D72                     
  8246                           ; BSR set to: 0
  8247  002D72  0E36               	movlw	54
  8248  002D74  6598               	cpfsgt	PREGUNTA@C& (0+255),b
  8249  002D76  EFBF  F016         	goto	u4751
  8250  002D7A  EFC1  F016         	goto	u4750
  8251  002D7E                     u4751:
  8252  002D7E  EFAE  F016         	goto	l4501
  8253  002D82                     u4750:
  8254  002D82                     
  8255                           ; BSR set to: 0
  8256  002D82  0012               	return		;funcret
  8257  002D84                     __end_of_PREGUNTA:
  8258                           	opt callstack 0
  8259                           
  8260 ;; *************** function _INSTRUCCION *****************
  8261 ;; Defined at:
  8262 ;;		line 201 in file "SETPOINTS.c"
  8263 ;; Parameters:    Size  Location     Type
  8264 ;;		None
  8265 ;; Auto vars:     Size  Location     Type
  8266 ;;  dir             1   42[BANK0 ] unsigned char 
  8267 ;;  Menumov         1   41[BANK0 ] unsigned char 
  8268 ;; Return value:  Size  Location     Type
  8269 ;;                  1    wreg      void 
  8270 ;; Registers used:
  8271 ;;		wreg, fsr1l, fsr1h, fsr2l, fsr2h, status,2, status,0, cstack
  8272 ;; Tracked objects:
  8273 ;;		On entry : 0/0
  8274 ;;		On exit  : 0/0
  8275 ;;		Unchanged: 0/0
  8276 ;; Data sizes:     COMRAM   BANK0   BANK1   BANK2   BANK3   BANK4   BANK5   BANK6   BANK7
  8277 ;;      Params:         0       0       0       0       0       0       0       0       0
  8278 ;;      Locals:         0       2       0       0       0       0       0       0       0
  8279 ;;      Temps:          0       0       0       0       0       0       0       0       0
  8280 ;;      Totals:         0       2       0       0       0       0       0       0       0
  8281 ;;Total ram usage:        2 bytes
  8282 ;; Hardware stack levels used:    1
  8283 ;; Hardware stack levels required when called:    8
  8284 ;; This function calls:
  8285 ;;		_EEPROM_W
  8286 ;;		_ESCRIBIRINSTRUCCION
  8287 ;;		_MENUINS
  8288 ;;		_NOHAYESPACIO
  8289 ;;		_UARTRead
  8290 ;; This function is called by:
  8291 ;;		_CREARINS
  8292 ;; This function uses a non-reentrant model
  8293 ;;
  8294                           
  8295                           	psect	text41
  8296  0026A8                     __ptext41:
  8297                           	opt callstack 0
  8298  0026A8                     _INSTRUCCION:
  8299                           	opt callstack 21
  8300  0026A8                     
  8301                           ;SETPOINTS.c: 202:     uint8_t dir=160;
  8302  0026A8  0EA0               	movlw	160
  8303  0026AA  0100               	movlb	0	; () banked
  8304  0026AC  6F8A               	movwf	INSTRUCCION@dir& (0+255),b
  8305                           
  8306                           ;SETPOINTS.c: 203:     uint8_t Menumov=0;
  8307  0026AE  0E00               	movlw	0
  8308  0026B0  6F89               	movwf	INSTRUCCION@Menumov& (0+255),b
  8309                           
  8310                           ;SETPOINTS.c: 204:     while(Menumov!='3') {
  8311  0026B2  EF9F  F013         	goto	l4643
  8312  0026B6                     l4621:
  8313                           
  8314                           ; BSR set to: 0
  8315                           ;SETPOINTS.c: 205:         MENUINS();
  8316  0026B6  ECE2  F016         	call	_MENUINS	;wreg free
  8317  0026BA                     
  8318                           ;SETPOINTS.c: 206:         Menumov=UARTRead();
  8319  0026BA  ECF1  F014         	call	_UARTRead	;wreg free
  8320  0026BE  0100               	movlb	0	; () banked
  8321  0026C0  6F89               	movwf	INSTRUCCION@Menumov& (0+255),b
  8322  0026C2                     
  8323                           ; BSR set to: 0
  8324                           ;SETPOINTS.c: 207:         if(Menumov=='1'&&dir<252) {
  8325  0026C2  0E31               	movlw	49
  8326  0026C4  1989               	xorwf	INSTRUCCION@Menumov& (0+255),w,b
  8327  0026C6  A4D8               	btfss	status,2,c
  8328  0026C8  EF68  F013         	goto	u4881
  8329  0026CC  EF6A  F013         	goto	u4880
  8330  0026D0                     u4881:
  8331  0026D0  EF79  F013         	goto	l4631
  8332  0026D4                     u4880:
  8333  0026D4                     
  8334                           ; BSR set to: 0
  8335  0026D4  0EFC               	movlw	252
  8336  0026D6  618A               	cpfslt	INSTRUCCION@dir& (0+255),b
  8337  0026D8  EF70  F013         	goto	u4891
  8338  0026DC  EF72  F013         	goto	u4890
  8339  0026E0                     u4891:
  8340  0026E0  EF79  F013         	goto	l4631
  8341  0026E4                     u4890:
  8342  0026E4                     
  8343                           ; BSR set to: 0
  8344                           ;SETPOINTS.c: 208:             dir=ESCRIBIRINSTRUCCION(dir);
  8345  0026E4  518A               	movf	INSTRUCCION@dir& (0+255),w,b
  8346  0026E6  ECAA  F013         	call	_ESCRIBIRINSTRUCCION
  8347  0026EA  0100               	movlb	0	; () banked
  8348  0026EC  6F8A               	movwf	INSTRUCCION@dir& (0+255),b
  8349                           
  8350                           ;SETPOINTS.c: 209:         } else if(Menumov=='2'&&dir<252) {
  8351  0026EE  EF9F  F013         	goto	l4643
  8352  0026F2                     l4631:
  8353                           
  8354                           ; BSR set to: 0
  8355  0026F2  0E32               	movlw	50
  8356  0026F4  1989               	xorwf	INSTRUCCION@Menumov& (0+255),w,b
  8357  0026F6  A4D8               	btfss	status,2,c
  8358  0026F8  EF80  F013         	goto	u4901
  8359  0026FC  EF82  F013         	goto	u4900
  8360  002700                     u4901:
  8361  002700  EF93  F013         	goto	l4639
  8362  002704                     u4900:
  8363  002704                     
  8364                           ; BSR set to: 0
  8365  002704  0EFC               	movlw	252
  8366  002706  618A               	cpfslt	INSTRUCCION@dir& (0+255),b
  8367  002708  EF88  F013         	goto	u4911
  8368  00270C  EF8A  F013         	goto	u4910
  8369  002710                     u4911:
  8370  002710  EF93  F013         	goto	l4639
  8371  002714                     u4910:
  8372  002714                     
  8373                           ; BSR set to: 0
  8374                           ;SETPOINTS.c: 210:             EEPROM_W(dir,20);
  8375  002714  0E14               	movlw	20
  8376  002716  6F60               	movwf	EEPROM_W@dato& (0+255),b
  8377  002718  518A               	movf	INSTRUCCION@dir& (0+255),w,b
  8378  00271A  ECD6  F018         	call	_EEPROM_W
  8379  00271E                     
  8380                           ;SETPOINTS.c: 211:             dir++;
  8381  00271E  0100               	movlb	0	; () banked
  8382  002720  2B8A               	incf	INSTRUCCION@dir& (0+255),f,b
  8383                           
  8384                           ;SETPOINTS.c: 212:         } else if(dir>=252) {
  8385  002722  EF9F  F013         	goto	l4643
  8386  002726                     l4639:
  8387                           
  8388                           ; BSR set to: 0
  8389  002726  0EFB               	movlw	251
  8390  002728  658A               	cpfsgt	INSTRUCCION@dir& (0+255),b
  8391  00272A  EF99  F013         	goto	u4921
  8392  00272E  EF9B  F013         	goto	u4920
  8393  002732                     u4921:
  8394  002732  EF9F  F013         	goto	l689
  8395  002736                     u4920:
  8396  002736                     
  8397                           ; BSR set to: 0
  8398                           ;SETPOINTS.c: 213:             NOHAYESPACIO();
  8399  002736  ECC2  F016         	call	_NOHAYESPACIO	;wreg free
  8400  00273A  EF9F  F013         	goto	l4643
  8401  00273E                     l689:
  8402  00273E                     l4643:
  8403                           
  8404                           ;SETPOINTS.c: 204:     while(Menumov!='3') {
  8405  00273E  0E33               	movlw	51
  8406  002740  0100               	movlb	0	; () banked
  8407  002742  1989               	xorwf	INSTRUCCION@Menumov& (0+255),w,b
  8408  002744  A4D8               	btfss	status,2,c
  8409  002746  EFA7  F013         	goto	u4931
  8410  00274A  EFA9  F013         	goto	u4930
  8411  00274E                     u4931:
  8412  00274E  EF5B  F013         	goto	l4621
  8413  002752                     u4930:
  8414  002752                     
  8415                           ; BSR set to: 0
  8416  002752  0012               	return		;funcret
  8417  002754                     __end_of_INSTRUCCION:
  8418                           	opt callstack 0
  8419                           
  8420 ;; *************** function _NOHAYESPACIO *****************
  8421 ;; Defined at:
  8422 ;;		line 148 in file "../Proyectoa4550.X/Mensajes50.c"
  8423 ;; Parameters:    Size  Location     Type
  8424 ;;		None
  8425 ;; Auto vars:     Size  Location     Type
  8426 ;;  C               1   40[BANK0 ] unsigned char 
  8427 ;;  F              39    1[BANK0 ] unsigned char [39]
  8428 ;; Return value:  Size  Location     Type
  8429 ;;                  1    wreg      void 
  8430 ;; Registers used:
  8431 ;;		wreg, fsr1l, fsr1h, fsr2l, fsr2h, status,2, status,0, cstack
  8432 ;; Tracked objects:
  8433 ;;		On entry : 0/0
  8434 ;;		On exit  : 0/0
  8435 ;;		Unchanged: 0/0
  8436 ;; Data sizes:     COMRAM   BANK0   BANK1   BANK2   BANK3   BANK4   BANK5   BANK6   BANK7
  8437 ;;      Params:         0       0       0       0       0       0       0       0       0
  8438 ;;      Locals:         0      40       0       0       0       0       0       0       0
  8439 ;;      Temps:          0       0       0       0       0       0       0       0       0
  8440 ;;      Totals:         0      40       0       0       0       0       0       0       0
  8441 ;;Total ram usage:       40 bytes
  8442 ;; Hardware stack levels used:    1
  8443 ;; Hardware stack levels required when called:    6
  8444 ;; This function calls:
  8445 ;;		_UARTWrite
  8446 ;; This function is called by:
  8447 ;;		_INSTRUCCION
  8448 ;; This function uses a non-reentrant model
  8449 ;;
  8450                           
  8451                           	psect	text42
  8452  002D84                     __ptext42:
  8453                           	opt callstack 0
  8454  002D84                     _NOHAYESPACIO:
  8455                           	opt callstack 22
  8456  002D84                     
  8457                           ;../Proyectoa4550.X/Mensajes50.c: 149:     uint8_t F[]="No puedes escribir mas instrucci
      +                          ones\n\r";
  8458  002D84  EE21  F037         	lfsr	2,NOHAYESPACIO@F3640
  8459  002D88  EE10  F061         	lfsr	1,NOHAYESPACIO@F
  8460  002D8C  0E26               	movlw	38
  8461  002D8E                     u4351:
  8462  002D8E  CFDB FFE3          	movff	plusw2,plusw1
  8463  002D92  06E8               	decf	wreg,f,c
  8464  002D94  E2FC               	bc	u4351
  8465  002D96                     
  8466                           ;../Proyectoa4550.X/Mensajes50.c: 150:     for(uint8_t C=0; C<(sizeof(F)); C++) {
  8467  002D96  0E00               	movlw	0
  8468  002D98  0100               	movlb	0	; () banked
  8469  002D9A  6F88               	movwf	NOHAYESPACIO@C& (0+255),b
  8470  002D9C                     l4239:
  8471                           
  8472                           ; BSR set to: 0
  8473                           ;../Proyectoa4550.X/Mensajes50.c: 151:             UARTWrite(F[C]);
  8474  002D9C  0E61               	movlw	low NOHAYESPACIO@F
  8475  002D9E  2588               	addwf	NOHAYESPACIO@C& (0+255),w,b
  8476  002DA0  6ED9               	movwf	fsr2l,c
  8477  002DA2  6ADA               	clrf	fsr2h,c
  8478  002DA4  0E00               	movlw	high NOHAYESPACIO@F
  8479  002DA6  22DA               	addwfc	fsr2h,f,c
  8480  002DA8  50DF               	movf	indf2,w,c
  8481  002DAA  EC57  F01A         	call	_UARTWrite
  8482  002DAE                     
  8483                           ;../Proyectoa4550.X/Mensajes50.c: 152:     }
  8484  002DAE  0100               	movlb	0	; () banked
  8485  002DB0  2B88               	incf	NOHAYESPACIO@C& (0+255),f,b
  8486  002DB2                     
  8487                           ; BSR set to: 0
  8488  002DB2  0E26               	movlw	38
  8489  002DB4  6588               	cpfsgt	NOHAYESPACIO@C& (0+255),b
  8490  002DB6  EFDF  F016         	goto	u4361
  8491  002DBA  EFE1  F016         	goto	u4360
  8492  002DBE                     u4361:
  8493  002DBE  EFCE  F016         	goto	l4239
  8494  002DC2                     u4360:
  8495  002DC2                     
  8496                           ; BSR set to: 0
  8497  002DC2  0012               	return		;funcret
  8498  002DC4                     __end_of_NOHAYESPACIO:
  8499                           	opt callstack 0
  8500                           
  8501 ;; *************** function _MENUINS *****************
  8502 ;; Defined at:
  8503 ;;		line 155 in file "../Proyectoa4550.X/Mensajes50.c"
  8504 ;; Parameters:    Size  Location     Type
  8505 ;;		None
  8506 ;; Auto vars:     Size  Location     Type
  8507 ;;  C               1   33[BANK0 ] unsigned char 
  8508 ;;  F              32    1[BANK0 ] unsigned char [32]
  8509 ;; Return value:  Size  Location     Type
  8510 ;;                  1    wreg      void 
  8511 ;; Registers used:
  8512 ;;		wreg, fsr1l, fsr1h, fsr2l, fsr2h, status,2, status,0, cstack
  8513 ;; Tracked objects:
  8514 ;;		On entry : 0/0
  8515 ;;		On exit  : 0/0
  8516 ;;		Unchanged: 0/0
  8517 ;; Data sizes:     COMRAM   BANK0   BANK1   BANK2   BANK3   BANK4   BANK5   BANK6   BANK7
  8518 ;;      Params:         0       0       0       0       0       0       0       0       0
  8519 ;;      Locals:         0      33       0       0       0       0       0       0       0
  8520 ;;      Temps:          0       0       0       0       0       0       0       0       0
  8521 ;;      Totals:         0      33       0       0       0       0       0       0       0
  8522 ;;Total ram usage:       33 bytes
  8523 ;; Hardware stack levels used:    1
  8524 ;; Hardware stack levels required when called:    6
  8525 ;; This function calls:
  8526 ;;		_UARTWrite
  8527 ;; This function is called by:
  8528 ;;		_INSTRUCCION
  8529 ;; This function uses a non-reentrant model
  8530 ;;
  8531                           
  8532                           	psect	text43
  8533  002DC4                     __ptext43:
  8534                           	opt callstack 0
  8535  002DC4                     _MENUINS:
  8536                           	opt callstack 22
  8537  002DC4                     
  8538                           ;../Proyectoa4550.X/Mensajes50.c: 156:     uint8_t F[]="1Movimiento 2Accion 3Terminar\n\
      +                          r";
  8539  002DC4  EE21  F05E         	lfsr	2,MENUINS@F3644
  8540  002DC8  EE10  F061         	lfsr	1,MENUINS@F
  8541  002DCC  0E1F               	movlw	31
  8542  002DCE                     u4371:
  8543  002DCE  CFDB FFE3          	movff	plusw2,plusw1
  8544  002DD2  06E8               	decf	wreg,f,c
  8545  002DD4  E2FC               	bc	u4371
  8546  002DD6                     
  8547                           ;../Proyectoa4550.X/Mensajes50.c: 157:     for(uint8_t C=0; C<(sizeof(F)); C++) {
  8548  002DD6  0E00               	movlw	0
  8549  002DD8  0100               	movlb	0	; () banked
  8550  002DDA  6F81               	movwf	MENUINS@C& (0+255),b
  8551  002DDC                     l4253:
  8552                           
  8553                           ; BSR set to: 0
  8554                           ;../Proyectoa4550.X/Mensajes50.c: 158:             UARTWrite(F[C]);
  8555  002DDC  0E61               	movlw	low MENUINS@F
  8556  002DDE  2581               	addwf	MENUINS@C& (0+255),w,b
  8557  002DE0  6ED9               	movwf	fsr2l,c
  8558  002DE2  6ADA               	clrf	fsr2h,c
  8559  002DE4  0E00               	movlw	high MENUINS@F
  8560  002DE6  22DA               	addwfc	fsr2h,f,c
  8561  002DE8  50DF               	movf	indf2,w,c
  8562  002DEA  EC57  F01A         	call	_UARTWrite
  8563  002DEE                     
  8564                           ;../Proyectoa4550.X/Mensajes50.c: 159:     }
  8565  002DEE  0100               	movlb	0	; () banked
  8566  002DF0  2B81               	incf	MENUINS@C& (0+255),f,b
  8567  002DF2                     
  8568                           ; BSR set to: 0
  8569  002DF2  0E1F               	movlw	31
  8570  002DF4  6581               	cpfsgt	MENUINS@C& (0+255),b
  8571  002DF6  EFFF  F016         	goto	u4381
  8572  002DFA  EF01  F017         	goto	u4380
  8573  002DFE                     u4381:
  8574  002DFE  EFEE  F016         	goto	l4253
  8575  002E02                     u4380:
  8576  002E02                     
  8577                           ; BSR set to: 0
  8578  002E02  0012               	return		;funcret
  8579  002E04                     __end_of_MENUINS:
  8580                           	opt callstack 0
  8581                           
  8582 ;; *************** function _ESCRIBIRINSTRUCCION *****************
  8583 ;; Defined at:
  8584 ;;		line 176 in file "SETPOINTS.c"
  8585 ;; Parameters:    Size  Location     Type
  8586 ;;  dir             1    wreg     unsigned char 
  8587 ;; Auto vars:     Size  Location     Type
  8588 ;;  dir             1   32[BANK0 ] unsigned char 
  8589 ;;  b               1   33[BANK0 ] unsigned char 
  8590 ;;  dato            4   26[BANK0 ] unsigned char [4]
  8591 ;;  i               1   31[BANK0 ] unsigned char 
  8592 ;;  send            1   30[BANK0 ] unsigned char 
  8593 ;; Return value:  Size  Location     Type
  8594 ;;                  1    wreg      unsigned char 
  8595 ;; Registers used:
  8596 ;;		wreg, fsr1l, fsr1h, fsr2l, fsr2h, status,2, status,0, cstack
  8597 ;; Tracked objects:
  8598 ;;		On entry : 0/0
  8599 ;;		On exit  : 0/0
  8600 ;;		Unchanged: 0/0
  8601 ;; Data sizes:     COMRAM   BANK0   BANK1   BANK2   BANK3   BANK4   BANK5   BANK6   BANK7
  8602 ;;      Params:         0       0       0       0       0       0       0       0       0
  8603 ;;      Locals:         0       8       0       0       0       0       0       0       0
  8604 ;;      Temps:          0       0       0       0       0       0       0       0       0
  8605 ;;      Totals:         0       8       0       0       0       0       0       0       0
  8606 ;;Total ram usage:        8 bytes
  8607 ;; Hardware stack levels used:    1
  8608 ;; Hardware stack levels required when called:    7
  8609 ;; This function calls:
  8610 ;;		_GuardarsetN
  8611 ;;		_SETNOEX
  8612 ;;		_SETPOINTBUSCAR
  8613 ;;		_UARTRead
  8614 ;;		_UARTWrite
  8615 ;; This function is called by:
  8616 ;;		_INSTRUCCION
  8617 ;; This function uses a non-reentrant model
  8618 ;;
  8619                           
  8620                           	psect	text44
  8621  002754                     __ptext44:
  8622                           	opt callstack 0
  8623  002754                     _ESCRIBIRINSTRUCCION:
  8624                           	opt callstack 21
  8625                           
  8626                           ; BSR set to: 0
  8627                           ;incstack = 0
  8628                           ;ESCRIBIRINSTRUCCION@dir stored from wreg
  8629  002754  0100               	movlb	0	; () banked
  8630  002756  6F80               	movwf	ESCRIBIRINSTRUCCION@dir& (0+255),b
  8631  002758                     
  8632                           ;SETPOINTS.c: 177:     uint8_t dato[4];;SETPOINTS.c: 178:     uint8_t send;;SETPOINTS.c:
      +                           179:     for(uint8_t b=0; b<4; b++) {
  8633  002758  0E00               	movlw	0
  8634  00275A  0100               	movlb	0	; () banked
  8635  00275C  6F81               	movwf	ESCRIBIRINSTRUCCION@b& (0+255),b
  8636  00275E                     l4275:
  8637                           
  8638                           ; BSR set to: 0
  8639                           ;SETPOINTS.c: 180:         dato[b]=UARTRead();
  8640  00275E  0E7A               	movlw	low ESCRIBIRINSTRUCCION@dato
  8641  002760  2581               	addwf	ESCRIBIRINSTRUCCION@b& (0+255),w,b
  8642  002762  6ED9               	movwf	fsr2l,c
  8643  002764  6ADA               	clrf	fsr2h,c
  8644  002766  0E00               	movlw	high ESCRIBIRINSTRUCCION@dato
  8645  002768  22DA               	addwfc	fsr2h,f,c
  8646  00276A  ECF1  F014         	call	_UARTRead	;wreg free
  8647  00276E  6EDF               	movwf	indf2,c
  8648  002770                     
  8649                           ;SETPOINTS.c: 181:         __nop();
  8650  002770  F000               	nop	
  8651  002772                     
  8652                           ;SETPOINTS.c: 182:         send=dato[b];
  8653  002772  0E7A               	movlw	low ESCRIBIRINSTRUCCION@dato
  8654  002774  0100               	movlb	0	; () banked
  8655  002776  2581               	addwf	ESCRIBIRINSTRUCCION@b& (0+255),w,b
  8656  002778  6ED9               	movwf	fsr2l,c
  8657  00277A  6ADA               	clrf	fsr2h,c
  8658  00277C  0E00               	movlw	high ESCRIBIRINSTRUCCION@dato
  8659  00277E  22DA               	addwfc	fsr2h,f,c
  8660  002780  50DF               	movf	indf2,w,c
  8661  002782  6F7E               	movwf	ESCRIBIRINSTRUCCION@send& (0+255),b
  8662  002784                     
  8663                           ; BSR set to: 0
  8664                           ;SETPOINTS.c: 183:         __nop();
  8665  002784  F000               	nop	
  8666  002786                     
  8667                           ;SETPOINTS.c: 184:         UARTWrite(send);
  8668  002786  0100               	movlb	0	; () banked
  8669  002788  517E               	movf	ESCRIBIRINSTRUCCION@send& (0+255),w,b
  8670  00278A  EC57  F01A         	call	_UARTWrite
  8671  00278E                     
  8672                           ;SETPOINTS.c: 185:     }
  8673  00278E  0100               	movlb	0	; () banked
  8674  002790  2B81               	incf	ESCRIBIRINSTRUCCION@b& (0+255),f,b
  8675  002792                     
  8676                           ; BSR set to: 0
  8677  002792  0E03               	movlw	3
  8678  002794  6581               	cpfsgt	ESCRIBIRINSTRUCCION@b& (0+255),b
  8679  002796  EFCF  F013         	goto	u4391
  8680  00279A  EFD1  F013         	goto	u4390
  8681  00279E                     u4391:
  8682  00279E  EFAF  F013         	goto	l4275
  8683  0027A2                     u4390:
  8684  0027A2                     
  8685                           ; BSR set to: 0
  8686                           ;SETPOINTS.c: 186:     UARTWrite('\n');
  8687  0027A2  0E0A               	movlw	10
  8688  0027A4  EC57  F01A         	call	_UARTWrite
  8689                           
  8690                           ;SETPOINTS.c: 187:     UARTWrite('\r');
  8691  0027A8  0E0D               	movlw	13
  8692  0027AA  EC57  F01A         	call	_UARTWrite
  8693  0027AE                     
  8694                           ;SETPOINTS.c: 189:     i=SETPOINTBUSCAR(dato);
  8695  0027AE  0E7A               	movlw	low ESCRIBIRINSTRUCCION@dato
  8696  0027B0  0100               	movlb	0	; () banked
  8697  0027B2  6F61               	movwf	SETPOINTBUSCAR@dato& (0+255),b
  8698  0027B4  0E00               	movlw	high ESCRIBIRINSTRUCCION@dato
  8699  0027B6  6F62               	movwf	(SETPOINTBUSCAR@dato+1)& (0+255),b
  8700  0027B8  ECF1  F010         	call	_SETPOINTBUSCAR	;wreg free
  8701  0027BC  0100               	movlb	0	; () banked
  8702  0027BE  6F7F               	movwf	ESCRIBIRINSTRUCCION@i& (0+255),b
  8703  0027C0                     
  8704                           ; BSR set to: 0
  8705                           ;SETPOINTS.c: 190:     if(i<160) {
  8706  0027C0  0EA0               	movlw	160
  8707  0027C2  617F               	cpfslt	ESCRIBIRINSTRUCCION@i& (0+255),b
  8708  0027C4  EFE6  F013         	goto	u4401
  8709  0027C8  EFE8  F013         	goto	u4400
  8710  0027CC                     u4401:
  8711  0027CC  EFF7  F013         	goto	l4307
  8712  0027D0                     u4400:
  8713  0027D0                     
  8714                           ; BSR set to: 0
  8715                           ;SETPOINTS.c: 191:         GuardarsetN(dir,dato);
  8716  0027D0  0E7A               	movlw	low ESCRIBIRINSTRUCCION@dato
  8717  0027D2  6F62               	movwf	GuardarsetN@dato& (0+255),b
  8718  0027D4  0E00               	movlw	high ESCRIBIRINSTRUCCION@dato
  8719  0027D6  6F63               	movwf	(GuardarsetN@dato+1)& (0+255),b
  8720  0027D8  5180               	movf	ESCRIBIRINSTRUCCION@dir& (0+255),w,b
  8721  0027DA  EC4E  F018         	call	_GuardarsetN
  8722  0027DE                     
  8723                           ;SETPOINTS.c: 192:         dir=dir+4;
  8724  0027DE  0100               	movlb	0	; () banked
  8725  0027E0  5180               	movf	ESCRIBIRINSTRUCCION@dir& (0+255),w,b
  8726  0027E2  0F04               	addlw	4
  8727  0027E4  6F80               	movwf	ESCRIBIRINSTRUCCION@dir& (0+255),b
  8728  0027E6                     l4301:
  8729                           
  8730                           ;SETPOINTS.c: 193:         return dir;
  8731  0027E6  0100               	movlb	0	; () banked
  8732  0027E8  5180               	movf	ESCRIBIRINSTRUCCION@dir& (0+255),w,b
  8733  0027EA  EFFB  F013         	goto	l682
  8734  0027EE                     l4307:
  8735                           
  8736                           ; BSR set to: 0
  8737                           ;SETPOINTS.c: 195:         SETNOEX();
  8738  0027EE  EC02  F017         	call	_SETNOEX	;wreg free
  8739  0027F2  EFF3  F013         	goto	l4301
  8740  0027F6                     l682:
  8741                           
  8742                           ; BSR set to: 0
  8743  0027F6  0012               	return		;funcret
  8744  0027F8                     __end_of_ESCRIBIRINSTRUCCION:
  8745                           	opt callstack 0
  8746                           
  8747 ;; *************** function _UARTRead *****************
  8748 ;; Defined at:
  8749 ;;		line 40 in file "../Proyectoa4550.X/UART50.c"
  8750 ;; Parameters:    Size  Location     Type
  8751 ;;		None
  8752 ;; Auto vars:     Size  Location     Type
  8753 ;;  Y               4    1[BANK0 ] unsigned long 
  8754 ;;  X               1    5[BANK0 ] unsigned char 
  8755 ;; Return value:  Size  Location     Type
  8756 ;;                  1    wreg      unsigned char 
  8757 ;; Registers used:
  8758 ;;		wreg, status,2, status,0, cstack
  8759 ;; Tracked objects:
  8760 ;;		On entry : 0/0
  8761 ;;		On exit  : 0/0
  8762 ;;		Unchanged: 0/0
  8763 ;; Data sizes:     COMRAM   BANK0   BANK1   BANK2   BANK3   BANK4   BANK5   BANK6   BANK7
  8764 ;;      Params:         0       0       0       0       0       0       0       0       0
  8765 ;;      Locals:         0       5       0       0       0       0       0       0       0
  8766 ;;      Temps:          0       0       0       0       0       0       0       0       0
  8767 ;;      Totals:         0       5       0       0       0       0       0       0       0
  8768 ;;Total ram usage:        5 bytes
  8769 ;; Hardware stack levels used:    1
  8770 ;; Hardware stack levels required when called:    6
  8771 ;; This function calls:
  8772 ;;		_PROBLEMA
  8773 ;; This function is called by:
  8774 ;;		_Obt
  8775 ;;		_main
  8776 ;;		_EditseT
  8777 ;;		_MOVASETPOINT
  8778 ;;		_ESCRIBIRINSTRUCCION
  8779 ;;		_INSTRUCCION
  8780 ;;		_CREARINS
  8781 ;;		_PREEJECUTAR
  8782 ;; This function uses a non-reentrant model
  8783 ;;
  8784                           
  8785                           	psect	text45
  8786  0029E2                     __ptext45:
  8787                           	opt callstack 0
  8788  0029E2                     _UARTRead:
  8789                           	opt callstack 24
  8790  0029E2                     
  8791                           ;../Proyectoa4550.X/UART50.c: 41:     PROBLEMA();
  8792  0029E2  EC21  F016         	call	_PROBLEMA	;wreg free
  8793  0029E6                     
  8794                           ;../Proyectoa4550.X/UART50.c: 43:     uint32_t Y=0;
  8795  0029E6  0E00               	movlw	0
  8796  0029E8  0100               	movlb	0	; () banked
  8797  0029EA  6F61               	movwf	UARTRead@Y& (0+255),b
  8798  0029EC  0E00               	movlw	0
  8799  0029EE  6F62               	movwf	(UARTRead@Y+1)& (0+255),b
  8800  0029F0  0E00               	movlw	0
  8801  0029F2  6F63               	movwf	(UARTRead@Y+2)& (0+255),b
  8802  0029F4  0E00               	movlw	0
  8803  0029F6  6F64               	movwf	(UARTRead@Y+3)& (0+255),b
  8804                           
  8805                           ;../Proyectoa4550.X/UART50.c: 44:     while (PIR1bits.RCIF == 0){
  8806  0029F8  EF16  F015         	goto	l3929
  8807  0029FC                     l3921:
  8808                           
  8809                           ; BSR set to: 0
  8810                           ;../Proyectoa4550.X/UART50.c: 45:         if(Y>=500000) {
  8811  0029FC  5164               	movf	(UARTRead@Y+3)& (0+255),w,b
  8812  0029FE  E10D               	bnz	u3790
  8813  002A00  0E20               	movlw	32
  8814  002A02  5D61               	subwf	UARTRead@Y& (0+255),w,b
  8815  002A04  0EA1               	movlw	161
  8816  002A06  5962               	subwfb	(UARTRead@Y+1)& (0+255),w,b
  8817  002A08  0E07               	movlw	7
  8818  002A0A  5963               	subwfb	(UARTRead@Y+2)& (0+255),w,b
  8819  002A0C  A0D8               	btfss	status,0,c
  8820  002A0E  EF0B  F015         	goto	u3791
  8821  002A12  EF0D  F015         	goto	u3790
  8822  002A16                     u3791:
  8823  002A16  EF10  F015         	goto	l3927
  8824  002A1A                     u3790:
  8825  002A1A                     
  8826                           ; BSR set to: 0
  8827                           ;../Proyectoa4550.X/UART50.c: 46:             return ((void*)0);
  8828  002A1A  0E00               	movlw	0
  8829  002A1C  EF22  F015         	goto	l328
  8830  002A20                     l3927:
  8831                           
  8832                           ; BSR set to: 0
  8833                           ;../Proyectoa4550.X/UART50.c: 48:         Y++;
  8834  002A20  0E01               	movlw	1
  8835  002A22  2761               	addwf	UARTRead@Y& (0+255),f,b
  8836  002A24  0E00               	movlw	0
  8837  002A26  2362               	addwfc	(UARTRead@Y+1)& (0+255),f,b
  8838  002A28  2363               	addwfc	(UARTRead@Y+2)& (0+255),f,b
  8839  002A2A  2364               	addwfc	(UARTRead@Y+3)& (0+255),f,b
  8840  002A2C                     l3929:
  8841                           
  8842                           ; BSR set to: 0
  8843                           ;../Proyectoa4550.X/UART50.c: 44:     while (PIR1bits.RCIF == 0){
  8844  002A2C  AA9E               	btfss	158,5,c	;volatile
  8845  002A2E  EF1B  F015         	goto	u3801
  8846  002A32  EF1D  F015         	goto	u3800
  8847  002A36                     u3801:
  8848  002A36  EFFE  F014         	goto	l3921
  8849  002A3A                     u3800:
  8850  002A3A                     
  8851                           ; BSR set to: 0
  8852                           ;../Proyectoa4550.X/UART50.c: 50:     X = RCREG1;
  8853  002A3A  CFAE F065          	movff	4014,UARTRead@X	;volatile
  8854  002A3E                     
  8855                           ; BSR set to: 0
  8856                           ;../Proyectoa4550.X/UART50.c: 51:     RCREG1 = 0;
  8857  002A3E  0E00               	movlw	0
  8858  002A40  6EAE               	movwf	174,c	;volatile
  8859                           
  8860                           ;../Proyectoa4550.X/UART50.c: 53:     return X;
  8861  002A42  5165               	movf	UARTRead@X& (0+255),w,b
  8862  002A44                     l328:
  8863                           
  8864                           ; BSR set to: 0
  8865  002A44  0012               	return		;funcret
  8866  002A46                     __end_of_UARTRead:
  8867                           	opt callstack 0
  8868                           
  8869 ;; *************** function _PROBLEMA *****************
  8870 ;; Defined at:
  8871 ;;		line 56 in file "../Proyectoa4550.X/UART50.c"
  8872 ;; Parameters:    Size  Location     Type
  8873 ;;		None
  8874 ;; Auto vars:     Size  Location     Type
  8875 ;;  temp            1    0[BANK0 ] unsigned char 
  8876 ;; Return value:  Size  Location     Type
  8877 ;;                  1    wreg      void 
  8878 ;; Registers used:
  8879 ;;		wreg
  8880 ;; Tracked objects:
  8881 ;;		On entry : 0/0
  8882 ;;		On exit  : 0/0
  8883 ;;		Unchanged: 0/0
  8884 ;; Data sizes:     COMRAM   BANK0   BANK1   BANK2   BANK3   BANK4   BANK5   BANK6   BANK7
  8885 ;;      Params:         0       0       0       0       0       0       0       0       0
  8886 ;;      Locals:         0       1       0       0       0       0       0       0       0
  8887 ;;      Temps:          0       0       0       0       0       0       0       0       0
  8888 ;;      Totals:         0       1       0       0       0       0       0       0       0
  8889 ;;Total ram usage:        1 bytes
  8890 ;; Hardware stack levels used:    1
  8891 ;; Hardware stack levels required when called:    5
  8892 ;; This function calls:
  8893 ;;		Nothing
  8894 ;; This function is called by:
  8895 ;;		_UARTRead
  8896 ;; This function uses a non-reentrant model
  8897 ;;
  8898                           
  8899                           	psect	text46
  8900  002C42                     __ptext46:
  8901                           	opt callstack 0
  8902  002C42                     _PROBLEMA:
  8903                           	opt callstack 24
  8904  002C42                     
  8905                           ;../Proyectoa4550.X/UART50.c: 57:     uint8_t temp;;../Proyectoa4550.X/UART50.c: 58:    
      +                           if(OERR) {
  8906  002C42  A2AB               	btfss	4011,1,c	;volatile
  8907  002C44  EF26  F016         	goto	u3461
  8908  002C48  EF28  F016         	goto	u3460
  8909  002C4C                     u3461:
  8910  002C4C  EF37  F016         	goto	l332
  8911  002C50                     u3460:
  8912  002C50                     l333:
  8913                           
  8914                           ;../Proyectoa4550.X/UART50.c: 61:         {;../Proyectoa4550.X/UART50.c: 62:            
      +                           temp = RCREG;
  8915  002C50  CFAE F060          	movff	4014,PROBLEMA@temp	;volatile
  8916                           
  8917                           ;../Proyectoa4550.X/UART50.c: 63:             temp = RCREG;
  8918  002C54  CFAE F060          	movff	4014,PROBLEMA@temp	;volatile
  8919                           
  8920                           ;../Proyectoa4550.X/UART50.c: 64:             temp = RCREG;
  8921  002C58  CFAE F060          	movff	4014,PROBLEMA@temp	;volatile
  8922                           
  8923                           ;../Proyectoa4550.X/UART50.c: 65:             CREN = 0;
  8924  002C5C  98AB               	bcf	4011,4,c	;volatile
  8925                           
  8926                           ;../Proyectoa4550.X/UART50.c: 66:             CREN = 1;
  8927  002C5E  88AB               	bsf	4011,4,c	;volatile
  8928                           
  8929                           ;../Proyectoa4550.X/UART50.c: 68:         } while(OERR);
  8930  002C60  B2AB               	btfsc	4011,1,c	;volatile
  8931  002C62  EF35  F016         	goto	u3471
  8932  002C66  EF37  F016         	goto	u3470
  8933  002C6A                     u3471:
  8934  002C6A  EF28  F016         	goto	l333
  8935  002C6E                     u3470:
  8936  002C6E                     l332:
  8937                           
  8938                           ;../Proyectoa4550.X/UART50.c: 71:     if(FERR)
  8939  002C6E  A4AB               	btfss	4011,2,c	;volatile
  8940  002C70  EF3C  F016         	goto	u3481
  8941  002C74  EF3E  F016         	goto	u3480
  8942  002C78                     u3481:
  8943  002C78  EF41  F016         	goto	l336
  8944  002C7C                     u3480:
  8945  002C7C  50AE               	movf	174,w,c	;volatile
  8946                           
  8947                           ;../Proyectoa4550.X/UART50.c: 74:         TXEN = 0;
  8948  002C7E  9AAC               	bcf	4012,5,c	;volatile
  8949                           
  8950                           ;../Proyectoa4550.X/UART50.c: 75:         TXEN = 1;
  8951  002C80  8AAC               	bsf	4012,5,c	;volatile
  8952  002C82                     l336:
  8953  002C82  0012               	return		;funcret
  8954  002C84                     __end_of_PROBLEMA:
  8955                           	opt callstack 0
  8956                           
  8957 ;; *************** function _SETPOINTBUSCAR *****************
  8958 ;; Defined at:
  8959 ;;		line 99 in file "SETPOINTS.c"
  8960 ;; Parameters:    Size  Location     Type
  8961 ;;  dato            2    1[BANK0 ] PTR unsigned char 
  8962 ;;		 -> EJECUTARINS@INSTRNAME(4), ESCRIBIRINSTRUCCION@dato(4), MOVASETPOINT@dato(4), EditseT@dato(4), 
  8963 ;; Auto vars:     Size  Location     Type
  8964 ;;  i               1    6[BANK0 ] unsigned char 
  8965 ;;  T               1    5[BANK0 ] unsigned char 
  8966 ;; Return value:  Size  Location     Type
  8967 ;;                  1    wreg      unsigned char 
  8968 ;; Registers used:
  8969 ;;		wreg, fsr2l, fsr2h, status,2, status,0, cstack
  8970 ;; Tracked objects:
  8971 ;;		On entry : 0/0
  8972 ;;		On exit  : 0/0
  8973 ;;		Unchanged: 0/0
  8974 ;; Data sizes:     COMRAM   BANK0   BANK1   BANK2   BANK3   BANK4   BANK5   BANK6   BANK7
  8975 ;;      Params:         0       2       0       0       0       0       0       0       0
  8976 ;;      Locals:         0       2       0       0       0       0       0       0       0
  8977 ;;      Temps:          0       2       0       0       0       0       0       0       0
  8978 ;;      Totals:         0       6       0       0       0       0       0       0       0
  8979 ;;Total ram usage:        6 bytes
  8980 ;; Hardware stack levels used:    1
  8981 ;; Hardware stack levels required when called:    6
  8982 ;; This function calls:
  8983 ;;		_EEPROM_R
  8984 ;; This function is called by:
  8985 ;;		_EditseT
  8986 ;;		_MOVASETPOINT
  8987 ;;		_ESCRIBIRINSTRUCCION
  8988 ;;		_EJECUTARINS
  8989 ;; This function uses a non-reentrant model
  8990 ;;
  8991                           
  8992                           	psect	text47
  8993  0021E2                     __ptext47:
  8994                           	opt callstack 0
  8995  0021E2                     _SETPOINTBUSCAR:
  8996                           	opt callstack 22
  8997  0021E2                     
  8998                           ;SETPOINTS.c: 100:     uint8_t i=0;
  8999  0021E2  0E00               	movlw	0
  9000  0021E4  0100               	movlb	0	; () banked
  9001  0021E6  6F66               	movwf	SETPOINTBUSCAR@i& (0+255),b
  9002                           
  9003                           ;SETPOINTS.c: 101:     uint8_t T=0;
  9004  0021E8  0E00               	movlw	0
  9005  0021EA  6F65               	movwf	SETPOINTBUSCAR@T& (0+255),b
  9006                           
  9007                           ;SETPOINTS.c: 102:     while((T==0)&&(i<248)) {
  9008  0021EC  EF4F  F011         	goto	l3981
  9009  0021F0                     l3963:
  9010                           
  9011                           ; BSR set to: 0
  9012                           ;SETPOINTS.c: 103:         if(dato[0]==EEPROM_R(i)) {
  9013  0021F0  C061  FFD9         	movff	SETPOINTBUSCAR@dato,fsr2l
  9014  0021F4  C062  FFDA         	movff	SETPOINTBUSCAR@dato+1,fsr2h
  9015  0021F8  5166               	movf	SETPOINTBUSCAR@i& (0+255),w,b
  9016  0021FA  EC79  F01A         	call	_EEPROM_R
  9017  0021FE  0100               	movlb	0	; () banked
  9018  002200  6F64               	movwf	(??_SETPOINTBUSCAR+1)& (0+255),b
  9019  002202  50DE               	movf	postinc2,w,c
  9020  002204  1964               	xorwf	(??_SETPOINTBUSCAR+1)& (0+255),w,b
  9021  002206  A4D8               	btfss	status,2,c
  9022  002208  EF08  F011         	goto	u3841
  9023  00220C  EF0A  F011         	goto	u3840
  9024  002210                     u3841:
  9025  002210  EF4C  F011         	goto	l3973
  9026  002214                     u3840:
  9027  002214                     
  9028                           ; BSR set to: 0
  9029                           ;SETPOINTS.c: 104:             if(dato[1]==EEPROM_R(i+1)) {
  9030  002214  EE20 F001          	lfsr	2,1
  9031  002218  5161               	movf	SETPOINTBUSCAR@dato& (0+255),w,b
  9032  00221A  26D9               	addwf	fsr2l,f,c
  9033  00221C  5162               	movf	(SETPOINTBUSCAR@dato+1)& (0+255),w,b
  9034  00221E  22DA               	addwfc	fsr2h,f,c
  9035  002220  2966               	incf	SETPOINTBUSCAR@i& (0+255),w,b
  9036  002222  EC79  F01A         	call	_EEPROM_R
  9037  002226  0100               	movlb	0	; () banked
  9038  002228  6F64               	movwf	(??_SETPOINTBUSCAR+1)& (0+255),b
  9039  00222A  50DE               	movf	postinc2,w,c
  9040  00222C  1964               	xorwf	(??_SETPOINTBUSCAR+1)& (0+255),w,b
  9041  00222E  A4D8               	btfss	status,2,c
  9042  002230  EF1C  F011         	goto	u3851
  9043  002234  EF1E  F011         	goto	u3850
  9044  002238                     u3851:
  9045  002238  EF4C  F011         	goto	l3973
  9046  00223C                     u3850:
  9047  00223C                     
  9048                           ; BSR set to: 0
  9049                           ;SETPOINTS.c: 105:                 if(dato[2]==EEPROM_R(i+2)) {
  9050  00223C  EE20 F002          	lfsr	2,2
  9051  002240  5161               	movf	SETPOINTBUSCAR@dato& (0+255),w,b
  9052  002242  26D9               	addwf	fsr2l,f,c
  9053  002244  5162               	movf	(SETPOINTBUSCAR@dato+1)& (0+255),w,b
  9054  002246  22DA               	addwfc	fsr2h,f,c
  9055  002248  5166               	movf	SETPOINTBUSCAR@i& (0+255),w,b
  9056  00224A  0F02               	addlw	2
  9057  00224C  EC79  F01A         	call	_EEPROM_R
  9058  002250  0100               	movlb	0	; () banked
  9059  002252  6F64               	movwf	(??_SETPOINTBUSCAR+1)& (0+255),b
  9060  002254  50DE               	movf	postinc2,w,c
  9061  002256  1964               	xorwf	(??_SETPOINTBUSCAR+1)& (0+255),w,b
  9062  002258  A4D8               	btfss	status,2,c
  9063  00225A  EF31  F011         	goto	u3861
  9064  00225E  EF33  F011         	goto	u3860
  9065  002262                     u3861:
  9066  002262  EF4C  F011         	goto	l3973
  9067  002266                     u3860:
  9068  002266                     
  9069                           ; BSR set to: 0
  9070                           ;SETPOINTS.c: 106:                     if(dato[3]==EEPROM_R(i+3)) {
  9071  002266  EE20 F003          	lfsr	2,3
  9072  00226A  5161               	movf	SETPOINTBUSCAR@dato& (0+255),w,b
  9073  00226C  26D9               	addwf	fsr2l,f,c
  9074  00226E  5162               	movf	(SETPOINTBUSCAR@dato+1)& (0+255),w,b
  9075  002270  22DA               	addwfc	fsr2h,f,c
  9076  002272  5166               	movf	SETPOINTBUSCAR@i& (0+255),w,b
  9077  002274  0F03               	addlw	3
  9078  002276  EC79  F01A         	call	_EEPROM_R
  9079  00227A  0100               	movlb	0	; () banked
  9080  00227C  6F64               	movwf	(??_SETPOINTBUSCAR+1)& (0+255),b
  9081  00227E  50DE               	movf	postinc2,w,c
  9082  002280  1964               	xorwf	(??_SETPOINTBUSCAR+1)& (0+255),w,b
  9083  002282  A4D8               	btfss	status,2,c
  9084  002284  EF46  F011         	goto	u3871
  9085  002288  EF48  F011         	goto	u3870
  9086  00228C                     u3871:
  9087  00228C  EF4C  F011         	goto	l3973
  9088  002290                     u3870:
  9089  002290                     
  9090                           ; BSR set to: 0
  9091                           ;SETPOINTS.c: 107:                         T=1;
  9092  002290  0E01               	movlw	1
  9093  002292  6F65               	movwf	SETPOINTBUSCAR@T& (0+255),b
  9094                           
  9095                           ;SETPOINTS.c: 108:                     } else {
  9096  002294  EF4F  F011         	goto	l3981
  9097  002298                     l3973:
  9098                           
  9099                           ; BSR set to: 0
  9100                           ;SETPOINTS.c: 109:                         i=i+8;
  9101  002298  5166               	movf	SETPOINTBUSCAR@i& (0+255),w,b
  9102  00229A  0F08               	addlw	8
  9103  00229C  6F66               	movwf	SETPOINTBUSCAR@i& (0+255),b
  9104  00229E                     l3981:
  9105                           
  9106                           ; BSR set to: 0
  9107                           ;SETPOINTS.c: 102:     while((T==0)&&(i<248)) {
  9108  00229E  5165               	movf	SETPOINTBUSCAR@T& (0+255),w,b
  9109  0022A0  A4D8               	btfss	status,2,c
  9110  0022A2  EF55  F011         	goto	u3881
  9111  0022A6  EF57  F011         	goto	u3880
  9112  0022AA                     u3881:
  9113  0022AA  EF5F  F011         	goto	l3985
  9114  0022AE                     u3880:
  9115  0022AE                     
  9116                           ; BSR set to: 0
  9117  0022AE  0EF7               	movlw	247
  9118  0022B0  6566               	cpfsgt	SETPOINTBUSCAR@i& (0+255),b
  9119  0022B2  EF5D  F011         	goto	u3891
  9120  0022B6  EF5F  F011         	goto	u3890
  9121  0022BA                     u3891:
  9122  0022BA  EFF8  F010         	goto	l3963
  9123  0022BE                     u3890:
  9124  0022BE                     l3985:
  9125                           
  9126                           ; BSR set to: 0
  9127                           ;SETPOINTS.c: 122:     return i;
  9128  0022BE  5166               	movf	SETPOINTBUSCAR@i& (0+255),w,b
  9129  0022C0                     
  9130                           ; BSR set to: 0
  9131  0022C0  0012               	return		;funcret
  9132  0022C2                     __end_of_SETPOINTBUSCAR:
  9133                           	opt callstack 0
  9134                           
  9135 ;; *************** function _SETNOEX *****************
  9136 ;; Defined at:
  9137 ;;		line 124 in file "../Proyectoa4550.X/Mensajes50.c"
  9138 ;; Parameters:    Size  Location     Type
  9139 ;;		None
  9140 ;; Auto vars:     Size  Location     Type
  9141 ;;  C               1   25[BANK0 ] unsigned char 
  9142 ;;  F              24    1[BANK0 ] unsigned char [24]
  9143 ;; Return value:  Size  Location     Type
  9144 ;;                  1    wreg      void 
  9145 ;; Registers used:
  9146 ;;		wreg, fsr1l, fsr1h, fsr2l, fsr2h, status,2, status,0, cstack
  9147 ;; Tracked objects:
  9148 ;;		On entry : 0/0
  9149 ;;		On exit  : 0/0
  9150 ;;		Unchanged: 0/0
  9151 ;; Data sizes:     COMRAM   BANK0   BANK1   BANK2   BANK3   BANK4   BANK5   BANK6   BANK7
  9152 ;;      Params:         0       0       0       0       0       0       0       0       0
  9153 ;;      Locals:         0      25       0       0       0       0       0       0       0
  9154 ;;      Temps:          0       0       0       0       0       0       0       0       0
  9155 ;;      Totals:         0      25       0       0       0       0       0       0       0
  9156 ;;Total ram usage:       25 bytes
  9157 ;; Hardware stack levels used:    1
  9158 ;; Hardware stack levels required when called:    6
  9159 ;; This function calls:
  9160 ;;		_UARTWrite
  9161 ;; This function is called by:
  9162 ;;		_EditseT
  9163 ;;		_MOVASETPOINT
  9164 ;;		_ESCRIBIRINSTRUCCION
  9165 ;;		_EJECUTARINS
  9166 ;; This function uses a non-reentrant model
  9167 ;;
  9168                           
  9169                           	psect	text48
  9170  002E04                     __ptext48:
  9171                           	opt callstack 0
  9172  002E04                     _SETNOEX:
  9173                           	opt callstack 22
  9174  002E04                     
  9175                           ;../Proyectoa4550.X/Mensajes50.c: 125:     uint8_t F[]="No existe el Setpoint\n\r";
  9176  002E04  EE21  F0B4         	lfsr	2,SETNOEX@F3628
  9177  002E08  EE10  F061         	lfsr	1,SETNOEX@F
  9178  002E0C  0E17               	movlw	23
  9179  002E0E                     u3811:
  9180  002E0E  CFDB FFE3          	movff	plusw2,plusw1
  9181  002E12  06E8               	decf	wreg,f,c
  9182  002E14  E2FC               	bc	u3811
  9183  002E16                     
  9184                           ;../Proyectoa4550.X/Mensajes50.c: 126:     for(uint8_t C=0; C<(sizeof(F)); C++) {
  9185  002E16  0E00               	movlw	0
  9186  002E18  0100               	movlb	0	; () banked
  9187  002E1A  6F79               	movwf	SETNOEX@C& (0+255),b
  9188  002E1C                     l3943:
  9189                           
  9190                           ; BSR set to: 0
  9191                           ;../Proyectoa4550.X/Mensajes50.c: 127:             UARTWrite(F[C]);
  9192  002E1C  0E61               	movlw	low SETNOEX@F
  9193  002E1E  2579               	addwf	SETNOEX@C& (0+255),w,b
  9194  002E20  6ED9               	movwf	fsr2l,c
  9195  002E22  6ADA               	clrf	fsr2h,c
  9196  002E24  0E00               	movlw	high SETNOEX@F
  9197  002E26  22DA               	addwfc	fsr2h,f,c
  9198  002E28  50DF               	movf	indf2,w,c
  9199  002E2A  EC57  F01A         	call	_UARTWrite
  9200  002E2E                     
  9201                           ;../Proyectoa4550.X/Mensajes50.c: 128:     }
  9202  002E2E  0100               	movlb	0	; () banked
  9203  002E30  2B79               	incf	SETNOEX@C& (0+255),f,b
  9204  002E32                     
  9205                           ; BSR set to: 0
  9206  002E32  0E17               	movlw	23
  9207  002E34  6579               	cpfsgt	SETNOEX@C& (0+255),b
  9208  002E36  EF1F  F017         	goto	u3821
  9209  002E3A  EF21  F017         	goto	u3820
  9210  002E3E                     u3821:
  9211  002E3E  EF0E  F017         	goto	l3943
  9212  002E42                     u3820:
  9213  002E42                     
  9214                           ; BSR set to: 0
  9215  002E42  0012               	return		;funcret
  9216  002E44                     __end_of_SETNOEX:
  9217                           	opt callstack 0
  9218                           
  9219 ;; *************** function _GuardarsetN *****************
  9220 ;; Defined at:
  9221 ;;		line 18 in file "SETPOINTS.c"
  9222 ;; Parameters:    Size  Location     Type
  9223 ;;  dir             1    wreg     unsigned char 
  9224 ;;  dato            2    2[BANK0 ] PTR unsigned char 
  9225 ;;		 -> ESCRIBIRINSTRUCCION@dato(4), EditseT@dato(4), 
  9226 ;; Auto vars:     Size  Location     Type
  9227 ;;  dir             1    4[BANK0 ] unsigned char 
  9228 ;;  i               1    5[BANK0 ] unsigned char 
  9229 ;; Return value:  Size  Location     Type
  9230 ;;                  1    wreg      void 
  9231 ;; Registers used:
  9232 ;;		wreg, fsr2l, fsr2h, status,2, status,0, cstack
  9233 ;; Tracked objects:
  9234 ;;		On entry : 0/0
  9235 ;;		On exit  : 0/0
  9236 ;;		Unchanged: 0/0
  9237 ;; Data sizes:     COMRAM   BANK0   BANK1   BANK2   BANK3   BANK4   BANK5   BANK6   BANK7
  9238 ;;      Params:         0       2       0       0       0       0       0       0       0
  9239 ;;      Locals:         0       2       0       0       0       0       0       0       0
  9240 ;;      Temps:          0       0       0       0       0       0       0       0       0
  9241 ;;      Totals:         0       4       0       0       0       0       0       0       0
  9242 ;;Total ram usage:        4 bytes
  9243 ;; Hardware stack levels used:    1
  9244 ;; Hardware stack levels required when called:    6
  9245 ;; This function calls:
  9246 ;;		_EEPROM_W
  9247 ;; This function is called by:
  9248 ;;		_EditseT
  9249 ;;		_ESCRIBIRINSTRUCCION
  9250 ;; This function uses a non-reentrant model
  9251 ;;
  9252                           
  9253                           	psect	text49
  9254  00309C                     __ptext49:
  9255                           	opt callstack 0
  9256  00309C                     _GuardarsetN:
  9257                           	opt callstack 23
  9258                           
  9259                           ; BSR set to: 0
  9260                           ;incstack = 0
  9261                           ;GuardarsetN@dir stored from wreg
  9262  00309C  0100               	movlb	0	; () banked
  9263  00309E  6F64               	movwf	GuardarsetN@dir& (0+255),b
  9264  0030A0                     
  9265                           ;SETPOINTS.c: 19:     for(uint8_t i=0; i<=3; i++) {
  9266  0030A0  0E00               	movlw	0
  9267  0030A2  0100               	movlb	0	; () banked
  9268  0030A4  6F65               	movwf	GuardarsetN@i& (0+255),b
  9269  0030A6                     l3955:
  9270                           
  9271                           ; BSR set to: 0
  9272                           ;SETPOINTS.c: 20:         EEPROM_W((dir+i), dato[i]);
  9273  0030A6  5165               	movf	GuardarsetN@i& (0+255),w,b
  9274  0030A8  2562               	addwf	GuardarsetN@dato& (0+255),w,b
  9275  0030AA  6ED9               	movwf	fsr2l,c
  9276  0030AC  0E00               	movlw	0
  9277  0030AE  2163               	addwfc	(GuardarsetN@dato+1)& (0+255),w,b
  9278  0030B0  6EDA               	movwf	fsr2h,c
  9279  0030B2  50DF               	movf	indf2,w,c
  9280  0030B4  6F60               	movwf	EEPROM_W@dato& (0+255),b
  9281  0030B6  5164               	movf	GuardarsetN@dir& (0+255),w,b
  9282  0030B8  2565               	addwf	GuardarsetN@i& (0+255),w,b
  9283  0030BA  ECD6  F018         	call	_EEPROM_W
  9284  0030BE                     
  9285                           ;SETPOINTS.c: 21:     }
  9286  0030BE  0100               	movlb	0	; () banked
  9287  0030C0  2B65               	incf	GuardarsetN@i& (0+255),f,b
  9288  0030C2                     
  9289                           ; BSR set to: 0
  9290  0030C2  0E03               	movlw	3
  9291  0030C4  6565               	cpfsgt	GuardarsetN@i& (0+255),b
  9292  0030C6  EF67  F018         	goto	u3831
  9293  0030CA  EF69  F018         	goto	u3830
  9294  0030CE                     u3831:
  9295  0030CE  EF53  F018         	goto	l3955
  9296  0030D2                     u3830:
  9297  0030D2                     
  9298                           ; BSR set to: 0
  9299  0030D2  0012               	return		;funcret
  9300  0030D4                     __end_of_GuardarsetN:
  9301                           	opt callstack 0
  9302                           
  9303 ;; *************** function _BORRARINSTRUCCION *****************
  9304 ;; Defined at:
  9305 ;;		line 171 in file "SETPOINTS.c"
  9306 ;; Parameters:    Size  Location     Type
  9307 ;;		None
  9308 ;; Auto vars:     Size  Location     Type
  9309 ;;  i               1    2[BANK0 ] unsigned char 
  9310 ;; Return value:  Size  Location     Type
  9311 ;;                  1    wreg      void 
  9312 ;; Registers used:
  9313 ;;		wreg, status,2, status,0, cstack
  9314 ;; Tracked objects:
  9315 ;;		On entry : 0/0
  9316 ;;		On exit  : 0/0
  9317 ;;		Unchanged: 0/0
  9318 ;; Data sizes:     COMRAM   BANK0   BANK1   BANK2   BANK3   BANK4   BANK5   BANK6   BANK7
  9319 ;;      Params:         0       0       0       0       0       0       0       0       0
  9320 ;;      Locals:         0       1       0       0       0       0       0       0       0
  9321 ;;      Temps:          0       0       0       0       0       0       0       0       0
  9322 ;;      Totals:         0       1       0       0       0       0       0       0       0
  9323 ;;Total ram usage:        1 bytes
  9324 ;; Hardware stack levels used:    1
  9325 ;; Hardware stack levels required when called:    6
  9326 ;; This function calls:
  9327 ;;		_EEPROM_W
  9328 ;; This function is called by:
  9329 ;;		_CREARINS
  9330 ;; This function uses a non-reentrant model
  9331 ;;
  9332                           
  9333                           	psect	text50
  9334  003330                     __ptext50:
  9335                           	opt callstack 0
  9336  003330                     _BORRARINSTRUCCION:
  9337                           	opt callstack 23
  9338  003330                     
  9339                           ;SETPOINTS.c: 172:     for(uint8_t i=160; i<252; i++) {
  9340  003330  0EA0               	movlw	160
  9341  003332  0100               	movlb	0	; () banked
  9342  003334  6F62               	movwf	BORRARINSTRUCCION@i& (0+255),b
  9343  003336                     l4613:
  9344                           
  9345                           ; BSR set to: 0
  9346                           ;SETPOINTS.c: 173:         EEPROM_W(i, 0);
  9347  003336  0E00               	movlw	0
  9348  003338  6F60               	movwf	EEPROM_W@dato& (0+255),b
  9349  00333A  5162               	movf	BORRARINSTRUCCION@i& (0+255),w,b
  9350  00333C  ECD6  F018         	call	_EEPROM_W
  9351  003340                     
  9352                           ;SETPOINTS.c: 174:     }
  9353  003340  0100               	movlb	0	; () banked
  9354  003342  2B62               	incf	BORRARINSTRUCCION@i& (0+255),f,b
  9355  003344                     
  9356                           ; BSR set to: 0
  9357  003344  0EFB               	movlw	251
  9358  003346  6562               	cpfsgt	BORRARINSTRUCCION@i& (0+255),b
  9359  003348  EFA8  F019         	goto	u4871
  9360  00334C  EFAA  F019         	goto	u4870
  9361  003350                     u4871:
  9362  003350  EF9B  F019         	goto	l4613
  9363  003354                     u4870:
  9364  003354                     
  9365                           ; BSR set to: 0
  9366  003354  0012               	return		;funcret
  9367  003356                     __end_of_BORRARINSTRUCCION:
  9368                           	opt callstack 0
  9369                           
  9370 ;; *************** function _COORReal *****************
  9371 ;; Defined at:
  9372 ;;		line 246 in file "../Proyectoa4550.X/Mensajes50.c"
  9373 ;; Parameters:    Size  Location     Type
  9374 ;;  Xvalora         2   12[BANK0 ] unsigned short 
  9375 ;;  Yvalora         2   14[BANK0 ] unsigned short 
  9376 ;; Auto vars:     Size  Location     Type
  9377 ;;  i               1   31[BANK0 ] unsigned char 
  9378 ;;  Pos            12   16[BANK0 ] unsigned char [12]
  9379 ;;  Send            1   28[BANK0 ] unsigned char 
  9380 ;; Return value:  Size  Location     Type
  9381 ;;                  1    wreg      void 
  9382 ;; Registers used:
  9383 ;;		wreg, fsr1l, fsr1h, fsr2l, fsr2h, status,2, status,0, cstack
  9384 ;; Tracked objects:
  9385 ;;		On entry : 0/0
  9386 ;;		On exit  : 0/0
  9387 ;;		Unchanged: 0/0
  9388 ;; Data sizes:     COMRAM   BANK0   BANK1   BANK2   BANK3   BANK4   BANK5   BANK6   BANK7
  9389 ;;      Params:         0       4       0       0       0       0       0       0       0
  9390 ;;      Locals:         0      16       0       0       0       0       0       0       0
  9391 ;;      Temps:          0       0       0       0       0       0       0       0       0
  9392 ;;      Totals:         0      20       0       0       0       0       0       0       0
  9393 ;;Total ram usage:       20 bytes
  9394 ;; Hardware stack levels used:    1
  9395 ;; Hardware stack levels required when called:    6
  9396 ;; This function calls:
  9397 ;;		_UARTWrite
  9398 ;;		___lwdiv
  9399 ;;		___lwmod
  9400 ;; This function is called by:
  9401 ;;		_main
  9402 ;; This function uses a non-reentrant model
  9403 ;;
  9404                           
  9405                           	psect	text51
  9406  0018A6                     __ptext51:
  9407                           	opt callstack 0
  9408  0018A6                     _COORReal:
  9409                           	opt callstack 24
  9410  0018A6                     
  9411                           ;../Proyectoa4550.X/Mensajes50.c: 247:     uint8_t Send;;../Proyectoa4550.X/Mensajes50.c
      +                          : 248:     uint8_t Pos[]="X=000 Y=000";
  9412  0018A6  EE20  F0C0         	lfsr	2,COORReal@F3692
  9413  0018AA  EE10  F070         	lfsr	1,COORReal@Pos
  9414  0018AE  0E0B               	movlw	11
  9415  0018B0                     u5381:
  9416  0018B0  CFDB FFE3          	movff	plusw2,plusw1
  9417  0018B4  06E8               	decf	wreg,f,c
  9418  0018B6  E2FC               	bc	u5381
  9419  0018B8                     
  9420                           ;../Proyectoa4550.X/Mensajes50.c: 249:     Pos[2]=(Xvalora/100)+'0';
  9421  0018B8  C06C  F065         	movff	COORReal@Xvalora,___lwdiv@dividend
  9422  0018BC  C06D  F066         	movff	COORReal@Xvalora+1,___lwdiv@dividend+1
  9423  0018C0  0E00               	movlw	0
  9424  0018C2  0100               	movlb	0	; () banked
  9425  0018C4  6F68               	movwf	(___lwdiv@divisor+1)& (0+255),b
  9426  0018C6  0E64               	movlw	100
  9427  0018C8  6F67               	movwf	___lwdiv@divisor& (0+255),b
  9428  0018CA  EC4C  F014         	call	___lwdiv	;wreg free
  9429  0018CE  0100               	movlb	0	; () banked
  9430  0018D0  5165               	movf	?___lwdiv& (0+255),w,b
  9431  0018D2  0F30               	addlw	48
  9432  0018D4  6F72               	movwf	(COORReal@Pos+2)& (0+255),b
  9433  0018D6                     
  9434                           ; BSR set to: 0
  9435                           ;../Proyectoa4550.X/Mensajes50.c: 250:     Pos[3]=(Xvalora % 100) / 10 + '0';
  9436  0018D6  0E00               	movlw	0
  9437  0018D8  6F63               	movwf	(___lwmod@divisor+1)& (0+255),b
  9438  0018DA  0E64               	movlw	100
  9439  0018DC  6F62               	movwf	___lwmod@divisor& (0+255),b
  9440  0018DE  C06C  F060         	movff	COORReal@Xvalora,___lwmod@dividend
  9441  0018E2  C06D  F061         	movff	COORReal@Xvalora+1,___lwmod@dividend+1
  9442  0018E6  ECBE  F014         	call	___lwmod	;wreg free
  9443  0018EA  C060  F065         	movff	?___lwmod,___lwdiv@dividend
  9444  0018EE  C061  F066         	movff	?___lwmod+1,___lwdiv@dividend+1
  9445  0018F2  0E00               	movlw	0
  9446  0018F4  0100               	movlb	0	; () banked
  9447  0018F6  6F68               	movwf	(___lwdiv@divisor+1)& (0+255),b
  9448  0018F8  0E0A               	movlw	10
  9449  0018FA  6F67               	movwf	___lwdiv@divisor& (0+255),b
  9450  0018FC  EC4C  F014         	call	___lwdiv	;wreg free
  9451  001900  0100               	movlb	0	; () banked
  9452  001902  5165               	movf	?___lwdiv& (0+255),w,b
  9453  001904  0F30               	addlw	48
  9454  001906  6F73               	movwf	(COORReal@Pos+3)& (0+255),b
  9455  001908                     
  9456                           ; BSR set to: 0
  9457                           ;../Proyectoa4550.X/Mensajes50.c: 251:     Pos[4]=(Xvalora % 100) % 10 + '0';
  9458  001908  0E00               	movlw	0
  9459  00190A  6F63               	movwf	(___lwmod@divisor+1)& (0+255),b
  9460  00190C  0E64               	movlw	100
  9461  00190E  6F62               	movwf	___lwmod@divisor& (0+255),b
  9462  001910  C06C  F060         	movff	COORReal@Xvalora,___lwmod@dividend
  9463  001914  C06D  F061         	movff	COORReal@Xvalora+1,___lwmod@dividend+1
  9464  001918  ECBE  F014         	call	___lwmod	;wreg free
  9465  00191C  C060  F07D         	movff	?___lwmod,_COORReal$2315
  9466  001920  C061  F07E         	movff	?___lwmod+1,_COORReal$2315+1
  9467  001924                     
  9468                           ;../Proyectoa4550.X/Mensajes50.c: 251:     Pos[4]=(Xvalora % 100) % 10 + '0';
  9469  001924  C07D  F060         	movff	_COORReal$2315,___lwmod@dividend
  9470  001928  C07E  F061         	movff	_COORReal$2315+1,___lwmod@dividend+1
  9471  00192C  0E00               	movlw	0
  9472  00192E  0100               	movlb	0	; () banked
  9473  001930  6F63               	movwf	(___lwmod@divisor+1)& (0+255),b
  9474  001932  0E0A               	movlw	10
  9475  001934  6F62               	movwf	___lwmod@divisor& (0+255),b
  9476  001936  ECBE  F014         	call	___lwmod	;wreg free
  9477  00193A  0100               	movlb	0	; () banked
  9478  00193C  5160               	movf	?___lwmod& (0+255),w,b
  9479  00193E  0F30               	addlw	48
  9480  001940  6F74               	movwf	(COORReal@Pos+4)& (0+255),b
  9481  001942                     
  9482                           ; BSR set to: 0
  9483                           ;../Proyectoa4550.X/Mensajes50.c: 252:     Pos[8]=(Yvalora/100)+'0';
  9484  001942  C06E  F065         	movff	COORReal@Yvalora,___lwdiv@dividend
  9485  001946  C06F  F066         	movff	COORReal@Yvalora+1,___lwdiv@dividend+1
  9486  00194A  0E00               	movlw	0
  9487  00194C  6F68               	movwf	(___lwdiv@divisor+1)& (0+255),b
  9488  00194E  0E64               	movlw	100
  9489  001950  6F67               	movwf	___lwdiv@divisor& (0+255),b
  9490  001952  EC4C  F014         	call	___lwdiv	;wreg free
  9491  001956  0100               	movlb	0	; () banked
  9492  001958  5165               	movf	?___lwdiv& (0+255),w,b
  9493  00195A  0F30               	addlw	48
  9494  00195C  6F78               	movwf	(COORReal@Pos+8)& (0+255),b
  9495  00195E                     
  9496                           ; BSR set to: 0
  9497                           ;../Proyectoa4550.X/Mensajes50.c: 253:     Pos[9]=(Yvalora % 100) / 10 + '0';
  9498  00195E  0E00               	movlw	0
  9499  001960  6F63               	movwf	(___lwmod@divisor+1)& (0+255),b
  9500  001962  0E64               	movlw	100
  9501  001964  6F62               	movwf	___lwmod@divisor& (0+255),b
  9502  001966  C06E  F060         	movff	COORReal@Yvalora,___lwmod@dividend
  9503  00196A  C06F  F061         	movff	COORReal@Yvalora+1,___lwmod@dividend+1
  9504  00196E  ECBE  F014         	call	___lwmod	;wreg free
  9505  001972  C060  F065         	movff	?___lwmod,___lwdiv@dividend
  9506  001976  C061  F066         	movff	?___lwmod+1,___lwdiv@dividend+1
  9507  00197A  0E00               	movlw	0
  9508  00197C  0100               	movlb	0	; () banked
  9509  00197E  6F68               	movwf	(___lwdiv@divisor+1)& (0+255),b
  9510  001980  0E0A               	movlw	10
  9511  001982  6F67               	movwf	___lwdiv@divisor& (0+255),b
  9512  001984  EC4C  F014         	call	___lwdiv	;wreg free
  9513  001988  0100               	movlb	0	; () banked
  9514  00198A  5165               	movf	?___lwdiv& (0+255),w,b
  9515  00198C  0F30               	addlw	48
  9516  00198E  6F79               	movwf	(COORReal@Pos+9)& (0+255),b
  9517  001990                     
  9518                           ; BSR set to: 0
  9519                           ;../Proyectoa4550.X/Mensajes50.c: 254:     Pos[10]=(Yvalora % 100) % 10 + '0';
  9520  001990  0E00               	movlw	0
  9521  001992  6F63               	movwf	(___lwmod@divisor+1)& (0+255),b
  9522  001994  0E64               	movlw	100
  9523  001996  6F62               	movwf	___lwmod@divisor& (0+255),b
  9524  001998  C06E  F060         	movff	COORReal@Yvalora,___lwmod@dividend
  9525  00199C  C06F  F061         	movff	COORReal@Yvalora+1,___lwmod@dividend+1
  9526  0019A0  ECBE  F014         	call	___lwmod	;wreg free
  9527  0019A4  C060  F07D         	movff	?___lwmod,_COORReal$2315
  9528  0019A8  C061  F07E         	movff	?___lwmod+1,_COORReal$2315+1
  9529  0019AC                     
  9530                           ;../Proyectoa4550.X/Mensajes50.c: 254:     Pos[10]=(Yvalora % 100) % 10 + '0';
  9531  0019AC  C07D  F060         	movff	_COORReal$2315,___lwmod@dividend
  9532  0019B0  C07E  F061         	movff	_COORReal$2315+1,___lwmod@dividend+1
  9533  0019B4  0E00               	movlw	0
  9534  0019B6  0100               	movlb	0	; () banked
  9535  0019B8  6F63               	movwf	(___lwmod@divisor+1)& (0+255),b
  9536  0019BA  0E0A               	movlw	10
  9537  0019BC  6F62               	movwf	___lwmod@divisor& (0+255),b
  9538  0019BE  ECBE  F014         	call	___lwmod	;wreg free
  9539  0019C2  0100               	movlb	0	; () banked
  9540  0019C4  5160               	movf	?___lwmod& (0+255),w,b
  9541  0019C6  0F30               	addlw	48
  9542  0019C8  6F7A               	movwf	(COORReal@Pos+10)& (0+255),b
  9543  0019CA                     
  9544                           ; BSR set to: 0
  9545                           ;../Proyectoa4550.X/Mensajes50.c: 255:     for(uint8_t i=0; i<(sizeof(Pos)); i++) {
  9546  0019CA  0E00               	movlw	0
  9547  0019CC  6F7F               	movwf	COORReal@i& (0+255),b
  9548  0019CE                     l5013:
  9549                           
  9550                           ; BSR set to: 0
  9551                           ;../Proyectoa4550.X/Mensajes50.c: 256:                 Send=Pos[i];
  9552  0019CE  0E70               	movlw	low COORReal@Pos
  9553  0019D0  257F               	addwf	COORReal@i& (0+255),w,b
  9554  0019D2  6ED9               	movwf	fsr2l,c
  9555  0019D4  6ADA               	clrf	fsr2h,c
  9556  0019D6  0E00               	movlw	high COORReal@Pos
  9557  0019D8  22DA               	addwfc	fsr2h,f,c
  9558  0019DA  50DF               	movf	indf2,w,c
  9559  0019DC  6F7C               	movwf	COORReal@Send& (0+255),b
  9560  0019DE                     
  9561                           ; BSR set to: 0
  9562                           ;../Proyectoa4550.X/Mensajes50.c: 257:                 UARTWrite(Send);
  9563  0019DE  517C               	movf	COORReal@Send& (0+255),w,b
  9564  0019E0  EC57  F01A         	call	_UARTWrite
  9565  0019E4                     
  9566                           ;../Proyectoa4550.X/Mensajes50.c: 258:     }
  9567  0019E4  0100               	movlb	0	; () banked
  9568  0019E6  2B7F               	incf	COORReal@i& (0+255),f,b
  9569  0019E8                     
  9570                           ; BSR set to: 0
  9571  0019E8  0E0B               	movlw	11
  9572  0019EA  657F               	cpfsgt	COORReal@i& (0+255),b
  9573  0019EC  EFFA  F00C         	goto	u5391
  9574  0019F0  EFFC  F00C         	goto	u5390
  9575  0019F4                     u5391:
  9576  0019F4  EFE7  F00C         	goto	l5013
  9577  0019F8                     u5390:
  9578  0019F8                     
  9579                           ; BSR set to: 0
  9580  0019F8  0012               	return		;funcret
  9581  0019FA                     __end_of_COORReal:
  9582                           	opt callstack 0
  9583                           
  9584 ;; *************** function ___lwmod *****************
  9585 ;; Defined at:
  9586 ;;		line 7 in file "C:\Program Files (x86)\Microchip\xc8\v2.10\pic\sources\c99\common\lwmod.c"
  9587 ;; Parameters:    Size  Location     Type
  9588 ;;  dividend        2    0[BANK0 ] unsigned int 
  9589 ;;  divisor         2    2[BANK0 ] unsigned int 
  9590 ;; Auto vars:     Size  Location     Type
  9591 ;;  counter         1    4[BANK0 ] unsigned char 
  9592 ;; Return value:  Size  Location     Type
  9593 ;;                  2    0[BANK0 ] unsigned int 
  9594 ;; Registers used:
  9595 ;;		wreg, status,2, status,0
  9596 ;; Tracked objects:
  9597 ;;		On entry : 0/0
  9598 ;;		On exit  : 0/0
  9599 ;;		Unchanged: 0/0
  9600 ;; Data sizes:     COMRAM   BANK0   BANK1   BANK2   BANK3   BANK4   BANK5   BANK6   BANK7
  9601 ;;      Params:         0       4       0       0       0       0       0       0       0
  9602 ;;      Locals:         0       1       0       0       0       0       0       0       0
  9603 ;;      Temps:          0       0       0       0       0       0       0       0       0
  9604 ;;      Totals:         0       5       0       0       0       0       0       0       0
  9605 ;;Total ram usage:        5 bytes
  9606 ;; Hardware stack levels used:    1
  9607 ;; Hardware stack levels required when called:    5
  9608 ;; This function calls:
  9609 ;;		Nothing
  9610 ;; This function is called by:
  9611 ;;		_imprimirSet
  9612 ;;		_COORReal
  9613 ;; This function uses a non-reentrant model
  9614 ;;
  9615                           
  9616                           	psect	text52
  9617  00297C                     __ptext52:
  9618                           	opt callstack 0
  9619  00297C                     ___lwmod:
  9620                           	opt callstack 24
  9621  00297C  0100               	movlb	0	; () banked
  9622  00297E  5162               	movf	___lwmod@divisor& (0+255),w,b
  9623  002980  1163               	iorwf	(___lwmod@divisor+1)& (0+255),w,b
  9624  002982  B4D8               	btfsc	status,2,c
  9625  002984  EFC6  F014         	goto	u5071
  9626  002988  EFC8  F014         	goto	u5070
  9627  00298C                     u5071:
  9628  00298C  EFEC  F014         	goto	l1286
  9629  002990                     u5070:
  9630  002990                     
  9631                           ; BSR set to: 0
  9632  002990  0E01               	movlw	1
  9633  002992  6F64               	movwf	___lwmod@counter& (0+255),b
  9634  002994  EFD0  F014         	goto	l4737
  9635  002998                     l4735:
  9636                           
  9637                           ; BSR set to: 0
  9638  002998  90D8               	bcf	status,0,c
  9639  00299A  3762               	rlcf	___lwmod@divisor& (0+255),f,b
  9640  00299C  3763               	rlcf	(___lwmod@divisor+1)& (0+255),f,b
  9641  00299E  2B64               	incf	___lwmod@counter& (0+255),f,b
  9642  0029A0                     l4737:
  9643                           
  9644                           ; BSR set to: 0
  9645  0029A0  AF63               	btfss	(___lwmod@divisor+1)& (0+255),7,b
  9646  0029A2  EFD5  F014         	goto	u5081
  9647  0029A6  EFD7  F014         	goto	u5080
  9648  0029AA                     u5081:
  9649  0029AA  EFCC  F014         	goto	l4735
  9650  0029AE                     u5080:
  9651  0029AE                     l4739:
  9652                           
  9653                           ; BSR set to: 0
  9654  0029AE  5162               	movf	___lwmod@divisor& (0+255),w,b
  9655  0029B0  5D60               	subwf	___lwmod@dividend& (0+255),w,b
  9656  0029B2  5163               	movf	(___lwmod@divisor+1)& (0+255),w,b
  9657  0029B4  5961               	subwfb	(___lwmod@dividend+1)& (0+255),w,b
  9658  0029B6  A0D8               	btfss	status,0,c
  9659  0029B8  EFE0  F014         	goto	u5091
  9660  0029BC  EFE2  F014         	goto	u5090
  9661  0029C0                     u5091:
  9662  0029C0  EFE6  F014         	goto	l4743
  9663  0029C4                     u5090:
  9664  0029C4                     
  9665                           ; BSR set to: 0
  9666  0029C4  5162               	movf	___lwmod@divisor& (0+255),w,b
  9667  0029C6  5F60               	subwf	___lwmod@dividend& (0+255),f,b
  9668  0029C8  5163               	movf	(___lwmod@divisor+1)& (0+255),w,b
  9669  0029CA  5B61               	subwfb	(___lwmod@dividend+1)& (0+255),f,b
  9670  0029CC                     l4743:
  9671                           
  9672                           ; BSR set to: 0
  9673  0029CC  90D8               	bcf	status,0,c
  9674  0029CE  3363               	rrcf	(___lwmod@divisor+1)& (0+255),f,b
  9675  0029D0  3362               	rrcf	___lwmod@divisor& (0+255),f,b
  9676  0029D2                     
  9677                           ; BSR set to: 0
  9678  0029D2  2F64               	decfsz	___lwmod@counter& (0+255),f,b
  9679  0029D4  EFD7  F014         	goto	l4739
  9680  0029D8                     l1286:
  9681                           
  9682                           ; BSR set to: 0
  9683  0029D8  C060  F060         	movff	___lwmod@dividend,?___lwmod
  9684  0029DC  C061  F061         	movff	___lwmod@dividend+1,?___lwmod+1
  9685  0029E0                     
  9686                           ; BSR set to: 0
  9687  0029E0  0012               	return		;funcret
  9688  0029E2                     __end_of___lwmod:
  9689                           	opt callstack 0
  9690                           
  9691 ;; *************** function ___lwdiv *****************
  9692 ;; Defined at:
  9693 ;;		line 7 in file "C:\Program Files (x86)\Microchip\xc8\v2.10\pic\sources\c99\common\lwdiv.c"
  9694 ;; Parameters:    Size  Location     Type
  9695 ;;  dividend        2    5[BANK0 ] unsigned int 
  9696 ;;  divisor         2    7[BANK0 ] unsigned int 
  9697 ;; Auto vars:     Size  Location     Type
  9698 ;;  quotient        2    9[BANK0 ] unsigned int 
  9699 ;;  counter         1   11[BANK0 ] unsigned char 
  9700 ;; Return value:  Size  Location     Type
  9701 ;;                  2    5[BANK0 ] unsigned int 
  9702 ;; Registers used:
  9703 ;;		wreg, status,2, status,0
  9704 ;; Tracked objects:
  9705 ;;		On entry : 0/0
  9706 ;;		On exit  : 0/0
  9707 ;;		Unchanged: 0/0
  9708 ;; Data sizes:     COMRAM   BANK0   BANK1   BANK2   BANK3   BANK4   BANK5   BANK6   BANK7
  9709 ;;      Params:         0       4       0       0       0       0       0       0       0
  9710 ;;      Locals:         0       3       0       0       0       0       0       0       0
  9711 ;;      Temps:          0       0       0       0       0       0       0       0       0
  9712 ;;      Totals:         0       7       0       0       0       0       0       0       0
  9713 ;;Total ram usage:        7 bytes
  9714 ;; Hardware stack levels used:    1
  9715 ;; Hardware stack levels required when called:    5
  9716 ;; This function calls:
  9717 ;;		Nothing
  9718 ;; This function is called by:
  9719 ;;		_imprimirSet
  9720 ;;		_COORReal
  9721 ;; This function uses a non-reentrant model
  9722 ;;
  9723                           
  9724                           	psect	text53
  9725  002898                     __ptext53:
  9726                           	opt callstack 0
  9727  002898                     ___lwdiv:
  9728                           	opt callstack 24
  9729  002898  0E00               	movlw	0
  9730  00289A  0100               	movlb	0	; () banked
  9731  00289C  6F6A               	movwf	(___lwdiv@quotient+1)& (0+255),b
  9732  00289E  0E00               	movlw	0
  9733  0028A0  6F69               	movwf	___lwdiv@quotient& (0+255),b
  9734  0028A2                     
  9735                           ; BSR set to: 0
  9736  0028A2  5167               	movf	___lwdiv@divisor& (0+255),w,b
  9737  0028A4  1168               	iorwf	(___lwdiv@divisor+1)& (0+255),w,b
  9738  0028A6  B4D8               	btfsc	status,2,c
  9739  0028A8  EF58  F014         	goto	u5041
  9740  0028AC  EF5A  F014         	goto	u5040
  9741  0028B0                     u5041:
  9742  0028B0  EF82  F014         	goto	l1276
  9743  0028B4                     u5040:
  9744  0028B4                     
  9745                           ; BSR set to: 0
  9746  0028B4  0E01               	movlw	1
  9747  0028B6  6F6B               	movwf	___lwdiv@counter& (0+255),b
  9748  0028B8  EF62  F014         	goto	l4717
  9749  0028BC                     l4715:
  9750                           
  9751                           ; BSR set to: 0
  9752  0028BC  90D8               	bcf	status,0,c
  9753  0028BE  3767               	rlcf	___lwdiv@divisor& (0+255),f,b
  9754  0028C0  3768               	rlcf	(___lwdiv@divisor+1)& (0+255),f,b
  9755  0028C2  2B6B               	incf	___lwdiv@counter& (0+255),f,b
  9756  0028C4                     l4717:
  9757                           
  9758                           ; BSR set to: 0
  9759  0028C4  AF68               	btfss	(___lwdiv@divisor+1)& (0+255),7,b
  9760  0028C6  EF67  F014         	goto	u5051
  9761  0028CA  EF69  F014         	goto	u5050
  9762  0028CE                     u5051:
  9763  0028CE  EF5E  F014         	goto	l4715
  9764  0028D2                     u5050:
  9765  0028D2                     l4719:
  9766                           
  9767                           ; BSR set to: 0
  9768  0028D2  90D8               	bcf	status,0,c
  9769  0028D4  3769               	rlcf	___lwdiv@quotient& (0+255),f,b
  9770  0028D6  376A               	rlcf	(___lwdiv@quotient+1)& (0+255),f,b
  9771  0028D8                     
  9772                           ; BSR set to: 0
  9773  0028D8  5167               	movf	___lwdiv@divisor& (0+255),w,b
  9774  0028DA  5D65               	subwf	___lwdiv@dividend& (0+255),w,b
  9775  0028DC  5168               	movf	(___lwdiv@divisor+1)& (0+255),w,b
  9776  0028DE  5966               	subwfb	(___lwdiv@dividend+1)& (0+255),w,b
  9777  0028E0  A0D8               	btfss	status,0,c
  9778  0028E2  EF75  F014         	goto	u5061
  9779  0028E6  EF77  F014         	goto	u5060
  9780  0028EA                     u5061:
  9781  0028EA  EF7C  F014         	goto	l4727
  9782  0028EE                     u5060:
  9783  0028EE                     
  9784                           ; BSR set to: 0
  9785  0028EE  5167               	movf	___lwdiv@divisor& (0+255),w,b
  9786  0028F0  5F65               	subwf	___lwdiv@dividend& (0+255),f,b
  9787  0028F2  5168               	movf	(___lwdiv@divisor+1)& (0+255),w,b
  9788  0028F4  5B66               	subwfb	(___lwdiv@dividend+1)& (0+255),f,b
  9789  0028F6                     
  9790                           ; BSR set to: 0
  9791  0028F6  8169               	bsf	___lwdiv@quotient& (0+255),0,b
  9792  0028F8                     l4727:
  9793                           
  9794                           ; BSR set to: 0
  9795  0028F8  90D8               	bcf	status,0,c
  9796  0028FA  3368               	rrcf	(___lwdiv@divisor+1)& (0+255),f,b
  9797  0028FC  3367               	rrcf	___lwdiv@divisor& (0+255),f,b
  9798  0028FE                     
  9799                           ; BSR set to: 0
  9800  0028FE  2F6B               	decfsz	___lwdiv@counter& (0+255),f,b
  9801  002900  EF69  F014         	goto	l4719
  9802  002904                     l1276:
  9803                           
  9804                           ; BSR set to: 0
  9805  002904  C069  F065         	movff	___lwdiv@quotient,?___lwdiv
  9806  002908  C06A  F066         	movff	___lwdiv@quotient+1,?___lwdiv+1
  9807  00290C                     
  9808                           ; BSR set to: 0
  9809  00290C  0012               	return		;funcret
  9810  00290E                     __end_of___lwdiv:
  9811                           	opt callstack 0
  9812                           
  9813 ;; *************** function _UARTWrite *****************
  9814 ;; Defined at:
  9815 ;;		line 33 in file "../Proyectoa4550.X/UART50.c"
  9816 ;; Parameters:    Size  Location     Type
  9817 ;;  txData          1    wreg     unsigned char 
  9818 ;; Auto vars:     Size  Location     Type
  9819 ;;  txData          1    0[BANK0 ] unsigned char 
  9820 ;; Return value:  Size  Location     Type
  9821 ;;                  1    wreg      void 
  9822 ;; Registers used:
  9823 ;;		wreg
  9824 ;; Tracked objects:
  9825 ;;		On entry : 0/0
  9826 ;;		On exit  : 0/0
  9827 ;;		Unchanged: 0/0
  9828 ;; Data sizes:     COMRAM   BANK0   BANK1   BANK2   BANK3   BANK4   BANK5   BANK6   BANK7
  9829 ;;      Params:         0       0       0       0       0       0       0       0       0
  9830 ;;      Locals:         0       1       0       0       0       0       0       0       0
  9831 ;;      Temps:          0       0       0       0       0       0       0       0       0
  9832 ;;      Totals:         0       1       0       0       0       0       0       0       0
  9833 ;;Total ram usage:        1 bytes
  9834 ;; Hardware stack levels used:    1
  9835 ;; Hardware stack levels required when called:    5
  9836 ;; This function calls:
  9837 ;;		Nothing
  9838 ;; This function is called by:
  9839 ;;		_Obt
  9840 ;;		_Menimp
  9841 ;;		_imprimirSet
  9842 ;;		_SETNOEX
  9843 ;;		_SETPOINEXIST
  9844 ;;		_Mensaje_comando_completado
  9845 ;;		_NOHAYESPACIO
  9846 ;;		_MENUINS
  9847 ;;		_PREGUNTA
  9848 ;;		_IMP_ACCION
  9849 ;;		_imprimirINS
  9850 ;;		_PREGUNTA2
  9851 ;;		_NOcomando
  9852 ;;		_NOcoordenada
  9853 ;;		_OCUPADO
  9854 ;;		_COORReal
  9855 ;;		_Tardanza
  9856 ;;		_EditseT
  9857 ;;		_MOVASETPOINT
  9858 ;;		_ESCRIBIRINSTRUCCION
  9859 ;; This function uses a non-reentrant model
  9860 ;;
  9861                           
  9862                           	psect	text54
  9863  0034AE                     __ptext54:
  9864                           	opt callstack 0
  9865  0034AE                     _UARTWrite:
  9866                           	opt callstack 24
  9867                           
  9868                           ; BSR set to: 0
  9869                           ;incstack = 0
  9870                           ;UARTWrite@txData stored from wreg
  9871  0034AE  0100               	movlb	0	; () banked
  9872  0034B0  6F60               	movwf	UARTWrite@txData& (0+255),b
  9873  0034B2                     l319:
  9874                           
  9875                           ;../Proyectoa4550.X/UART50.c: 34:     while (!TXSTAbits.TRMT) {
  9876  0034B2  A2AC               	btfss	172,1,c	;volatile
  9877  0034B4  EF5E  F01A         	goto	u3451
  9878  0034B8  EF60  F01A         	goto	u3450
  9879  0034BC                     u3451:
  9880  0034BC  EF59  F01A         	goto	l319
  9881  0034C0                     u3450:
  9882  0034C0                     
  9883                           ;../Proyectoa4550.X/UART50.c: 36:     TXREG = txData;
  9884  0034C0  C060  FFAD         	movff	UARTWrite@txData,4013	;volatile
  9885  0034C4  0012               	return		;funcret
  9886  0034C6                     __end_of_UARTWrite:
  9887                           	opt callstack 0
  9888                           
  9889 ;; *************** function _CHECK *****************
  9890 ;; Defined at:
  9891 ;;		line 126 in file "SETPOINTS.c"
  9892 ;; Parameters:    Size  Location     Type
  9893 ;;		None
  9894 ;; Auto vars:     Size  Location     Type
  9895 ;;  T               1    2[BANK0 ] unsigned char 
  9896 ;;  i               1    3[BANK0 ] unsigned char 
  9897 ;; Return value:  Size  Location     Type
  9898 ;;                  1    wreg      void 
  9899 ;; Registers used:
  9900 ;;		wreg, status,2, status,0, cstack
  9901 ;; Tracked objects:
  9902 ;;		On entry : 0/0
  9903 ;;		On exit  : 0/0
  9904 ;;		Unchanged: 0/0
  9905 ;; Data sizes:     COMRAM   BANK0   BANK1   BANK2   BANK3   BANK4   BANK5   BANK6   BANK7
  9906 ;;      Params:         0       0       0       0       0       0       0       0       0
  9907 ;;      Locals:         0       2       0       0       0       0       0       0       0
  9908 ;;      Temps:          0       0       0       0       0       0       0       0       0
  9909 ;;      Totals:         0       2       0       0       0       0       0       0       0
  9910 ;;Total ram usage:        2 bytes
  9911 ;; Hardware stack levels used:    1
  9912 ;; Hardware stack levels required when called:    6
  9913 ;; This function calls:
  9914 ;;		_EEPROM_R
  9915 ;;		_EEPROM_W
  9916 ;; This function is called by:
  9917 ;;		_main
  9918 ;; This function uses a non-reentrant model
  9919 ;;
  9920                           
  9921                           	psect	text55
  9922  002E44                     __ptext55:
  9923                           	opt callstack 0
  9924  002E44                     _CHECK:
  9925                           	opt callstack 24
  9926  002E44                     
  9927                           ;SETPOINTS.c: 127:     for(uint8_t i=0; i<255; i++) {
  9928  002E44  0E00               	movlw	0
  9929  002E46  0100               	movlb	0	; () banked
  9930  002E48  6F63               	movwf	CHECK@i& (0+255),b
  9931  002E4A                     l5103:
  9932                           
  9933                           ; BSR set to: 0
  9934                           ;SETPOINTS.c: 128:         uint8_t T=EEPROM_R(i);
  9935  002E4A  5163               	movf	CHECK@i& (0+255),w,b
  9936  002E4C  EC79  F01A         	call	_EEPROM_R
  9937  002E50  0100               	movlb	0	; () banked
  9938  002E52  6F62               	movwf	CHECK@T& (0+255),b
  9939  002E54                     
  9940                           ; BSR set to: 0
  9941                           ;SETPOINTS.c: 129:         if(T==0xFF) {
  9942  002E54  2962               	incf	CHECK@T& (0+255),w,b
  9943  002E56  A4D8               	btfss	status,2,c
  9944  002E58  EF30  F017         	goto	u5411
  9945  002E5C  EF32  F017         	goto	u5410
  9946  002E60                     u5411:
  9947  002E60  EF37  F017         	goto	l5109
  9948  002E64                     u5410:
  9949  002E64                     
  9950                           ; BSR set to: 0
  9951                           ;SETPOINTS.c: 130:             EEPROM_W(i,90);
  9952  002E64  0E5A               	movlw	90
  9953  002E66  6F60               	movwf	EEPROM_W@dato& (0+255),b
  9954  002E68  5163               	movf	CHECK@i& (0+255),w,b
  9955  002E6A  ECD6  F018         	call	_EEPROM_W
  9956  002E6E                     l5109:
  9957                           
  9958                           ;SETPOINTS.c: 132:     }
  9959  002E6E  0100               	movlb	0	; () banked
  9960  002E70  2B63               	incf	CHECK@i& (0+255),f,b
  9961  002E72                     
  9962                           ; BSR set to: 0
  9963  002E72  2963               	incf	CHECK@i& (0+255),w,b
  9964  002E74  A4D8               	btfss	status,2,c
  9965  002E76  EF3F  F017         	goto	u5421
  9966  002E7A  EF41  F017         	goto	u5420
  9967  002E7E                     u5421:
  9968  002E7E  EF25  F017         	goto	l5103
  9969  002E82                     u5420:
  9970  002E82                     
  9971                           ; BSR set to: 0
  9972  002E82  0012               	return		;funcret
  9973  002E84                     __end_of_CHECK:
  9974                           	opt callstack 0
  9975                           
  9976 ;; *************** function _EEPROM_W *****************
  9977 ;; Defined at:
  9978 ;;		line 13 in file "EEPROM.c"
  9979 ;; Parameters:    Size  Location     Type
  9980 ;;  dir             1    wreg     unsigned char 
  9981 ;;  dato            1    0[BANK0 ] unsigned char 
  9982 ;; Auto vars:     Size  Location     Type
  9983 ;;  dir             1    1[BANK0 ] unsigned char 
  9984 ;; Return value:  Size  Location     Type
  9985 ;;                  1    wreg      void 
  9986 ;; Registers used:
  9987 ;;		wreg, status,2
  9988 ;; Tracked objects:
  9989 ;;		On entry : 0/0
  9990 ;;		On exit  : 0/0
  9991 ;;		Unchanged: 0/0
  9992 ;; Data sizes:     COMRAM   BANK0   BANK1   BANK2   BANK3   BANK4   BANK5   BANK6   BANK7
  9993 ;;      Params:         0       1       0       0       0       0       0       0       0
  9994 ;;      Locals:         0       1       0       0       0       0       0       0       0
  9995 ;;      Temps:          0       0       0       0       0       0       0       0       0
  9996 ;;      Totals:         0       2       0       0       0       0       0       0       0
  9997 ;;Total ram usage:        2 bytes
  9998 ;; Hardware stack levels used:    1
  9999 ;; Hardware stack levels required when called:    5
 10000 ;; This function calls:
 10001 ;;		Nothing
 10002 ;; This function is called by:
 10003 ;;		_GuardarsetN
 10004 ;;		_GuardarsetX
 10005 ;;		_GuardarsetY
 10006 ;;		_CHECK
 10007 ;;		_BORRARINSTRUCCION
 10008 ;;		_INSTRUCCION
 10009 ;; This function uses a non-reentrant model
 10010 ;;
 10011                           
 10012                           	psect	text56
 10013  0031AC                     __ptext56:
 10014                           	opt callstack 0
 10015  0031AC                     _EEPROM_W:
 10016                           	opt callstack 24
 10017                           
 10018                           ; BSR set to: 0
 10019                           ;incstack = 0
 10020                           ;EEPROM_W@dir stored from wreg
 10021  0031AC  0100               	movlb	0	; () banked
 10022  0031AE  6F61               	movwf	EEPROM_W@dir& (0+255),b
 10023  0031B0                     
 10024                           ;EEPROM.c: 14:     EEADR = dir;
 10025  0031B0  C061  FFA9         	movff	EEPROM_W@dir,4009	;volatile
 10026  0031B4                     
 10027                           ;EEPROM.c: 15:     EEDATA = dato;
 10028  0031B4  C060  FFA8         	movff	EEPROM_W@dato,4008	;volatile
 10029  0031B8                     
 10030                           ;EEPROM.c: 16:     EECON1bits.EEPGD=0;
 10031  0031B8  9EA6               	bcf	166,7,c	;volsfr
 10032  0031BA                     
 10033                           ;EEPROM.c: 17:     EECON1bits.CFGS=0;
 10034  0031BA  9CA6               	bcf	166,6,c	;volsfr
 10035  0031BC                     
 10036                           ;EEPROM.c: 18:     EECON1bits.WREN=1;
 10037  0031BC  84A6               	bsf	166,2,c	;volsfr
 10038  0031BE                     
 10039                           ;EEPROM.c: 19:     INTCONbits.GIE=0;
 10040  0031BE  9EF2               	bcf	242,7,c	;volatile
 10041  0031C0                     
 10042                           ;EEPROM.c: 20:     EECON2=0x55;
 10043  0031C0  0E55               	movlw	85
 10044  0031C2  6EA7               	movwf	167,c	;volsfr
 10045  0031C4                     
 10046                           ;EEPROM.c: 21:     EECON2=0x0AA;
 10047  0031C4  0EAA               	movlw	170
 10048  0031C6  6EA7               	movwf	167,c	;volsfr
 10049  0031C8                     
 10050                           ;EEPROM.c: 22:     EECON1bits.WR=1;
 10051  0031C8  82A6               	bsf	166,1,c	;volsfr
 10052  0031CA                     
 10053                           ;EEPROM.c: 23:     INTCONbits.GIE=1;
 10054  0031CA  8EF2               	bsf	242,7,c	;volatile
 10055  0031CC                     l562:
 10056  0031CC  A8A1               	btfss	161,4,c	;volatile
 10057  0031CE  EFEB  F018         	goto	u3491
 10058  0031D2  EFED  F018         	goto	u3490
 10059  0031D6                     u3491:
 10060  0031D6  EFE6  F018         	goto	l562
 10061  0031DA                     u3490:
 10062  0031DA                     
 10063                           ;EEPROM.c: 25:     PIR2bits.EEIF=0;
 10064  0031DA  98A1               	bcf	161,4,c	;volatile
 10065                           
 10066                           ;EEPROM.c: 26:     EECON1bits.WREN=0;
 10067  0031DC  94A6               	bcf	166,2,c	;volsfr
 10068  0031DE  0012               	return		;funcret
 10069  0031E0                     __end_of_EEPROM_W:
 10070                           	opt callstack 0
 10071                           
 10072 ;; *************** function _EEPROM_R *****************
 10073 ;; Defined at:
 10074 ;;		line 29 in file "EEPROM.c"
 10075 ;; Parameters:    Size  Location     Type
 10076 ;;  dir             1    wreg     unsigned char 
 10077 ;; Auto vars:     Size  Location     Type
 10078 ;;  dir             1    0[BANK0 ] unsigned char 
 10079 ;; Return value:  Size  Location     Type
 10080 ;;                  1    wreg      unsigned char 
 10081 ;; Registers used:
 10082 ;;		wreg, status,2
 10083 ;; Tracked objects:
 10084 ;;		On entry : 0/0
 10085 ;;		On exit  : 0/0
 10086 ;;		Unchanged: 0/0
 10087 ;; Data sizes:     COMRAM   BANK0   BANK1   BANK2   BANK3   BANK4   BANK5   BANK6   BANK7
 10088 ;;      Params:         0       0       0       0       0       0       0       0       0
 10089 ;;      Locals:         0       1       0       0       0       0       0       0       0
 10090 ;;      Temps:          0       0       0       0       0       0       0       0       0
 10091 ;;      Totals:         0       1       0       0       0       0       0       0       0
 10092 ;;Total ram usage:        1 bytes
 10093 ;; Hardware stack levels used:    1
 10094 ;; Hardware stack levels required when called:    5
 10095 ;; This function calls:
 10096 ;;		Nothing
 10097 ;; This function is called by:
 10098 ;;		_imprimirSet
 10099 ;;		_imprimirINS
 10100 ;;		_SETPOINTBUSCAR
 10101 ;;		_CHECK
 10102 ;;		_ExtraerDato
 10103 ;;		_EJECUTARINS
 10104 ;; This function uses a non-reentrant model
 10105 ;;
 10106                           
 10107                           	psect	text57
 10108  0034F2                     __ptext57:
 10109                           	opt callstack 0
 10110  0034F2                     _EEPROM_R:
 10111                           	opt callstack 24
 10112                           
 10113                           ;incstack = 0
 10114                           ;EEPROM_R@dir stored from wreg
 10115  0034F2  0100               	movlb	0	; () banked
 10116  0034F4  6F60               	movwf	EEPROM_R@dir& (0+255),b
 10117  0034F6                     
 10118                           ;EEPROM.c: 30:     EEADR=dir;
 10119  0034F6  C060  FFA9         	movff	EEPROM_R@dir,4009	;volatile
 10120  0034FA                     
 10121                           ;EEPROM.c: 31:     EECON1bits.EEPGD=0;
 10122  0034FA  9EA6               	bcf	166,7,c	;volsfr
 10123  0034FC                     
 10124                           ;EEPROM.c: 32:     EECON1bits.CFGS=0;
 10125  0034FC  9CA6               	bcf	166,6,c	;volsfr
 10126  0034FE                     
 10127                           ;EEPROM.c: 33:     EECON1bits.RD=1;
 10128  0034FE  80A6               	bsf	166,0,c	;volsfr
 10129  003500                     
 10130                           ;EEPROM.c: 34:     return EEDATA;
 10131  003500  50A8               	movf	168,w,c	;volatile
 10132  003502  0012               	return		;funcret
 10133  003504                     __end_of_EEPROM_R:
 10134                           	opt callstack 0
 10135                           
 10136 ;; *************** function _INT_isr *****************
 10137 ;; Defined at:
 10138 ;;		line 46 in file "SPARC.c"
 10139 ;; Parameters:    Size  Location     Type
 10140 ;;		None
 10141 ;; Auto vars:     Size  Location     Type
 10142 ;;		None
 10143 ;; Return value:  Size  Location     Type
 10144 ;;                  1    wreg      void 
 10145 ;; Registers used:
 10146 ;;		wreg, fsr1l, fsr1h, fsr2l, fsr2h, status,2, status,0, prodl, prodh, cstack
 10147 ;; Tracked objects:
 10148 ;;		On entry : 0/0
 10149 ;;		On exit  : 0/0
 10150 ;;		Unchanged: 0/0
 10151 ;; Data sizes:     COMRAM   BANK0   BANK1   BANK2   BANK3   BANK4   BANK5   BANK6   BANK7
 10152 ;;      Params:         0       0       0       0       0       0       0       0       0
 10153 ;;      Locals:         0       0       0       0       0       0       0       0       0
 10154 ;;      Temps:          7       0       0       0       0       0       0       0       0
 10155 ;;      Totals:         7       0       0       0       0       0       0       0       0
 10156 ;;Total ram usage:        7 bytes
 10157 ;; Hardware stack levels used:    1
 10158 ;; Hardware stack levels required when called:    4
 10159 ;; This function calls:
 10160 ;;		_PARO2aden
 10161 ;;		_PARO2out
 10162 ;;		_interrupcionX
 10163 ;;		_interrupcionY
 10164 ;;		i2_motoresmov
 10165 ;; This function is called by:
 10166 ;;		Interrupt level 2
 10167 ;; This function uses a non-reentrant model
 10168 ;;
 10169                           
 10170                           	psect	intcode
 10171  000008                     __pintcode:
 10172                           	opt callstack 0
 10173  000008                     _INT_isr:
 10174                           	opt callstack 20
 10175                           
 10176                           ;incstack = 0
 10177  000008  825F               	bsf	int$flags,1,c	;set compiler interrupt flag (level 2)
 10178  00000A  ED3F  F00E         	call	int_func,f	;refresh shadow registers
 10179                           
 10180                           	psect	intcode_body
 10181  001C7E                     __pintcode_body:
 10182                           	opt callstack 20
 10183  001C7E                     int_func:
 10184                           	opt callstack 20
 10185  001C7E  0006               	pop		; remove dummy address from shadow register refresh
 10186  001C80  CFE1 F03E          	movff	fsr1l,??_INT_isr+1
 10187  001C84  CFE2 F03F          	movff	fsr1h,??_INT_isr+2
 10188  001C88  CFD9 F040          	movff	fsr2l,??_INT_isr+3
 10189  001C8C  CFDA F041          	movff	fsr2h,??_INT_isr+4
 10190  001C90  CFF3 F042          	movff	prodl,??_INT_isr+5
 10191  001C94  CFF4 F043          	movff	prodh,??_INT_isr+6
 10192  001C98                     
 10193                           ;SPARC.c: 47:     _delay((unsigned long)((10)*(4000000/4000.0)));
 10194  001C98  0E0D               	movlw	13
 10195  001C9A  6E3D               	movwf	??_INT_isr^0,c
 10196  001C9C  0EFC               	movlw	252
 10197  001C9E                     i2u606_47:
 10198  001C9E  2EE8               	decfsz	wreg,f,c
 10199  001CA0  D7FE               	bra	i2u606_47
 10200  001CA2  2E3D               	decfsz	??_INT_isr^0,f,c
 10201  001CA4  D7FC               	bra	i2u606_47
 10202  001CA6                     
 10203                           ;SPARC.c: 48:     if(INTCON3bits.INT1IF==1&&PORTBbits.RB1==1) {
 10204  001CA6  A0F0               	btfss	240,0,c	;volatile
 10205  001CA8  EF58  F00E         	goto	i2u564_41
 10206  001CAC  EF5A  F00E         	goto	i2u564_40
 10207  001CB0                     i2u564_41:
 10208  001CB0  EF80  F00E         	goto	i2l439
 10209  001CB4                     i2u564_40:
 10210  001CB4  A281               	btfss	129,1,c	;volatile
 10211  001CB6  EF5F  F00E         	goto	i2u565_41
 10212  001CBA  EF61  F00E         	goto	i2u565_40
 10213  001CBE                     i2u565_41:
 10214  001CBE  EF80  F00E         	goto	i2l439
 10215  001CC2                     i2u565_40:
 10216  001CC2                     
 10217                           ;SPARC.c: 49:         interrupcionX();
 10218  001CC2  ECBB  F018         	call	_interrupcionX	;wreg free
 10219  001CC6                     
 10220                           ;SPARC.c: 50:         motoresmov(5,0);
 10221  001CC6  0E00               	movlw	0
 10222  001CC8  6E36               	movwf	(i2motoresmov@DifX+1)^0,c
 10223  001CCA  0E05               	movlw	5
 10224  001CCC  6E35               	movwf	i2motoresmov@DifX^0,c
 10225  001CCE  0E00               	movlw	0
 10226  001CD0  6E38               	movwf	(i2motoresmov@DifY+1)^0,c
 10227  001CD2  0E00               	movlw	0
 10228  001CD4  6E37               	movwf	i2motoresmov@DifY^0,c
 10229  001CD6  EC99  F012         	call	i2_motoresmov	;wreg free
 10230  001CDA                     
 10231                           ;SPARC.c: 51:         *PX=0;
 10232  001CDA  C058  FFD9         	movff	_PX,fsr2l
 10233  001CDE  C059  FFDA         	movff	_PX+1,fsr2h
 10234  001CE2  0E00               	movlw	0
 10235  001CE4  6EDE               	movwf	postinc2,c
 10236  001CE6  0E00               	movlw	0
 10237  001CE8  6EDD               	movwf	postdec2,c
 10238  001CEA                     
 10239                           ;SPARC.c: 52:         *PXN=0;
 10240  001CEA  C054  FFD9         	movff	_PXN,fsr2l
 10241  001CEE  C055  FFDA         	movff	_PXN+1,fsr2h
 10242  001CF2  0E00               	movlw	0
 10243  001CF4  6EDE               	movwf	postinc2,c
 10244  001CF6  0E00               	movlw	0
 10245  001CF8  6EDD               	movwf	postdec2,c
 10246  001CFA                     
 10247                           ;SPARC.c: 53:         INTCON3bits.INT1IF=0;
 10248  001CFA  90F0               	bcf	240,0,c	;volatile
 10249                           
 10250                           ;SPARC.c: 54:     } else if(INTCONbits.INT0IF==1&&PORTBbits.RB0==1) {
 10251  001CFC  EFC7  F00E         	goto	i2l5341
 10252  001D00                     i2l439:
 10253  001D00  A2F2               	btfss	242,1,c	;volatile
 10254  001D02  EF85  F00E         	goto	i2u566_41
 10255  001D06  EF87  F00E         	goto	i2u566_40
 10256  001D0A                     i2u566_41:
 10257  001D0A  EFAD  F00E         	goto	i2l441
 10258  001D0E                     i2u566_40:
 10259  001D0E  A081               	btfss	129,0,c	;volatile
 10260  001D10  EF8C  F00E         	goto	i2u567_41
 10261  001D14  EF8E  F00E         	goto	i2u567_40
 10262  001D18                     i2u567_41:
 10263  001D18  EFAD  F00E         	goto	i2l441
 10264  001D1C                     i2u567_40:
 10265  001D1C                     
 10266                           ;SPARC.c: 55:         interrupcionY();
 10267  001D1C  ECA0  F018         	call	_interrupcionY	;wreg free
 10268  001D20                     
 10269                           ;SPARC.c: 56:         motoresmov(0,5);
 10270  001D20  0E00               	movlw	0
 10271  001D22  6E36               	movwf	(i2motoresmov@DifX+1)^0,c
 10272  001D24  0E00               	movlw	0
 10273  001D26  6E35               	movwf	i2motoresmov@DifX^0,c
 10274  001D28  0E00               	movlw	0
 10275  001D2A  6E38               	movwf	(i2motoresmov@DifY+1)^0,c
 10276  001D2C  0E05               	movlw	5
 10277  001D2E  6E37               	movwf	i2motoresmov@DifY^0,c
 10278  001D30  EC99  F012         	call	i2_motoresmov	;wreg free
 10279  001D34                     
 10280                           ;SPARC.c: 57:         *PY=0;
 10281  001D34  C056  FFD9         	movff	_PY,fsr2l
 10282  001D38  C057  FFDA         	movff	_PY+1,fsr2h
 10283  001D3C  0E00               	movlw	0
 10284  001D3E  6EDE               	movwf	postinc2,c
 10285  001D40  0E00               	movlw	0
 10286  001D42  6EDD               	movwf	postdec2,c
 10287  001D44                     
 10288                           ;SPARC.c: 58:         *PYN=0;
 10289  001D44  C052  FFD9         	movff	_PYN,fsr2l
 10290  001D48  C053  FFDA         	movff	_PYN+1,fsr2h
 10291  001D4C  0E00               	movlw	0
 10292  001D4E  6EDE               	movwf	postinc2,c
 10293  001D50  0E00               	movlw	0
 10294  001D52  6EDD               	movwf	postdec2,c
 10295  001D54                     
 10296                           ;SPARC.c: 59:         INTCONbits.INT0IF=0;
 10297  001D54  92F2               	bcf	242,1,c	;volatile
 10298                           
 10299                           ;SPARC.c: 61:     }else if(INTCON3bits.INT2IF==1&&PORTBbits.RB2==1) {
 10300  001D56  EFC7  F00E         	goto	i2l5341
 10301  001D5A                     i2l441:
 10302  001D5A  A2F0               	btfss	240,1,c	;volatile
 10303  001D5C  EFB2  F00E         	goto	i2u568_41
 10304  001D60  EFB4  F00E         	goto	i2u568_40
 10305  001D64                     i2u568_41:
 10306  001D64  EFC7  F00E         	goto	i2l5341
 10307  001D68                     i2u568_40:
 10308  001D68  A481               	btfss	129,2,c	;volatile
 10309  001D6A  EFB9  F00E         	goto	i2u569_41
 10310  001D6E  EFBB  F00E         	goto	i2u569_40
 10311  001D72                     i2u569_41:
 10312  001D72  EFC7  F00E         	goto	i2l5341
 10313  001D76                     i2u569_40:
 10314  001D76                     
 10315                           ;SPARC.c: 62:         PARO2aden();
 10316  001D76  EC82  F01A         	call	_PARO2aden	;wreg free
 10317  001D7A                     i2l444:
 10318  001D7A  B481               	btfsc	129,2,c	;volatile
 10319  001D7C  EFC2  F00E         	goto	i2u570_41
 10320  001D80  EFC4  F00E         	goto	i2u570_40
 10321  001D84                     i2u570_41:
 10322  001D84  EFBD  F00E         	goto	i2l444
 10323  001D88                     i2u570_40:
 10324  001D88                     
 10325                           ;SPARC.c: 64:         PARO2out();
 10326  001D88  EC8B  F01A         	call	_PARO2out	;wreg free
 10327  001D8C                     
 10328                           ;SPARC.c: 65:         INTCON3bits.INT2IF=0;
 10329  001D8C  92F0               	bcf	240,1,c	;volatile
 10330  001D8E                     i2l5341:
 10331                           
 10332                           ;SPARC.c: 68:     INTCON3bits.INT1IF=0;
 10333  001D8E  90F0               	bcf	240,0,c	;volatile
 10334  001D90                     
 10335                           ;SPARC.c: 69:     INTCONbits.INT0IF=0;
 10336  001D90  92F2               	bcf	242,1,c	;volatile
 10337  001D92                     
 10338                           ;SPARC.c: 70:     INTCONbits.INT0IF=0;
 10339  001D92  92F2               	bcf	242,1,c	;volatile
 10340  001D94  C043  FFF4         	movff	??_INT_isr+6,prodh
 10341  001D98  C042  FFF3         	movff	??_INT_isr+5,prodl
 10342  001D9C  C041  FFDA         	movff	??_INT_isr+4,fsr2h
 10343  001DA0  C040  FFD9         	movff	??_INT_isr+3,fsr2l
 10344  001DA4  C03F  FFE2         	movff	??_INT_isr+2,fsr1h
 10345  001DA8  C03E  FFE1         	movff	??_INT_isr+1,fsr1l
 10346  001DAC  925F               	bcf	int$flags,1,c	;clear compiler interrupt flag (level 2)
 10347  001DAE  0011               	retfie		f
 10348  001DB0                     __end_of_INT_isr:
 10349                           	opt callstack 0
 10350                           
 10351 ;; *************** function i2_motoresmov *****************
 10352 ;; Defined at:
 10353 ;;		line 17 in file "../Proyectoa4550.X/MOTOR.c"
 10354 ;; Parameters:    Size  Location     Type
 10355 ;;  DifX            2   52[COMRAM] short 
 10356 ;;  DifY            2   54[COMRAM] short 
 10357 ;; Auto vars:     Size  Location     Type
 10358 ;;  motoresmov      2   58[COMRAM] short 
 10359 ;;  motoresmov      2   56[COMRAM] short 
 10360 ;; Return value:  Size  Location     Type
 10361 ;;                  1    wreg      void 
 10362 ;; Registers used:
 10363 ;;		wreg, status,2, status,0, prodl, prodh, cstack
 10364 ;; Tracked objects:
 10365 ;;		On entry : 0/0
 10366 ;;		On exit  : 0/0
 10367 ;;		Unchanged: 0/0
 10368 ;; Data sizes:     COMRAM   BANK0   BANK1   BANK2   BANK3   BANK4   BANK5   BANK6   BANK7
 10369 ;;      Params:         4       0       0       0       0       0       0       0       0
 10370 ;;      Locals:         4       0       0       0       0       0       0       0       0
 10371 ;;      Temps:          0       0       0       0       0       0       0       0       0
 10372 ;;      Totals:         8       0       0       0       0       0       0       0       0
 10373 ;;Total ram usage:        8 bytes
 10374 ;; Hardware stack levels used:    1
 10375 ;; Hardware stack levels required when called:    3
 10376 ;; This function calls:
 10377 ;;		i2_CONTADOR
 10378 ;;		i2_Conversion
 10379 ;;		i2_DIR_A
 10380 ;;		i2_DIR_B
 10381 ;;		i2_ENABLE_A
 10382 ;;		i2_ENABLE_B
 10383 ;; This function is called by:
 10384 ;;		_INT_isr
 10385 ;; This function uses a non-reentrant model
 10386 ;;
 10387                           
 10388                           	psect	text59
 10389  002532                     __ptext59:
 10390                           	opt callstack 0
 10391  002532                     i2_motoresmov:
 10392                           	opt callstack 20
 10393  002532                     
 10394                           ;../Proyectoa4550.X/MOTOR.c: 18:     int16_t DifA=DifX+DifY;
 10395  002532  5037               	movf	i2motoresmov@DifY^0,w,c
 10396  002534  2435               	addwf	i2motoresmov@DifX^0,w,c
 10397  002536  6E39               	movwf	i2motoresmov@DifA^0,c
 10398  002538  5038               	movf	(i2motoresmov@DifY+1)^0,w,c
 10399  00253A  2036               	addwfc	(i2motoresmov@DifX+1)^0,w,c
 10400  00253C  6E3A               	movwf	(i2motoresmov@DifA+1)^0,c
 10401                           
 10402                           ;../Proyectoa4550.X/MOTOR.c: 19:     int16_t DifB=DifX-DifY;
 10403  00253E  5037               	movf	i2motoresmov@DifY^0,w,c
 10404  002540  5C35               	subwf	i2motoresmov@DifX^0,w,c
 10405  002542  6E3B               	movwf	i2motoresmov@DifB^0,c
 10406  002544  5038               	movf	(i2motoresmov@DifY+1)^0,w,c
 10407  002546  5836               	subwfb	(i2motoresmov@DifX+1)^0,w,c
 10408  002548  6E3C               	movwf	(i2motoresmov@DifB+1)^0,c
 10409  00254A                     
 10410                           ;../Proyectoa4550.X/MOTOR.c: 20:     DifA=Conversion(DifA);
 10411  00254A  C039  F029         	movff	i2motoresmov@DifA,i2Conversion@Dif
 10412  00254E  C03A  F02A         	movff	i2motoresmov@DifA+1,i2Conversion@Dif+1
 10413  002552  EC65  F00F         	call	i2_Conversion	;wreg free
 10414  002556  C029  F039         	movff	?i2_Conversion,i2motoresmov@DifA
 10415  00255A  C02A  F03A         	movff	?i2_Conversion+1,i2motoresmov@DifA+1
 10416  00255E                     
 10417                           ;../Proyectoa4550.X/MOTOR.c: 21:     DifB=Conversion(DifB);
 10418  00255E  C03B  F029         	movff	i2motoresmov@DifB,i2Conversion@Dif
 10419  002562  C03C  F02A         	movff	i2motoresmov@DifB+1,i2Conversion@Dif+1
 10420  002566  EC65  F00F         	call	i2_Conversion	;wreg free
 10421  00256A  C029  F03B         	movff	?i2_Conversion,i2motoresmov@DifB
 10422  00256E  C02A  F03C         	movff	?i2_Conversion+1,i2motoresmov@DifB+1
 10423                           
 10424                           ;../Proyectoa4550.X/MOTOR.c: 23:     if(DifA<0) {
 10425  002572  BE3A               	btfsc	(i2motoresmov@DifA+1)^0,7,c
 10426  002574  EFC0  F012         	goto	i2u560_40
 10427  002578  EFBE  F012         	goto	i2u560_41
 10428  00257C                     i2u560_41:
 10429  00257C  EFC5  F012         	goto	i2l5287
 10430  002580                     i2u560_40:
 10431  002580                     
 10432                           ;../Proyectoa4550.X/MOTOR.c: 24:         DIR_A(0);
 10433  002580  0E00               	movlw	0
 10434  002582  EC2D  F01A         	call	i2_DIR_A
 10435                           
 10436                           ;../Proyectoa4550.X/MOTOR.c: 25:     } else {
 10437  002586  EFC8  F012         	goto	i2l5289
 10438  00258A                     i2l5287:
 10439                           
 10440                           ;../Proyectoa4550.X/MOTOR.c: 26:         DIR_A(1);
 10441  00258A  0E01               	movlw	1
 10442  00258C  EC2D  F01A         	call	i2_DIR_A
 10443  002590                     i2l5289:
 10444                           
 10445                           ;../Proyectoa4550.X/MOTOR.c: 28:     if(DifB<0) {
 10446  002590  BE3C               	btfsc	(i2motoresmov@DifB+1)^0,7,c
 10447  002592  EFCF  F012         	goto	i2u561_40
 10448  002596  EFCD  F012         	goto	i2u561_41
 10449  00259A                     i2u561_41:
 10450  00259A  EFD4  F012         	goto	i2l5293
 10451  00259E                     i2u561_40:
 10452  00259E                     
 10453                           ;../Proyectoa4550.X/MOTOR.c: 29:         DIR_B(0);
 10454  00259E  0E00               	movlw	0
 10455  0025A0  EC1F  F01A         	call	i2_DIR_B
 10456                           
 10457                           ;../Proyectoa4550.X/MOTOR.c: 30:     } else {
 10458  0025A4  EFD7  F012         	goto	i2l5295
 10459  0025A8                     i2l5293:
 10460                           
 10461                           ;../Proyectoa4550.X/MOTOR.c: 31:         DIR_B(1);
 10462  0025A8  0E01               	movlw	1
 10463  0025AA  EC1F  F01A         	call	i2_DIR_B
 10464  0025AE                     i2l5295:
 10465                           
 10466                           ;../Proyectoa4550.X/MOTOR.c: 33:     if(DifB!=0) {
 10467  0025AE  503B               	movf	i2motoresmov@DifB^0,w,c
 10468  0025B0  103C               	iorwf	(i2motoresmov@DifB+1)^0,w,c
 10469  0025B2  B4D8               	btfsc	status,2,c
 10470  0025B4  EFDE  F012         	goto	i2u562_41
 10471  0025B8  EFE0  F012         	goto	i2u562_40
 10472  0025BC                     i2u562_41:
 10473  0025BC  EFE3  F012         	goto	i2l5299
 10474  0025C0                     i2u562_40:
 10475  0025C0                     
 10476                           ;../Proyectoa4550.X/MOTOR.c: 34:         ENABLE_B(1);
 10477  0025C0  0E01               	movlw	1
 10478  0025C2  EC3B  F01A         	call	i2_ENABLE_B
 10479  0025C6                     i2l5299:
 10480                           
 10481                           ;../Proyectoa4550.X/MOTOR.c: 36:     if(DifA!=0) {
 10482  0025C6  5039               	movf	i2motoresmov@DifA^0,w,c
 10483  0025C8  103A               	iorwf	(i2motoresmov@DifA+1)^0,w,c
 10484  0025CA  B4D8               	btfsc	status,2,c
 10485  0025CC  EFEA  F012         	goto	i2u563_41
 10486  0025D0  EFEC  F012         	goto	i2u563_40
 10487  0025D4                     i2u563_41:
 10488  0025D4  EFEF  F012         	goto	i2l5303
 10489  0025D8                     i2u563_40:
 10490  0025D8                     
 10491                           ;../Proyectoa4550.X/MOTOR.c: 37:         ENABLE_A(1);
 10492  0025D8  0E01               	movlw	1
 10493  0025DA  EC49  F01A         	call	i2_ENABLE_A
 10494  0025DE                     i2l5303:
 10495                           
 10496                           ;../Proyectoa4550.X/MOTOR.c: 39:     CONTADOR(DifA, DifB);
 10497  0025DE  C039  F006         	movff	i2motoresmov@DifA,i2CONTADOR@DifA
 10498  0025E2  C03A  F007         	movff	i2motoresmov@DifA+1,i2CONTADOR@DifA+1
 10499  0025E6  C03B  F008         	movff	i2motoresmov@DifB,i2CONTADOR@DifB
 10500  0025EA  C03C  F009         	movff	i2motoresmov@DifB+1,i2CONTADOR@DifB+1
 10501  0025EE  ECA0  F00D         	call	i2_CONTADOR	;wreg free
 10502  0025F2  0012               	return		;funcret
 10503  0025F4                     __end_ofi2_motoresmov:
 10504                           	opt callstack 0
 10505                           
 10506 ;; *************** function i2_DIR_B *****************
 10507 ;; Defined at:
 10508 ;;		line 51 in file "../Proyectoa4550.X/GPIO.c"
 10509 ;; Parameters:    Size  Location     Type
 10510 ;;  X               1    wreg     unsigned char 
 10511 ;; Auto vars:     Size  Location     Type
 10512 ;;  X               1    0[COMRAM] unsigned char 
 10513 ;; Return value:  Size  Location     Type
 10514 ;;                  1    wreg      void 
 10515 ;; Registers used:
 10516 ;;		wreg, status,2, status,0
 10517 ;; Tracked objects:
 10518 ;;		On entry : 0/0
 10519 ;;		On exit  : 0/0
 10520 ;;		Unchanged: 0/0
 10521 ;; Data sizes:     COMRAM   BANK0   BANK1   BANK2   BANK3   BANK4   BANK5   BANK6   BANK7
 10522 ;;      Params:         0       0       0       0       0       0       0       0       0
 10523 ;;      Locals:         1       0       0       0       0       0       0       0       0
 10524 ;;      Temps:          0       0       0       0       0       0       0       0       0
 10525 ;;      Totals:         1       0       0       0       0       0       0       0       0
 10526 ;;Total ram usage:        1 bytes
 10527 ;; Hardware stack levels used:    1
 10528 ;; This function calls:
 10529 ;;		Nothing
 10530 ;; This function is called by:
 10531 ;;		i2_motoresmov
 10532 ;; This function uses a non-reentrant model
 10533 ;;
 10534                           
 10535                           	psect	text60
 10536  00343E                     __ptext60:
 10537                           	opt callstack 0
 10538  00343E                     i2_DIR_B:
 10539                           	opt callstack 22
 10540                           
 10541                           ;incstack = 0
 10542                           ;i2DIR_B@X stored from wreg
 10543  00343E  6E01               	movwf	i2DIR_B@X^0,c
 10544  003440                     
 10545                           ;../Proyectoa4550.X/GPIO.c: 52:     if(X==1) {
 10546  003440  0401               	decf	i2DIR_B@X^0,w,c
 10547  003442  A4D8               	btfss	status,2,c
 10548  003444  EF26  F01A         	goto	i2u522_41
 10549  003448  EF28  F01A         	goto	i2u522_40
 10550  00344C                     i2u522_41:
 10551  00344C  EF2B  F01A         	goto	i2l759
 10552  003450                     i2u522_40:
 10553  003450                     
 10554                           ;../Proyectoa4550.X/GPIO.c: 53:         PORTDbits.RD0=1;
 10555  003450  8083               	bsf	131,0,c	;volatile
 10556                           
 10557                           ;../Proyectoa4550.X/GPIO.c: 54:     } else {
 10558  003452  EF2C  F01A         	goto	i2l761
 10559  003456                     i2l759:
 10560                           
 10561                           ;../Proyectoa4550.X/GPIO.c: 55:         PORTDbits.RD0=0;
 10562  003456  9083               	bcf	131,0,c	;volatile
 10563  003458                     i2l761:
 10564  003458  0012               	return		;funcret
 10565  00345A                     __end_ofi2_DIR_B:
 10566                           	opt callstack 0
 10567                           
 10568 ;; *************** function i2_DIR_A *****************
 10569 ;; Defined at:
 10570 ;;		line 59 in file "../Proyectoa4550.X/GPIO.c"
 10571 ;; Parameters:    Size  Location     Type
 10572 ;;  X               1    wreg     unsigned char 
 10573 ;; Auto vars:     Size  Location     Type
 10574 ;;  X               1    0[COMRAM] unsigned char 
 10575 ;; Return value:  Size  Location     Type
 10576 ;;                  1    wreg      void 
 10577 ;; Registers used:
 10578 ;;		wreg, status,2, status,0
 10579 ;; Tracked objects:
 10580 ;;		On entry : 0/0
 10581 ;;		On exit  : 0/0
 10582 ;;		Unchanged: 0/0
 10583 ;; Data sizes:     COMRAM   BANK0   BANK1   BANK2   BANK3   BANK4   BANK5   BANK6   BANK7
 10584 ;;      Params:         0       0       0       0       0       0       0       0       0
 10585 ;;      Locals:         1       0       0       0       0       0       0       0       0
 10586 ;;      Temps:          0       0       0       0       0       0       0       0       0
 10587 ;;      Totals:         1       0       0       0       0       0       0       0       0
 10588 ;;Total ram usage:        1 bytes
 10589 ;; Hardware stack levels used:    1
 10590 ;; This function calls:
 10591 ;;		Nothing
 10592 ;; This function is called by:
 10593 ;;		i2_motoresmov
 10594 ;; This function uses a non-reentrant model
 10595 ;;
 10596                           
 10597                           	psect	text61
 10598  00345A                     __ptext61:
 10599                           	opt callstack 0
 10600  00345A                     i2_DIR_A:
 10601                           	opt callstack 22
 10602                           
 10603                           ;incstack = 0
 10604                           ;i2DIR_A@X stored from wreg
 10605  00345A  6E01               	movwf	i2DIR_A@X^0,c
 10606  00345C                     
 10607                           ;../Proyectoa4550.X/GPIO.c: 60:     if(X==1) {
 10608  00345C  0401               	decf	i2DIR_A@X^0,w,c
 10609  00345E  A4D8               	btfss	status,2,c
 10610  003460  EF34  F01A         	goto	i2u523_41
 10611  003464  EF36  F01A         	goto	i2u523_40
 10612  003468                     i2u523_41:
 10613  003468  EF39  F01A         	goto	i2l764
 10614  00346C                     i2u523_40:
 10615  00346C                     
 10616                           ;../Proyectoa4550.X/GPIO.c: 61:         PORTDbits.RD1=1;
 10617  00346C  8283               	bsf	131,1,c	;volatile
 10618                           
 10619                           ;../Proyectoa4550.X/GPIO.c: 62:     } else {
 10620  00346E  EF3A  F01A         	goto	i2l766
 10621  003472                     i2l764:
 10622                           
 10623                           ;../Proyectoa4550.X/GPIO.c: 63:         PORTDbits.RD1=0;
 10624  003472  9283               	bcf	131,1,c	;volatile
 10625  003474                     i2l766:
 10626  003474  0012               	return		;funcret
 10627  003476                     __end_ofi2_DIR_A:
 10628                           	opt callstack 0
 10629                           
 10630 ;; *************** function i2_Conversion *****************
 10631 ;; Defined at:
 10632 ;;		line 43 in file "../Proyectoa4550.X/MOTOR.c"
 10633 ;; Parameters:    Size  Location     Type
 10634 ;;  Dif             2   40[COMRAM] short 
 10635 ;; Auto vars:     Size  Location     Type
 10636 ;;  Conversion      4   44[COMRAM] float 
 10637 ;;  Conversion      2   50[COMRAM] unsigned short 
 10638 ;;  Conversion      2   48[COMRAM] unsigned short 
 10639 ;; Return value:  Size  Location     Type
 10640 ;;                  2   40[COMRAM] short 
 10641 ;; Registers used:
 10642 ;;		wreg, status,2, status,0, prodl, prodh, cstack
 10643 ;; Tracked objects:
 10644 ;;		On entry : 0/0
 10645 ;;		On exit  : 0/0
 10646 ;;		Unchanged: 0/0
 10647 ;; Data sizes:     COMRAM   BANK0   BANK1   BANK2   BANK3   BANK4   BANK5   BANK6   BANK7
 10648 ;;      Params:         2       0       0       0       0       0       0       0       0
 10649 ;;      Locals:         8       0       0       0       0       0       0       0       0
 10650 ;;      Temps:          2       0       0       0       0       0       0       0       0
 10651 ;;      Totals:        12       0       0       0       0       0       0       0       0
 10652 ;;Total ram usage:       12 bytes
 10653 ;; Hardware stack levels used:    1
 10654 ;; Hardware stack levels required when called:    2
 10655 ;; This function calls:
 10656 ;;		i2___flge
 10657 ;;		i2___flsub
 10658 ;;		i2___wmul
 10659 ;;		i2___xxtofl
 10660 ;;		i2_abs
 10661 ;; This function is called by:
 10662 ;;		i2_motoresmov
 10663 ;; This function uses a non-reentrant model
 10664 ;;
 10665                           
 10666                           	psect	text62
 10667  001ECA                     __ptext62:
 10668                           	opt callstack 0
 10669  001ECA                     i2_Conversion:
 10670                           	opt callstack 20
 10671  001ECA                     
 10672                           ;../Proyectoa4550.X/MOTOR.c: 47:     uint16_t B=abs(Dif);
 10673  001ECA  C029  F001         	movff	i2Conversion@Dif,i2abs@a
 10674  001ECE  C02A  F002         	movff	i2Conversion@Dif+1,i2abs@a+1
 10675  001ED2  EC42  F017         	call	i2_abs	;wreg free
 10676  001ED6  C001  F031         	movff	?i2_abs,i2Conversion@B
 10677  001EDA  C002  F032         	movff	?i2_abs+1,i2Conversion@B+1
 10678  001EDE                     
 10679                           ;../Proyectoa4550.X/MOTOR.c: 48:     float X1=B*5;
 10680  001EDE  C031  F001         	movff	i2Conversion@B,i2___wmul@multiplier
 10681  001EE2  C032  F002         	movff	i2Conversion@B+1,i2___wmul@multiplier+1
 10682  001EE6  0E00               	movlw	0
 10683  001EE8  6E04               	movwf	(i2___wmul@multiplicand+1)^0,c
 10684  001EEA  0E05               	movlw	5
 10685  001EEC  6E03               	movwf	i2___wmul@multiplicand^0,c
 10686  001EEE  ECAB  F019         	call	i2___wmul	;wreg free
 10687  001EF2  C001  F007         	movff	?i2___wmul,i2___xxtofl@val
 10688  001EF6  C002  F008         	movff	?i2___wmul+1,i2___xxtofl@val+1
 10689  001EFA  6A09               	clrf	(i2___xxtofl@val+2)^0,c
 10690  001EFC  6A0A               	clrf	(i2___xxtofl@val+3)^0,c
 10691  001EFE  0E00               	movlw	0
 10692  001F00  EC10  F00A         	call	i2___xxtofl
 10693  001F04  C007  F02D         	movff	?i2___xxtofl,i2Conversion@X1
 10694  001F08  C008  F02E         	movff	?i2___xxtofl+1,i2Conversion@X1+1
 10695  001F0C  C009  F02F         	movff	?i2___xxtofl+2,i2Conversion@X1+2
 10696  001F10  C00A  F030         	movff	?i2___xxtofl+3,i2Conversion@X1+3
 10697  001F14                     
 10698                           ;../Proyectoa4550.X/MOTOR.c: 49:     uint16_t X2=B*5;
 10699  001F14  C031  F001         	movff	i2Conversion@B,i2___wmul@multiplier
 10700  001F18  C032  F002         	movff	i2Conversion@B+1,i2___wmul@multiplier+1
 10701  001F1C  0E00               	movlw	0
 10702  001F1E  6E04               	movwf	(i2___wmul@multiplicand+1)^0,c
 10703  001F20  0E05               	movlw	5
 10704  001F22  6E03               	movwf	i2___wmul@multiplicand^0,c
 10705  001F24  ECAB  F019         	call	i2___wmul	;wreg free
 10706  001F28  C001  F033         	movff	?i2___wmul,i2Conversion@X2
 10707  001F2C  C002  F034         	movff	?i2___wmul+1,i2Conversion@X2+1
 10708                           
 10709                           ;../Proyectoa4550.X/MOTOR.c: 50:     if((X1-X2)>=0.5) {
 10710  001F30  C033  F007         	movff	i2Conversion@X2,i2___xxtofl@val
 10711  001F34  C034  F008         	movff	i2Conversion@X2+1,i2___xxtofl@val+1
 10712  001F38  6A09               	clrf	(i2___xxtofl@val+2)^0,c
 10713  001F3A  6A0A               	clrf	(i2___xxtofl@val+3)^0,c
 10714  001F3C  0E00               	movlw	0
 10715  001F3E  EC10  F00A         	call	i2___xxtofl
 10716  001F42  C007  F019         	movff	?i2___xxtofl,i2___flsub@a
 10717  001F46  C008  F01A         	movff	?i2___xxtofl+1,i2___flsub@a+1
 10718  001F4A  C009  F01B         	movff	?i2___xxtofl+2,i2___flsub@a+2
 10719  001F4E  C00A  F01C         	movff	?i2___xxtofl+3,i2___flsub@a+3
 10720  001F52  C02D  F015         	movff	i2Conversion@X1,i2___flsub@b
 10721  001F56  C02E  F016         	movff	i2Conversion@X1+1,i2___flsub@b+1
 10722  001F5A  C02F  F017         	movff	i2Conversion@X1+2,i2___flsub@b+2
 10723  001F5E  C030  F018         	movff	i2Conversion@X1+3,i2___flsub@b+3
 10724  001F62  EC99  F015         	call	i2___flsub	;wreg free
 10725  001F66  C015  F01D         	movff	?i2___flsub,i2___flge@ff1
 10726  001F6A  C016  F01E         	movff	?i2___flsub+1,i2___flge@ff1+1
 10727  001F6E  C017  F01F         	movff	?i2___flsub+2,i2___flge@ff1+2
 10728  001F72  C018  F020         	movff	?i2___flsub+3,i2___flge@ff1+3
 10729  001F76  0E00               	movlw	0
 10730  001F78  6E21               	movwf	i2___flge@ff2^0,c
 10731  001F7A  0E00               	movlw	0
 10732  001F7C  6E22               	movwf	(i2___flge@ff2+1)^0,c
 10733  001F7E  0E00               	movlw	0
 10734  001F80  6E23               	movwf	(i2___flge@ff2+2)^0,c
 10735  001F82  0E3F               	movlw	63
 10736  001F84  6E24               	movwf	(i2___flge@ff2+3)^0,c
 10737  001F86  EC6F  F010         	call	i2___flge	;wreg free
 10738  001F8A  A0D8               	btfss	status,0,c
 10739  001F8C  EFCA  F00F         	goto	i2u510_41
 10740  001F90  EFCC  F00F         	goto	i2u510_40
 10741  001F94                     i2u510_41:
 10742  001F94  EFCE  F00F         	goto	i2l4755
 10743  001F98                     i2u510_40:
 10744  001F98                     
 10745                           ;../Proyectoa4550.X/MOTOR.c: 51:         X2++;
 10746  001F98  4A33               	infsnz	i2Conversion@X2^0,f,c
 10747  001F9A  2A34               	incf	(i2Conversion@X2+1)^0,f,c
 10748  001F9C                     i2l4755:
 10749                           
 10750                           ;../Proyectoa4550.X/MOTOR.c: 53:     if(Dif<0) {
 10751  001F9C  BE2A               	btfsc	(i2Conversion@Dif+1)^0,7,c
 10752  001F9E  EFD5  F00F         	goto	i2u511_40
 10753  001FA2  EFD3  F00F         	goto	i2u511_41
 10754  001FA6                     i2u511_41:
 10755  001FA6  EFDB  F00F         	goto	i2l37
 10756  001FAA                     i2u511_40:
 10757  001FAA                     
 10758                           ;../Proyectoa4550.X/MOTOR.c: 54:         Dif=X2;
 10759  001FAA  C033  F029         	movff	i2Conversion@X2,i2Conversion@Dif
 10760  001FAE  C034  F02A         	movff	i2Conversion@X2+1,i2Conversion@Dif+1
 10761                           
 10762                           ;../Proyectoa4550.X/MOTOR.c: 55:     } else {
 10763  001FB2  EFE7  F00F         	goto	i2l38
 10764  001FB6                     i2l37:
 10765                           
 10766                           ;../Proyectoa4550.X/MOTOR.c: 56:         Dif=(-X2);
 10767  001FB6  C033  F02B         	movff	i2Conversion@X2,??i2_Conversion
 10768  001FBA  C034  F02C         	movff	i2Conversion@X2+1,??i2_Conversion+1
 10769  001FBE  1E2B               	comf	??i2_Conversion^0,f,c
 10770  001FC0  1E2C               	comf	(??i2_Conversion+1)^0,f,c
 10771  001FC2  4A2B               	infsnz	??i2_Conversion^0,f,c
 10772  001FC4  2A2C               	incf	(??i2_Conversion+1)^0,f,c
 10773  001FC6  C02B  F029         	movff	??i2_Conversion,i2Conversion@Dif
 10774  001FCA  C02C  F02A         	movff	??i2_Conversion+1,i2Conversion@Dif+1
 10775  001FCE                     i2l38:
 10776                           
 10777                           ;../Proyectoa4550.X/MOTOR.c: 58:     return Dif;
 10778  001FCE  C029  F029         	movff	i2Conversion@Dif,?i2_Conversion
 10779  001FD2  C02A  F02A         	movff	i2Conversion@Dif+1,?i2_Conversion+1
 10780  001FD6  0012               	return		;funcret
 10781  001FD8                     __end_ofi2_Conversion:
 10782                           	opt callstack 0
 10783                           
 10784 ;; *************** function i2___xxtofl *****************
 10785 ;; Defined at:
 10786 ;;		line 10 in file "C:\Program Files (x86)\Microchip\xc8\v2.10\pic\sources\c99\common\xxtofl.c"
 10787 ;; Parameters:    Size  Location     Type
 10788 ;;  sign            1    wreg     unsigned char 
 10789 ;;  val             4    6[COMRAM] long 
 10790 ;; Auto vars:     Size  Location     Type
 10791 ;;  sign            1   14[COMRAM] unsigned char 
 10792 ;;  __xxtofl        4   16[COMRAM] unsigned long 
 10793 ;;  __xxtofl        1   15[COMRAM] unsigned char 
 10794 ;; Return value:  Size  Location     Type
 10795 ;;                  4    6[COMRAM] unsigned char 
 10796 ;; Registers used:
 10797 ;;		wreg, status,2, status,0
 10798 ;; Tracked objects:
 10799 ;;		On entry : 0/0
 10800 ;;		On exit  : 0/0
 10801 ;;		Unchanged: 0/0
 10802 ;; Data sizes:     COMRAM   BANK0   BANK1   BANK2   BANK3   BANK4   BANK5   BANK6   BANK7
 10803 ;;      Params:         4       0       0       0       0       0       0       0       0
 10804 ;;      Locals:         6       0       0       0       0       0       0       0       0
 10805 ;;      Temps:          4       0       0       0       0       0       0       0       0
 10806 ;;      Totals:        14       0       0       0       0       0       0       0       0
 10807 ;;Total ram usage:       14 bytes
 10808 ;; Hardware stack levels used:    1
 10809 ;; This function calls:
 10810 ;;		Nothing
 10811 ;; This function is called by:
 10812 ;;		i2_Conversion
 10813 ;; This function uses a non-reentrant model
 10814 ;;
 10815                           
 10816                           	psect	text63
 10817  001420                     __ptext63:
 10818                           	opt callstack 0
 10819  001420                     i2___xxtofl:
 10820                           	opt callstack 21
 10821                           
 10822                           ;incstack = 0
 10823                           ;i2___xxtofl@sign stored from wreg
 10824  001420  6E0F               	movwf	i2___xxtofl@sign^0,c
 10825  001422  500F               	movf	i2___xxtofl@sign^0,w,c
 10826  001424  B4D8               	btfsc	status,2,c
 10827  001426  EF17  F00A         	goto	i2u449_41
 10828  00142A  EF19  F00A         	goto	i2u449_40
 10829  00142E                     i2u449_41:
 10830  00142E  EF3B  F00A         	goto	i2l1440
 10831  001432                     i2u449_40:
 10832  001432  BE0A               	btfsc	(i2___xxtofl@val+3)^0,7,c
 10833  001434  EF20  F00A         	goto	i2u450_40
 10834  001438  EF1E  F00A         	goto	i2u450_41
 10835  00143C                     i2u450_41:
 10836  00143C  EF3B  F00A         	goto	i2l1440
 10837  001440                     i2u450_40:
 10838  001440  C007  F00B         	movff	i2___xxtofl@val,??i2___xxtofl
 10839  001444  C008  F00C         	movff	i2___xxtofl@val+1,??i2___xxtofl+1
 10840  001448  C009  F00D         	movff	i2___xxtofl@val+2,??i2___xxtofl+2
 10841  00144C  C00A  F00E         	movff	i2___xxtofl@val+3,??i2___xxtofl+3
 10842  001450  1E0B               	comf	??i2___xxtofl^0,f,c
 10843  001452  1E0C               	comf	(??i2___xxtofl+1)^0,f,c
 10844  001454  1E0D               	comf	(??i2___xxtofl+2)^0,f,c
 10845  001456  1E0E               	comf	(??i2___xxtofl+3)^0,f,c
 10846  001458  2A0B               	incf	??i2___xxtofl^0,f,c
 10847  00145A  0E00               	movlw	0
 10848  00145C  220C               	addwfc	(??i2___xxtofl+1)^0,f,c
 10849  00145E  220D               	addwfc	(??i2___xxtofl+2)^0,f,c
 10850  001460  220E               	addwfc	(??i2___xxtofl+3)^0,f,c
 10851  001462  C00B  F011         	movff	??i2___xxtofl,i2___xxtofl@arg
 10852  001466  C00C  F012         	movff	??i2___xxtofl+1,i2___xxtofl@arg+1
 10853  00146A  C00D  F013         	movff	??i2___xxtofl+2,i2___xxtofl@arg+2
 10854  00146E  C00E  F014         	movff	??i2___xxtofl+3,i2___xxtofl@arg+3
 10855  001472  EF43  F00A         	goto	i2l4373
 10856  001476                     i2l1440:
 10857  001476  C007  F011         	movff	i2___xxtofl@val,i2___xxtofl@arg
 10858  00147A  C008  F012         	movff	i2___xxtofl@val+1,i2___xxtofl@arg+1
 10859  00147E  C009  F013         	movff	i2___xxtofl@val+2,i2___xxtofl@arg+2
 10860  001482  C00A  F014         	movff	i2___xxtofl@val+3,i2___xxtofl@arg+3
 10861  001486                     i2l4373:
 10862  001486  5007               	movf	i2___xxtofl@val^0,w,c
 10863  001488  1008               	iorwf	(i2___xxtofl@val+1)^0,w,c
 10864  00148A  1009               	iorwf	(i2___xxtofl@val+2)^0,w,c
 10865  00148C  100A               	iorwf	(i2___xxtofl@val+3)^0,w,c
 10866  00148E  A4D8               	btfss	status,2,c
 10867  001490  EF4C  F00A         	goto	i2u451_41
 10868  001494  EF4E  F00A         	goto	i2u451_40
 10869  001498                     i2u451_41:
 10870  001498  EF58  F00A         	goto	i2l4379
 10871  00149C                     i2u451_40:
 10872  00149C  0E00               	movlw	0
 10873  00149E  6E07               	movwf	?i2___xxtofl^0,c
 10874  0014A0  0E00               	movlw	0
 10875  0014A2  6E08               	movwf	(?i2___xxtofl+1)^0,c
 10876  0014A4  0E00               	movlw	0
 10877  0014A6  6E09               	movwf	(?i2___xxtofl+2)^0,c
 10878  0014A8  0E00               	movlw	0
 10879  0014AA  6E0A               	movwf	(?i2___xxtofl+3)^0,c
 10880  0014AC  EFE9  F00A         	goto	i2l1443
 10881  0014B0                     i2l4379:
 10882  0014B0  0E96               	movlw	150
 10883  0014B2  6E10               	movwf	i2___xxtofl@exp^0,c
 10884  0014B4  EF62  F00A         	goto	i2l4383
 10885  0014B8                     i2l4381:
 10886  0014B8  2A10               	incf	i2___xxtofl@exp^0,f,c
 10887  0014BA  90D8               	bcf	status,0,c
 10888  0014BC  3214               	rrcf	(i2___xxtofl@arg+3)^0,f,c
 10889  0014BE  3213               	rrcf	(i2___xxtofl@arg+2)^0,f,c
 10890  0014C0  3212               	rrcf	(i2___xxtofl@arg+1)^0,f,c
 10891  0014C2  3211               	rrcf	i2___xxtofl@arg^0,f,c
 10892  0014C4                     i2l4383:
 10893  0014C4  0E00               	movlw	0
 10894  0014C6  1411               	andwf	i2___xxtofl@arg^0,w,c
 10895  0014C8  6E0B               	movwf	??i2___xxtofl^0,c
 10896  0014CA  0E00               	movlw	0
 10897  0014CC  1412               	andwf	(i2___xxtofl@arg+1)^0,w,c
 10898  0014CE  6E0C               	movwf	(??i2___xxtofl+1)^0,c
 10899  0014D0  0E00               	movlw	0
 10900  0014D2  1413               	andwf	(i2___xxtofl@arg+2)^0,w,c
 10901  0014D4  6E0D               	movwf	(??i2___xxtofl+2)^0,c
 10902  0014D6  0EFE               	movlw	254
 10903  0014D8  1414               	andwf	(i2___xxtofl@arg+3)^0,w,c
 10904  0014DA  6E0E               	movwf	(??i2___xxtofl+3)^0,c
 10905  0014DC  500B               	movf	??i2___xxtofl^0,w,c
 10906  0014DE  100C               	iorwf	(??i2___xxtofl+1)^0,w,c
 10907  0014E0  100D               	iorwf	(??i2___xxtofl+2)^0,w,c
 10908  0014E2  100E               	iorwf	(??i2___xxtofl+3)^0,w,c
 10909  0014E4  A4D8               	btfss	status,2,c
 10910  0014E6  EF77  F00A         	goto	i2u452_41
 10911  0014EA  EF79  F00A         	goto	i2u452_40
 10912  0014EE                     i2u452_41:
 10913  0014EE  EF5C  F00A         	goto	i2l4381
 10914  0014F2                     i2u452_40:
 10915  0014F2  EF87  F00A         	goto	i2l1447
 10916  0014F6                     i2l4385:
 10917  0014F6  2A10               	incf	i2___xxtofl@exp^0,f,c
 10918  0014F8  0E01               	movlw	1
 10919  0014FA  2611               	addwf	i2___xxtofl@arg^0,f,c
 10920  0014FC  0E00               	movlw	0
 10921  0014FE  2212               	addwfc	(i2___xxtofl@arg+1)^0,f,c
 10922  001500  2213               	addwfc	(i2___xxtofl@arg+2)^0,f,c
 10923  001502  2214               	addwfc	(i2___xxtofl@arg+3)^0,f,c
 10924  001504  90D8               	bcf	status,0,c
 10925  001506  3214               	rrcf	(i2___xxtofl@arg+3)^0,f,c
 10926  001508  3213               	rrcf	(i2___xxtofl@arg+2)^0,f,c
 10927  00150A  3212               	rrcf	(i2___xxtofl@arg+1)^0,f,c
 10928  00150C  3211               	rrcf	i2___xxtofl@arg^0,f,c
 10929  00150E                     i2l1447:
 10930  00150E  0E00               	movlw	0
 10931  001510  1411               	andwf	i2___xxtofl@arg^0,w,c
 10932  001512  6E0B               	movwf	??i2___xxtofl^0,c
 10933  001514  0E00               	movlw	0
 10934  001516  1412               	andwf	(i2___xxtofl@arg+1)^0,w,c
 10935  001518  6E0C               	movwf	(??i2___xxtofl+1)^0,c
 10936  00151A  0E00               	movlw	0
 10937  00151C  1413               	andwf	(i2___xxtofl@arg+2)^0,w,c
 10938  00151E  6E0D               	movwf	(??i2___xxtofl+2)^0,c
 10939  001520  0EFF               	movlw	255
 10940  001522  1414               	andwf	(i2___xxtofl@arg+3)^0,w,c
 10941  001524  6E0E               	movwf	(??i2___xxtofl+3)^0,c
 10942  001526  500B               	movf	??i2___xxtofl^0,w,c
 10943  001528  100C               	iorwf	(??i2___xxtofl+1)^0,w,c
 10944  00152A  100D               	iorwf	(??i2___xxtofl+2)^0,w,c
 10945  00152C  100E               	iorwf	(??i2___xxtofl+3)^0,w,c
 10946  00152E  A4D8               	btfss	status,2,c
 10947  001530  EF9C  F00A         	goto	i2u453_41
 10948  001534  EF9E  F00A         	goto	i2u453_40
 10949  001538                     i2u453_41:
 10950  001538  EF7B  F00A         	goto	i2l4385
 10951  00153C                     i2u453_40:
 10952  00153C  EFA6  F00A         	goto	i2l4393
 10953  001540                     i2l4391:
 10954  001540  0610               	decf	i2___xxtofl@exp^0,f,c
 10955  001542  90D8               	bcf	status,0,c
 10956  001544  3611               	rlcf	i2___xxtofl@arg^0,f,c
 10957  001546  3612               	rlcf	(i2___xxtofl@arg+1)^0,f,c
 10958  001548  3613               	rlcf	(i2___xxtofl@arg+2)^0,f,c
 10959  00154A  3614               	rlcf	(i2___xxtofl@arg+3)^0,f,c
 10960  00154C                     i2l4393:
 10961  00154C  BE13               	btfsc	(i2___xxtofl@arg+2)^0,7,c
 10962  00154E  EFAB  F00A         	goto	i2u454_41
 10963  001552  EFAD  F00A         	goto	i2u454_40
 10964  001556                     i2u454_41:
 10965  001556  EFB5  F00A         	goto	i2l1454
 10966  00155A                     i2u454_40:
 10967  00155A  0E02               	movlw	2
 10968  00155C  6010               	cpfslt	i2___xxtofl@exp^0,c
 10969  00155E  EFB3  F00A         	goto	i2u455_41
 10970  001562  EFB5  F00A         	goto	i2u455_40
 10971  001566                     i2u455_41:
 10972  001566  EFA0  F00A         	goto	i2l4391
 10973  00156A                     i2u455_40:
 10974  00156A                     i2l1454:
 10975  00156A  B010               	btfsc	i2___xxtofl@exp^0,0,c
 10976  00156C  EFBA  F00A         	goto	i2u456_41
 10977  001570  EFBC  F00A         	goto	i2u456_40
 10978  001574                     i2u456_41:
 10979  001574  EFBD  F00A         	goto	i2l4399
 10980  001578                     i2u456_40:
 10981  001578  9E13               	bcf	(i2___xxtofl@arg+2)^0,7,c
 10982  00157A                     i2l4399:
 10983  00157A  90D8               	bcf	status,0,c
 10984  00157C  3210               	rrcf	i2___xxtofl@exp^0,f,c
 10985  00157E  C010  F00B         	movff	i2___xxtofl@exp,??i2___xxtofl
 10986  001582  6A0C               	clrf	(??i2___xxtofl+1)^0,c
 10987  001584  6A0D               	clrf	(??i2___xxtofl+2)^0,c
 10988  001586  6A0E               	clrf	(??i2___xxtofl+3)^0,c
 10989  001588  C00B  F00E         	movff	??i2___xxtofl,??i2___xxtofl+3
 10990  00158C  6A0D               	clrf	(??i2___xxtofl+2)^0,c
 10991  00158E  6A0C               	clrf	(??i2___xxtofl+1)^0,c
 10992  001590  6A0B               	clrf	??i2___xxtofl^0,c
 10993  001592  500B               	movf	??i2___xxtofl^0,w,c
 10994  001594  1211               	iorwf	i2___xxtofl@arg^0,f,c
 10995  001596  500C               	movf	(??i2___xxtofl+1)^0,w,c
 10996  001598  1212               	iorwf	(i2___xxtofl@arg+1)^0,f,c
 10997  00159A  500D               	movf	(??i2___xxtofl+2)^0,w,c
 10998  00159C  1213               	iorwf	(i2___xxtofl@arg+2)^0,f,c
 10999  00159E  500E               	movf	(??i2___xxtofl+3)^0,w,c
 11000  0015A0  1214               	iorwf	(i2___xxtofl@arg+3)^0,f,c
 11001  0015A2  500F               	movf	i2___xxtofl@sign^0,w,c
 11002  0015A4  B4D8               	btfsc	status,2,c
 11003  0015A6  EFD7  F00A         	goto	i2u457_41
 11004  0015AA  EFD9  F00A         	goto	i2u457_40
 11005  0015AE                     i2u457_41:
 11006  0015AE  EFE1  F00A         	goto	i2l4409
 11007  0015B2                     i2u457_40:
 11008  0015B2  BE0A               	btfsc	(i2___xxtofl@val+3)^0,7,c
 11009  0015B4  EFE0  F00A         	goto	i2u458_40
 11010  0015B8  EFDE  F00A         	goto	i2u458_41
 11011  0015BC                     i2u458_41:
 11012  0015BC  EFE1  F00A         	goto	i2l4409
 11013  0015C0                     i2u458_40:
 11014  0015C0  8E14               	bsf	(i2___xxtofl@arg+3)^0,7,c
 11015  0015C2                     i2l4409:
 11016  0015C2  C011  F007         	movff	i2___xxtofl@arg,?i2___xxtofl
 11017  0015C6  C012  F008         	movff	i2___xxtofl@arg+1,?i2___xxtofl+1
 11018  0015CA  C013  F009         	movff	i2___xxtofl@arg+2,?i2___xxtofl+2
 11019  0015CE  C014  F00A         	movff	i2___xxtofl@arg+3,?i2___xxtofl+3
 11020  0015D2                     i2l1443:
 11021  0015D2  0012               	return		;funcret
 11022  0015D4                     __end_ofi2___xxtofl:
 11023                           	opt callstack 0
 11024                           
 11025 ;; *************** function i2___wmul *****************
 11026 ;; Defined at:
 11027 ;;		line 15 in file "C:\Program Files (x86)\Microchip\xc8\v2.10\pic\sources\c99\common\Umul16.c"
 11028 ;; Parameters:    Size  Location     Type
 11029 ;;  multiplier      2    0[COMRAM] unsigned int 
 11030 ;;  multiplicand    2    2[COMRAM] unsigned int 
 11031 ;; Auto vars:     Size  Location     Type
 11032 ;;  __wmul          2    4[COMRAM] unsigned int 
 11033 ;; Return value:  Size  Location     Type
 11034 ;;                  2    0[COMRAM] unsigned int 
 11035 ;; Registers used:
 11036 ;;		wreg, status,2, status,0, prodl, prodh
 11037 ;; Tracked objects:
 11038 ;;		On entry : 0/0
 11039 ;;		On exit  : 0/0
 11040 ;;		Unchanged: 0/0
 11041 ;; Data sizes:     COMRAM   BANK0   BANK1   BANK2   BANK3   BANK4   BANK5   BANK6   BANK7
 11042 ;;      Params:         4       0       0       0       0       0       0       0       0
 11043 ;;      Locals:         2       0       0       0       0       0       0       0       0
 11044 ;;      Temps:          0       0       0       0       0       0       0       0       0
 11045 ;;      Totals:         6       0       0       0       0       0       0       0       0
 11046 ;;Total ram usage:        6 bytes
 11047 ;; Hardware stack levels used:    1
 11048 ;; This function calls:
 11049 ;;		Nothing
 11050 ;; This function is called by:
 11051 ;;		i2_Conversion
 11052 ;; This function uses a non-reentrant model
 11053 ;;
 11054                           
 11055                           	psect	text64
 11056  003356                     __ptext64:
 11057                           	opt callstack 0
 11058  003356                     i2___wmul:
 11059                           	opt callstack 21
 11060  003356  5001               	movf	i2___wmul@multiplier^0,w,c
 11061  003358  0203               	mulwf	i2___wmul@multiplicand^0,c
 11062  00335A  CFF3 F005          	movff	prodl,i2___wmul@product
 11063  00335E  CFF4 F006          	movff	prodh,i2___wmul@product+1
 11064  003362  5001               	movf	i2___wmul@multiplier^0,w,c
 11065  003364  0204               	mulwf	(i2___wmul@multiplicand+1)^0,c
 11066  003366  50F3               	movf	243,w,c
 11067  003368  2606               	addwf	(i2___wmul@product+1)^0,f,c
 11068  00336A  5002               	movf	(i2___wmul@multiplier+1)^0,w,c
 11069  00336C  0203               	mulwf	i2___wmul@multiplicand^0,c
 11070  00336E  50F3               	movf	243,w,c
 11071  003370  2606               	addwf	(i2___wmul@product+1)^0,f,c
 11072  003372  C005  F001         	movff	i2___wmul@product,?i2___wmul
 11073  003376  C006  F002         	movff	i2___wmul@product+1,?i2___wmul+1
 11074  00337A  0012               	return		;funcret
 11075  00337C                     __end_ofi2___wmul:
 11076                           	opt callstack 0
 11077                           
 11078 ;; *************** function i2___flsub *****************
 11079 ;; Defined at:
 11080 ;;		line 245 in file "C:\Program Files (x86)\Microchip\xc8\v2.10\pic\sources\c99\common\sprcadd.c"
 11081 ;; Parameters:    Size  Location     Type
 11082 ;;  b               4   20[COMRAM] unsigned int 
 11083 ;;  a               4   24[COMRAM] unsigned int 
 11084 ;; Auto vars:     Size  Location     Type
 11085 ;;		None
 11086 ;; Return value:  Size  Location     Type
 11087 ;;                  4   20[COMRAM] unsigned int 
 11088 ;; Registers used:
 11089 ;;		wreg, status,2, status,0, cstack
 11090 ;; Tracked objects:
 11091 ;;		On entry : 0/0
 11092 ;;		On exit  : 0/0
 11093 ;;		Unchanged: 0/0
 11094 ;; Data sizes:     COMRAM   BANK0   BANK1   BANK2   BANK3   BANK4   BANK5   BANK6   BANK7
 11095 ;;      Params:         8       0       0       0       0       0       0       0       0
 11096 ;;      Locals:         0       0       0       0       0       0       0       0       0
 11097 ;;      Temps:          0       0       0       0       0       0       0       0       0
 11098 ;;      Totals:         8       0       0       0       0       0       0       0       0
 11099 ;;Total ram usage:        8 bytes
 11100 ;; Hardware stack levels used:    1
 11101 ;; Hardware stack levels required when called:    1
 11102 ;; This function calls:
 11103 ;;		i2___fladd
 11104 ;; This function is called by:
 11105 ;;		i2_Conversion
 11106 ;; This function uses a non-reentrant model
 11107 ;;
 11108                           
 11109                           	psect	text65
 11110  002B32                     __ptext65:
 11111                           	opt callstack 0
 11112  002B32                     i2___flsub:
 11113                           	opt callstack 20
 11114  002B32  0E00               	movlw	0
 11115  002B34  1A19               	xorwf	i2___flsub@a^0,f,c
 11116  002B36  0E00               	movlw	0
 11117  002B38  1A1A               	xorwf	(i2___flsub@a+1)^0,f,c
 11118  002B3A  0E00               	movlw	0
 11119  002B3C  1A1B               	xorwf	(i2___flsub@a+2)^0,f,c
 11120  002B3E  0E80               	movlw	128
 11121  002B40  1A1C               	xorwf	(i2___flsub@a+3)^0,f,c
 11122  002B42  C015  F001         	movff	i2___flsub@b,i2___fladd@b
 11123  002B46  C016  F002         	movff	i2___flsub@b+1,i2___fladd@b+1
 11124  002B4A  C017  F003         	movff	i2___flsub@b+2,i2___fladd@b+2
 11125  002B4E  C018  F004         	movff	i2___flsub@b+3,i2___fladd@b+3
 11126  002B52  C019  F005         	movff	i2___flsub@a,i2___fladd@a
 11127  002B56  C01A  F006         	movff	i2___flsub@a+1,i2___fladd@a+1
 11128  002B5A  C01B  F007         	movff	i2___flsub@a+2,i2___fladd@a+2
 11129  002B5E  C01C  F008         	movff	i2___flsub@a+3,i2___fladd@a+3
 11130  002B62  ECDE  F004         	call	i2___fladd	;wreg free
 11131  002B66  C001  F015         	movff	?i2___fladd,?i2___flsub
 11132  002B6A  C002  F016         	movff	?i2___fladd+1,?i2___flsub+1
 11133  002B6E  C003  F017         	movff	?i2___fladd+2,?i2___flsub+2
 11134  002B72  C004  F018         	movff	?i2___fladd+3,?i2___flsub+3
 11135  002B76  0012               	return		;funcret
 11136  002B78                     __end_ofi2___flsub:
 11137                           	opt callstack 0
 11138                           
 11139 ;; *************** function i2___fladd *****************
 11140 ;; Defined at:
 11141 ;;		line 10 in file "C:\Program Files (x86)\Microchip\xc8\v2.10\pic\sources\c99\common\sprcadd.c"
 11142 ;; Parameters:    Size  Location     Type
 11143 ;;  b               4    0[COMRAM] unsigned int 
 11144 ;;  a               4    4[COMRAM] unsigned int 
 11145 ;; Auto vars:     Size  Location     Type
 11146 ;;  __fladd         1   15[COMRAM] unsigned char 
 11147 ;;  __fladd         1   14[COMRAM] unsigned char 
 11148 ;;  __fladd         1   13[COMRAM] unsigned char 
 11149 ;;  __fladd         1   12[COMRAM] unsigned char 
 11150 ;; Return value:  Size  Location     Type
 11151 ;;                  4    0[COMRAM] unsigned char 
 11152 ;; Registers used:
 11153 ;;		wreg, status,2, status,0
 11154 ;; Tracked objects:
 11155 ;;		On entry : 0/0
 11156 ;;		On exit  : 0/0
 11157 ;;		Unchanged: 0/0
 11158 ;; Data sizes:     COMRAM   BANK0   BANK1   BANK2   BANK3   BANK4   BANK5   BANK6   BANK7
 11159 ;;      Params:         8       0       0       0       0       0       0       0       0
 11160 ;;      Locals:         4       0       0       0       0       0       0       0       0
 11161 ;;      Temps:          4       0       0       0       0       0       0       0       0
 11162 ;;      Totals:        16       0       0       0       0       0       0       0       0
 11163 ;;Total ram usage:       16 bytes
 11164 ;; Hardware stack levels used:    1
 11165 ;; This function calls:
 11166 ;;		Nothing
 11167 ;; This function is called by:
 11168 ;;		i2___flsub
 11169 ;; This function uses a non-reentrant model
 11170 ;;
 11171                           
 11172                           	psect	text66
 11173  0009BC                     __ptext66:
 11174                           	opt callstack 0
 11175  0009BC                     i2___fladd:
 11176                           	opt callstack 20
 11177  0009BC  5004               	movf	(i2___fladd@b+3)^0,w,c
 11178  0009BE  0B80               	andlw	128
 11179  0009C0  6E0D               	movwf	i2___fladd@signs^0,c
 11180  0009C2  5004               	movf	(i2___fladd@b+3)^0,w,c
 11181  0009C4  2404               	addwf	(i2___fladd@b+3)^0,w,c
 11182  0009C6  6E0F               	movwf	i2___fladd@bexp^0,c
 11183  0009C8  AE03               	btfss	(i2___fladd@b+2)^0,7,c
 11184  0009CA  EFE9  F004         	goto	i2u390_41
 11185  0009CE  EFEB  F004         	goto	i2u390_40
 11186  0009D2                     i2u390_41:
 11187  0009D2  EFEC  F004         	goto	i2l3995
 11188  0009D6                     i2u390_40:
 11189  0009D6  800F               	bsf	i2___fladd@bexp^0,0,c
 11190  0009D8                     i2l3995:
 11191  0009D8  500F               	movf	i2___fladd@bexp^0,w,c
 11192  0009DA  B4D8               	btfsc	status,2,c
 11193  0009DC  EFF2  F004         	goto	i2u391_41
 11194  0009E0  EFF4  F004         	goto	i2u391_40
 11195  0009E4                     i2u391_41:
 11196  0009E4  EF09  F005         	goto	i2l4005
 11197  0009E8                     i2u391_40:
 11198  0009E8  280F               	incf	i2___fladd@bexp^0,w,c
 11199  0009EA  A4D8               	btfss	status,2,c
 11200  0009EC  EFFA  F004         	goto	i2u392_41
 11201  0009F0  EFFC  F004         	goto	i2u392_40
 11202  0009F4                     i2u392_41:
 11203  0009F4  EF04  F005         	goto	i2l4001
 11204  0009F8                     i2u392_40:
 11205  0009F8  0E00               	movlw	0
 11206  0009FA  6E01               	movwf	i2___fladd@b^0,c
 11207  0009FC  0E00               	movlw	0
 11208  0009FE  6E02               	movwf	(i2___fladd@b+1)^0,c
 11209  000A00  0E00               	movlw	0
 11210  000A02  6E03               	movwf	(i2___fladd@b+2)^0,c
 11211  000A04  0E00               	movlw	0
 11212  000A06  6E04               	movwf	(i2___fladd@b+3)^0,c
 11213  000A08                     i2l4001:
 11214  000A08  8E03               	bsf	(i2___fladd@b+2)^0,7,c
 11215  000A0A  0E00               	movlw	0
 11216  000A0C  6E04               	movwf	(i2___fladd@b+3)^0,c
 11217  000A0E  EF11  F005         	goto	i2l4007
 11218  000A12                     i2l4005:
 11219  000A12  0E00               	movlw	0
 11220  000A14  6E01               	movwf	i2___fladd@b^0,c
 11221  000A16  0E00               	movlw	0
 11222  000A18  6E02               	movwf	(i2___fladd@b+1)^0,c
 11223  000A1A  0E00               	movlw	0
 11224  000A1C  6E03               	movwf	(i2___fladd@b+2)^0,c
 11225  000A1E  0E00               	movlw	0
 11226  000A20  6E04               	movwf	(i2___fladd@b+3)^0,c
 11227  000A22                     i2l4007:
 11228  000A22  5008               	movf	(i2___fladd@a+3)^0,w,c
 11229  000A24  0B80               	andlw	128
 11230  000A26  6E0E               	movwf	i2___fladd@aexp^0,c
 11231  000A28  500D               	movf	i2___fladd@signs^0,w,c
 11232  000A2A  180E               	xorwf	i2___fladd@aexp^0,w,c
 11233  000A2C  B4D8               	btfsc	status,2,c
 11234  000A2E  EF1B  F005         	goto	i2u393_41
 11235  000A32  EF1D  F005         	goto	i2u393_40
 11236  000A36                     i2u393_41:
 11237  000A36  EF1E  F005         	goto	i2l4013
 11238  000A3A                     i2u393_40:
 11239  000A3A  8C0D               	bsf	i2___fladd@signs^0,6,c
 11240  000A3C                     i2l4013:
 11241  000A3C  5008               	movf	(i2___fladd@a+3)^0,w,c
 11242  000A3E  2408               	addwf	(i2___fladd@a+3)^0,w,c
 11243  000A40  6E0E               	movwf	i2___fladd@aexp^0,c
 11244  000A42  AE07               	btfss	(i2___fladd@a+2)^0,7,c
 11245  000A44  EF26  F005         	goto	i2u394_41
 11246  000A48  EF28  F005         	goto	i2u394_40
 11247  000A4C                     i2u394_41:
 11248  000A4C  EF29  F005         	goto	i2l4019
 11249  000A50                     i2u394_40:
 11250  000A50  800E               	bsf	i2___fladd@aexp^0,0,c
 11251  000A52                     i2l4019:
 11252  000A52  500E               	movf	i2___fladd@aexp^0,w,c
 11253  000A54  B4D8               	btfsc	status,2,c
 11254  000A56  EF2F  F005         	goto	i2u395_41
 11255  000A5A  EF31  F005         	goto	i2u395_40
 11256  000A5E                     i2u395_41:
 11257  000A5E  EF46  F005         	goto	i2l4029
 11258  000A62                     i2u395_40:
 11259  000A62  280E               	incf	i2___fladd@aexp^0,w,c
 11260  000A64  A4D8               	btfss	status,2,c
 11261  000A66  EF37  F005         	goto	i2u396_41
 11262  000A6A  EF39  F005         	goto	i2u396_40
 11263  000A6E                     i2u396_41:
 11264  000A6E  EF41  F005         	goto	i2l4025
 11265  000A72                     i2u396_40:
 11266  000A72  0E00               	movlw	0
 11267  000A74  6E05               	movwf	i2___fladd@a^0,c
 11268  000A76  0E00               	movlw	0
 11269  000A78  6E06               	movwf	(i2___fladd@a+1)^0,c
 11270  000A7A  0E00               	movlw	0
 11271  000A7C  6E07               	movwf	(i2___fladd@a+2)^0,c
 11272  000A7E  0E00               	movlw	0
 11273  000A80  6E08               	movwf	(i2___fladd@a+3)^0,c
 11274  000A82                     i2l4025:
 11275  000A82  8E07               	bsf	(i2___fladd@a+2)^0,7,c
 11276  000A84  0E00               	movlw	0
 11277  000A86  6E08               	movwf	(i2___fladd@a+3)^0,c
 11278  000A88  EF4E  F005         	goto	i2l4031
 11279  000A8C                     i2l4029:
 11280  000A8C  0E00               	movlw	0
 11281  000A8E  6E05               	movwf	i2___fladd@a^0,c
 11282  000A90  0E00               	movlw	0
 11283  000A92  6E06               	movwf	(i2___fladd@a+1)^0,c
 11284  000A94  0E00               	movlw	0
 11285  000A96  6E07               	movwf	(i2___fladd@a+2)^0,c
 11286  000A98  0E00               	movlw	0
 11287  000A9A  6E08               	movwf	(i2___fladd@a+3)^0,c
 11288  000A9C                     i2l4031:
 11289  000A9C  500F               	movf	i2___fladd@bexp^0,w,c
 11290  000A9E  5C0E               	subwf	i2___fladd@aexp^0,w,c
 11291  000AA0  B0D8               	btfsc	status,0,c
 11292  000AA2  EF55  F005         	goto	i2u397_41
 11293  000AA6  EF57  F005         	goto	i2u397_40
 11294  000AAA                     i2u397_41:
 11295  000AAA  EF7E  F005         	goto	i2l4067
 11296  000AAE                     i2u397_40:
 11297  000AAE  AC0D               	btfss	i2___fladd@signs^0,6,c
 11298  000AB0  EF5C  F005         	goto	i2u398_41
 11299  000AB4  EF5E  F005         	goto	i2u398_40
 11300  000AB8                     i2u398_41:
 11301  000AB8  EF60  F005         	goto	i2l4037
 11302  000ABC                     i2u398_40:
 11303  000ABC  0E80               	movlw	128
 11304  000ABE  1A0D               	xorwf	i2___fladd@signs^0,f,c
 11305  000AC0                     i2l4037:
 11306  000AC0  C00F  F010         	movff	i2___fladd@bexp,i2___fladd@grs
 11307  000AC4  C00E  F00F         	movff	i2___fladd@aexp,i2___fladd@bexp
 11308  000AC8  C010  F00E         	movff	i2___fladd@grs,i2___fladd@aexp
 11309  000ACC  C001  F010         	movff	i2___fladd@b,i2___fladd@grs
 11310  000AD0  C005  F001         	movff	i2___fladd@a,i2___fladd@b
 11311  000AD4  C010  F005         	movff	i2___fladd@grs,i2___fladd@a
 11312  000AD8  C002  F010         	movff	i2___fladd@b+1,i2___fladd@grs
 11313  000ADC  C006  F002         	movff	i2___fladd@a+1,i2___fladd@b+1
 11314  000AE0  C010  F006         	movff	i2___fladd@grs,i2___fladd@a+1
 11315  000AE4  C003  F010         	movff	i2___fladd@b+2,i2___fladd@grs
 11316  000AE8  C007  F003         	movff	i2___fladd@a+2,i2___fladd@b+2
 11317  000AEC  C010  F007         	movff	i2___fladd@grs,i2___fladd@a+2
 11318  000AF0  C004  F010         	movff	i2___fladd@b+3,i2___fladd@grs
 11319  000AF4  C008  F004         	movff	i2___fladd@a+3,i2___fladd@b+3
 11320  000AF8  C010  F008         	movff	i2___fladd@grs,i2___fladd@a+3
 11321  000AFC                     i2l4067:
 11322  000AFC  0E00               	movlw	0
 11323  000AFE  6E10               	movwf	i2___fladd@grs^0,c
 11324  000B00  500F               	movf	i2___fladd@bexp^0,w,c
 11325  000B02  C00E  F009         	movff	i2___fladd@aexp,??i2___fladd
 11326  000B06  6A0A               	clrf	(??i2___fladd+1)^0,c
 11327  000B08  5E09               	subwf	??i2___fladd^0,f,c
 11328  000B0A  0E00               	movlw	0
 11329  000B0C  5A0A               	subwfb	(??i2___fladd+1)^0,f,c
 11330  000B0E  BE0A               	btfsc	(??i2___fladd+1)^0,7,c
 11331  000B10  EF93  F005         	goto	i2u399_41
 11332  000B14  500A               	movf	(??i2___fladd+1)^0,w,c
 11333  000B16  E109               	bnz	i2u399_40
 11334  000B18  0E1A               	movlw	26
 11335  000B1A  5C09               	subwf	??i2___fladd^0,w,c
 11336  000B1C  A0D8               	btfss	status,0,c
 11337  000B1E  EF93  F005         	goto	i2u399_41
 11338  000B22  EF95  F005         	goto	i2u399_40
 11339  000B26                     i2u399_41:
 11340  000B26  EFCC  F005         	goto	i2l1314
 11341  000B2A                     i2u399_40:
 11342  000B2A  5001               	movf	i2___fladd@b^0,w,c
 11343  000B2C  1002               	iorwf	(i2___fladd@b+1)^0,w,c
 11344  000B2E  1003               	iorwf	(i2___fladd@b+2)^0,w,c
 11345  000B30  1004               	iorwf	(i2___fladd@b+3)^0,w,c
 11346  000B32  A4D8               	btfss	status,2,c
 11347  000B34  EF9E  F005         	goto	i2u400_41
 11348  000B38  EFA1  F005         	goto	i2u400_40
 11349  000B3C                     i2u400_41:
 11350  000B3C  0E01               	movlw	1
 11351  000B3E  EFA2  F005         	goto	i2u401_40
 11352  000B42                     i2u400_40:
 11353  000B42  0E00               	movlw	0
 11354  000B44                     i2u401_40:
 11355  000B44  6E10               	movwf	i2___fladd@grs^0,c
 11356  000B46  0E00               	movlw	0
 11357  000B48  6E01               	movwf	i2___fladd@b^0,c
 11358  000B4A  0E00               	movlw	0
 11359  000B4C  6E02               	movwf	(i2___fladd@b+1)^0,c
 11360  000B4E  0E00               	movlw	0
 11361  000B50  6E03               	movwf	(i2___fladd@b+2)^0,c
 11362  000B52  0E00               	movlw	0
 11363  000B54  6E04               	movwf	(i2___fladd@b+3)^0,c
 11364  000B56  C00E  F00F         	movff	i2___fladd@aexp,i2___fladd@bexp
 11365  000B5A  EFD5  F005         	goto	i2l1313
 11366  000B5E                     i2l1315:
 11367  000B5E  A010               	btfss	i2___fladd@grs^0,0,c
 11368  000B60  EFB4  F005         	goto	i2u402_41
 11369  000B64  EFB6  F005         	goto	i2u402_40
 11370  000B68                     i2u402_41:
 11371  000B68  EFBC  F005         	goto	i2l4079
 11372  000B6C                     i2u402_40:
 11373  000B6C  90D8               	bcf	status,0,c
 11374  000B6E  3010               	rrcf	i2___fladd@grs^0,w,c
 11375  000B70  0901               	iorlw	1
 11376  000B72  6E10               	movwf	i2___fladd@grs^0,c
 11377  000B74  EFBE  F005         	goto	i2l4081
 11378  000B78                     i2l4079:
 11379  000B78  90D8               	bcf	status,0,c
 11380  000B7A  3210               	rrcf	i2___fladd@grs^0,f,c
 11381  000B7C                     i2l4081:
 11382  000B7C  A001               	btfss	i2___fladd@b^0,0,c
 11383  000B7E  EFC3  F005         	goto	i2u403_41
 11384  000B82  EFC5  F005         	goto	i2u403_40
 11385  000B86                     i2u403_41:
 11386  000B86  EFC6  F005         	goto	i2l4085
 11387  000B8A                     i2u403_40:
 11388  000B8A  8E10               	bsf	i2___fladd@grs^0,7,c
 11389  000B8C                     i2l4085:
 11390  000B8C  3404               	rlcf	(i2___fladd@b+3)^0,w,c
 11391  000B8E  3204               	rrcf	(i2___fladd@b+3)^0,f,c
 11392  000B90  3203               	rrcf	(i2___fladd@b+2)^0,f,c
 11393  000B92  3202               	rrcf	(i2___fladd@b+1)^0,f,c
 11394  000B94  3201               	rrcf	i2___fladd@b^0,f,c
 11395  000B96  2A0F               	incf	i2___fladd@bexp^0,f,c
 11396  000B98                     i2l1314:
 11397  000B98  500E               	movf	i2___fladd@aexp^0,w,c
 11398  000B9A  5C0F               	subwf	i2___fladd@bexp^0,w,c
 11399  000B9C  A0D8               	btfss	status,0,c
 11400  000B9E  EFD3  F005         	goto	i2u404_41
 11401  000BA2  EFD5  F005         	goto	i2u404_40
 11402  000BA6                     i2u404_41:
 11403  000BA6  EFAF  F005         	goto	i2l1315
 11404  000BAA                     i2u404_40:
 11405  000BAA                     i2l1313:
 11406  000BAA  BC0D               	btfsc	i2___fladd@signs^0,6,c
 11407  000BAC  EFDA  F005         	goto	i2u405_41
 11408  000BB0  EFDC  F005         	goto	i2u405_40
 11409  000BB4                     i2u405_41:
 11410  000BB4  EF1C  F006         	goto	i2l4113
 11411  000BB8                     i2u405_40:
 11412  000BB8  500F               	movf	i2___fladd@bexp^0,w,c
 11413  000BBA  A4D8               	btfss	status,2,c
 11414  000BBC  EFE2  F005         	goto	i2u406_41
 11415  000BC0  EFE4  F005         	goto	i2u406_40
 11416  000BC4                     i2u406_41:
 11417  000BC4  EFEE  F005         	goto	i2l4095
 11418  000BC8                     i2u406_40:
 11419  000BC8  0E00               	movlw	0
 11420  000BCA  6E01               	movwf	?i2___fladd^0,c
 11421  000BCC  0E00               	movlw	0
 11422  000BCE  6E02               	movwf	(?i2___fladd+1)^0,c
 11423  000BD0  0E00               	movlw	0
 11424  000BD2  6E03               	movwf	(?i2___fladd+2)^0,c
 11425  000BD4  0E00               	movlw	0
 11426  000BD6  6E04               	movwf	(?i2___fladd+3)^0,c
 11427  000BD8  EF3D  F007         	goto	i2l1322
 11428  000BDC                     i2l4095:
 11429  000BDC  5005               	movf	i2___fladd@a^0,w,c
 11430  000BDE  2601               	addwf	i2___fladd@b^0,f,c
 11431  000BE0  5006               	movf	(i2___fladd@a+1)^0,w,c
 11432  000BE2  2202               	addwfc	(i2___fladd@b+1)^0,f,c
 11433  000BE4  5007               	movf	(i2___fladd@a+2)^0,w,c
 11434  000BE6  2203               	addwfc	(i2___fladd@b+2)^0,f,c
 11435  000BE8  5008               	movf	(i2___fladd@a+3)^0,w,c
 11436  000BEA  2204               	addwfc	(i2___fladd@b+3)^0,f,c
 11437  000BEC  A004               	btfss	(i2___fladd@b+3)^0,0,c
 11438  000BEE  EFFB  F005         	goto	i2u407_41
 11439  000BF2  EFFD  F005         	goto	i2u407_40
 11440  000BF6                     i2u407_41:
 11441  000BF6  EFA9  F006         	goto	i2l4149
 11442  000BFA                     i2u407_40:
 11443  000BFA  A010               	btfss	i2___fladd@grs^0,0,c
 11444  000BFC  EF02  F006         	goto	i2u408_41
 11445  000C00  EF04  F006         	goto	i2u408_40
 11446  000C04                     i2u408_41:
 11447  000C04  EF0A  F006         	goto	i2l4103
 11448  000C08                     i2u408_40:
 11449  000C08  90D8               	bcf	status,0,c
 11450  000C0A  3010               	rrcf	i2___fladd@grs^0,w,c
 11451  000C0C  0901               	iorlw	1
 11452  000C0E  6E10               	movwf	i2___fladd@grs^0,c
 11453  000C10  EF0C  F006         	goto	i2l4105
 11454  000C14                     i2l4103:
 11455  000C14  90D8               	bcf	status,0,c
 11456  000C16  3210               	rrcf	i2___fladd@grs^0,f,c
 11457  000C18                     i2l4105:
 11458  000C18  A001               	btfss	i2___fladd@b^0,0,c
 11459  000C1A  EF11  F006         	goto	i2u409_41
 11460  000C1E  EF13  F006         	goto	i2u409_40
 11461  000C22                     i2u409_41:
 11462  000C22  EF14  F006         	goto	i2l4109
 11463  000C26                     i2u409_40:
 11464  000C26  8E10               	bsf	i2___fladd@grs^0,7,c
 11465  000C28                     i2l4109:
 11466  000C28  3404               	rlcf	(i2___fladd@b+3)^0,w,c
 11467  000C2A  3204               	rrcf	(i2___fladd@b+3)^0,f,c
 11468  000C2C  3203               	rrcf	(i2___fladd@b+2)^0,f,c
 11469  000C2E  3202               	rrcf	(i2___fladd@b+1)^0,f,c
 11470  000C30  3201               	rrcf	i2___fladd@b^0,f,c
 11471  000C32  2A0F               	incf	i2___fladd@bexp^0,f,c
 11472  000C34  EFA9  F006         	goto	i2l4149
 11473  000C38                     i2l4113:
 11474  000C38  5005               	movf	i2___fladd@a^0,w,c
 11475  000C3A  5C01               	subwf	i2___fladd@b^0,w,c
 11476  000C3C  5006               	movf	(i2___fladd@a+1)^0,w,c
 11477  000C3E  5802               	subwfb	(i2___fladd@b+1)^0,w,c
 11478  000C40  5007               	movf	(i2___fladd@a+2)^0,w,c
 11479  000C42  5803               	subwfb	(i2___fladd@b+2)^0,w,c
 11480  000C44  5004               	movf	(i2___fladd@b+3)^0,w,c
 11481  000C46  0A80               	xorlw	128
 11482  000C48  6E09               	movwf	??i2___fladd^0,c
 11483  000C4A  5008               	movf	(i2___fladd@a+3)^0,w,c
 11484  000C4C  0A80               	xorlw	128
 11485  000C4E  5809               	subwfb	??i2___fladd^0,w,c
 11486  000C50  B0D8               	btfsc	status,0,c
 11487  000C52  EF2D  F006         	goto	i2u410_41
 11488  000C56  EF2F  F006         	goto	i2u410_40
 11489  000C5A                     i2u410_41:
 11490  000C5A  EF5A  F006         	goto	i2l4123
 11491  000C5E                     i2u410_40:
 11492  000C5E  5001               	movf	i2___fladd@b^0,w,c
 11493  000C60  5C05               	subwf	i2___fladd@a^0,w,c
 11494  000C62  6E09               	movwf	??i2___fladd^0,c
 11495  000C64  5002               	movf	(i2___fladd@b+1)^0,w,c
 11496  000C66  5806               	subwfb	(i2___fladd@a+1)^0,w,c
 11497  000C68  6E0A               	movwf	(??i2___fladd+1)^0,c
 11498  000C6A  5003               	movf	(i2___fladd@b+2)^0,w,c
 11499  000C6C  5807               	subwfb	(i2___fladd@a+2)^0,w,c
 11500  000C6E  6E0B               	movwf	(??i2___fladd+2)^0,c
 11501  000C70  5004               	movf	(i2___fladd@b+3)^0,w,c
 11502  000C72  5808               	subwfb	(i2___fladd@a+3)^0,w,c
 11503  000C74  6E0C               	movwf	(??i2___fladd+3)^0,c
 11504  000C76  0EFF               	movlw	255
 11505  000C78  2409               	addwf	??i2___fladd^0,w,c
 11506  000C7A  6E01               	movwf	i2___fladd@b^0,c
 11507  000C7C  0EFF               	movlw	255
 11508  000C7E  200A               	addwfc	(??i2___fladd+1)^0,w,c
 11509  000C80  6E02               	movwf	(i2___fladd@b+1)^0,c
 11510  000C82  0EFF               	movlw	255
 11511  000C84  200B               	addwfc	(??i2___fladd+2)^0,w,c
 11512  000C86  6E03               	movwf	(i2___fladd@b+2)^0,c
 11513  000C88  0EFF               	movlw	255
 11514  000C8A  200C               	addwfc	(??i2___fladd+3)^0,w,c
 11515  000C8C  6E04               	movwf	(i2___fladd@b+3)^0,c
 11516  000C8E  0E80               	movlw	128
 11517  000C90  1A0D               	xorwf	i2___fladd@signs^0,f,c
 11518  000C92  6C10               	negf	i2___fladd@grs^0,c
 11519  000C94  5010               	movf	i2___fladd@grs^0,w,c
 11520  000C96  A4D8               	btfss	status,2,c
 11521  000C98  EF50  F006         	goto	i2u411_41
 11522  000C9C  EF52  F006         	goto	i2u411_40
 11523  000CA0                     i2u411_41:
 11524  000CA0  EF62  F006         	goto	i2l1330
 11525  000CA4                     i2u411_40:
 11526  000CA4  0E01               	movlw	1
 11527  000CA6  2601               	addwf	i2___fladd@b^0,f,c
 11528  000CA8  0E00               	movlw	0
 11529  000CAA  2202               	addwfc	(i2___fladd@b+1)^0,f,c
 11530  000CAC  2203               	addwfc	(i2___fladd@b+2)^0,f,c
 11531  000CAE  2204               	addwfc	(i2___fladd@b+3)^0,f,c
 11532  000CB0  EF62  F006         	goto	i2l1330
 11533  000CB4                     i2l4123:
 11534  000CB4  5005               	movf	i2___fladd@a^0,w,c
 11535  000CB6  5E01               	subwf	i2___fladd@b^0,f,c
 11536  000CB8  5006               	movf	(i2___fladd@a+1)^0,w,c
 11537  000CBA  5A02               	subwfb	(i2___fladd@b+1)^0,f,c
 11538  000CBC  5007               	movf	(i2___fladd@a+2)^0,w,c
 11539  000CBE  5A03               	subwfb	(i2___fladd@b+2)^0,f,c
 11540  000CC0  5008               	movf	(i2___fladd@a+3)^0,w,c
 11541  000CC2  5A04               	subwfb	(i2___fladd@b+3)^0,f,c
 11542  000CC4                     i2l1330:
 11543  000CC4  5001               	movf	i2___fladd@b^0,w,c
 11544  000CC6  1002               	iorwf	(i2___fladd@b+1)^0,w,c
 11545  000CC8  1003               	iorwf	(i2___fladd@b+2)^0,w,c
 11546  000CCA  1004               	iorwf	(i2___fladd@b+3)^0,w,c
 11547  000CCC  A4D8               	btfss	status,2,c
 11548  000CCE  EF6B  F006         	goto	i2u412_41
 11549  000CD2  EF6D  F006         	goto	i2u412_40
 11550  000CD6                     i2u412_41:
 11551  000CD6  EFA2  F006         	goto	i2l4147
 11552  000CDA                     i2u412_40:
 11553  000CDA  5010               	movf	i2___fladd@grs^0,w,c
 11554  000CDC  A4D8               	btfss	status,2,c
 11555  000CDE  EF73  F006         	goto	i2u413_41
 11556  000CE2  EF75  F006         	goto	i2u413_40
 11557  000CE6                     i2u413_41:
 11558  000CE6  EFA2  F006         	goto	i2l4147
 11559  000CEA                     i2u413_40:
 11560  000CEA  0E00               	movlw	0
 11561  000CEC  6E01               	movwf	?i2___fladd^0,c
 11562  000CEE  0E00               	movlw	0
 11563  000CF0  6E02               	movwf	(?i2___fladd+1)^0,c
 11564  000CF2  0E00               	movlw	0
 11565  000CF4  6E03               	movwf	(?i2___fladd+2)^0,c
 11566  000CF6  0E00               	movlw	0
 11567  000CF8  6E04               	movwf	(?i2___fladd+3)^0,c
 11568  000CFA  EF3D  F007         	goto	i2l1322
 11569  000CFE                     i2l4131:
 11570  000CFE  90D8               	bcf	status,0,c
 11571  000D00  3601               	rlcf	i2___fladd@b^0,f,c
 11572  000D02  3602               	rlcf	(i2___fladd@b+1)^0,f,c
 11573  000D04  3603               	rlcf	(i2___fladd@b+2)^0,f,c
 11574  000D06  3604               	rlcf	(i2___fladd@b+3)^0,f,c
 11575  000D08  AE10               	btfss	i2___fladd@grs^0,7,c
 11576  000D0A  EF89  F006         	goto	i2u414_41
 11577  000D0E  EF8B  F006         	goto	i2u414_40
 11578  000D12                     i2u414_41:
 11579  000D12  EF8C  F006         	goto	i2l4137
 11580  000D16                     i2u414_40:
 11581  000D16  8001               	bsf	i2___fladd@b^0,0,c
 11582  000D18                     i2l4137:
 11583  000D18  A010               	btfss	i2___fladd@grs^0,0,c
 11584  000D1A  EF91  F006         	goto	i2u415_41
 11585  000D1E  EF93  F006         	goto	i2u415_40
 11586  000D22                     i2u415_41:
 11587  000D22  EF97  F006         	goto	i2l4141
 11588  000D26                     i2u415_40:
 11589  000D26  80D8               	bsf	status,0,c
 11590  000D28  3610               	rlcf	i2___fladd@grs^0,f,c
 11591  000D2A  EF99  F006         	goto	i2l4143
 11592  000D2E                     i2l4141:
 11593  000D2E  90D8               	bcf	status,0,c
 11594  000D30  3610               	rlcf	i2___fladd@grs^0,f,c
 11595  000D32                     i2l4143:
 11596  000D32  500F               	movf	i2___fladd@bexp^0,w,c
 11597  000D34  B4D8               	btfsc	status,2,c
 11598  000D36  EF9F  F006         	goto	i2u416_41
 11599  000D3A  EFA1  F006         	goto	i2u416_40
 11600  000D3E                     i2u416_41:
 11601  000D3E  EFA2  F006         	goto	i2l4147
 11602  000D42                     i2u416_40:
 11603  000D42  060F               	decf	i2___fladd@bexp^0,f,c
 11604  000D44                     i2l4147:
 11605  000D44  AE03               	btfss	(i2___fladd@b+2)^0,7,c
 11606  000D46  EFA7  F006         	goto	i2u417_41
 11607  000D4A  EFA9  F006         	goto	i2u417_40
 11608  000D4E                     i2u417_41:
 11609  000D4E  EF7F  F006         	goto	i2l4131
 11610  000D52                     i2u417_40:
 11611  000D52                     i2l4149:
 11612  000D52  0E00               	movlw	0
 11613  000D54  6E0E               	movwf	i2___fladd@aexp^0,c
 11614  000D56  AE10               	btfss	i2___fladd@grs^0,7,c
 11615  000D58  EFB0  F006         	goto	i2u418_41
 11616  000D5C  EFB2  F006         	goto	i2u418_40
 11617  000D60                     i2u418_41:
 11618  000D60  EFCA  F006         	goto	i2l1339
 11619  000D64                     i2u418_40:
 11620  000D64  C010  F009         	movff	i2___fladd@grs,??i2___fladd
 11621  000D68  0E7F               	movlw	127
 11622  000D6A  1609               	andwf	??i2___fladd^0,f,c
 11623  000D6C  B4D8               	btfsc	status,2,c
 11624  000D6E  EFBB  F006         	goto	i2u419_41
 11625  000D72  EFBD  F006         	goto	i2u419_40
 11626  000D76                     i2u419_41:
 11627  000D76  EFC1  F006         	goto	i2l1340
 11628  000D7A                     i2u419_40:
 11629  000D7A                     i2l4155:
 11630  000D7A  0E01               	movlw	1
 11631  000D7C  6E0E               	movwf	i2___fladd@aexp^0,c
 11632  000D7E  EFCA  F006         	goto	i2l1339
 11633  000D82                     i2l1340:
 11634  000D82  A001               	btfss	i2___fladd@b^0,0,c
 11635  000D84  EFC6  F006         	goto	i2u420_41
 11636  000D88  EFC8  F006         	goto	i2u420_40
 11637  000D8C                     i2u420_41:
 11638  000D8C  EFCA  F006         	goto	i2l1339
 11639  000D90                     i2u420_40:
 11640  000D90  EFBD  F006         	goto	i2l4155
 11641  000D94                     i2l1339:
 11642  000D94  500E               	movf	i2___fladd@aexp^0,w,c
 11643  000D96  B4D8               	btfsc	status,2,c
 11644  000D98  EFD0  F006         	goto	i2u421_41
 11645  000D9C  EFD2  F006         	goto	i2u421_40
 11646  000DA0                     i2u421_41:
 11647  000DA0  EFFD  F006         	goto	i2l4167
 11648  000DA4                     i2u421_40:
 11649  000DA4  0E01               	movlw	1
 11650  000DA6  2601               	addwf	i2___fladd@b^0,f,c
 11651  000DA8  0E00               	movlw	0
 11652  000DAA  2202               	addwfc	(i2___fladd@b+1)^0,f,c
 11653  000DAC  2203               	addwfc	(i2___fladd@b+2)^0,f,c
 11654  000DAE  2204               	addwfc	(i2___fladd@b+3)^0,f,c
 11655  000DB0  A004               	btfss	(i2___fladd@b+3)^0,0,c
 11656  000DB2  EFDD  F006         	goto	i2u422_41
 11657  000DB6  EFDF  F006         	goto	i2u422_40
 11658  000DBA                     i2u422_41:
 11659  000DBA  EFFD  F006         	goto	i2l4167
 11660  000DBE                     i2u422_40:
 11661  000DBE  C001  F009         	movff	i2___fladd@b,??i2___fladd
 11662  000DC2  C002  F00A         	movff	i2___fladd@b+1,??i2___fladd+1
 11663  000DC6  C003  F00B         	movff	i2___fladd@b+2,??i2___fladd+2
 11664  000DCA  C004  F00C         	movff	i2___fladd@b+3,??i2___fladd+3
 11665  000DCE  340C               	rlcf	(??i2___fladd+3)^0,w,c
 11666  000DD0  320C               	rrcf	(??i2___fladd+3)^0,f,c
 11667  000DD2  320B               	rrcf	(??i2___fladd+2)^0,f,c
 11668  000DD4  320A               	rrcf	(??i2___fladd+1)^0,f,c
 11669  000DD6  3209               	rrcf	??i2___fladd^0,f,c
 11670  000DD8  C009  F001         	movff	??i2___fladd,i2___fladd@b
 11671  000DDC  C00A  F002         	movff	??i2___fladd+1,i2___fladd@b+1
 11672  000DE0  C00B  F003         	movff	??i2___fladd+2,i2___fladd@b+2
 11673  000DE4  C00C  F004         	movff	??i2___fladd+3,i2___fladd@b+3
 11674  000DE8  280F               	incf	i2___fladd@bexp^0,w,c
 11675  000DEA  B4D8               	btfsc	status,2,c
 11676  000DEC  EFFA  F006         	goto	i2u423_41
 11677  000DF0  EFFC  F006         	goto	i2u423_40
 11678  000DF4                     i2u423_41:
 11679  000DF4  EFFD  F006         	goto	i2l4167
 11680  000DF8                     i2u423_40:
 11681  000DF8  2A0F               	incf	i2___fladd@bexp^0,f,c
 11682  000DFA                     i2l4167:
 11683  000DFA  280F               	incf	i2___fladd@bexp^0,w,c
 11684  000DFC  B4D8               	btfsc	status,2,c
 11685  000DFE  EF03  F007         	goto	i2u424_41
 11686  000E02  EF05  F007         	goto	i2u424_40
 11687  000E06                     i2u424_41:
 11688  000E06  EF0D  F007         	goto	i2l4171
 11689  000E0A                     i2u424_40:
 11690  000E0A  500F               	movf	i2___fladd@bexp^0,w,c
 11691  000E0C  A4D8               	btfss	status,2,c
 11692  000E0E  EF0B  F007         	goto	i2u425_41
 11693  000E12  EF0D  F007         	goto	i2u425_40
 11694  000E16                     i2u425_41:
 11695  000E16  EF1F  F007         	goto	i2l4175
 11696  000E1A                     i2u425_40:
 11697  000E1A                     i2l4171:
 11698  000E1A  0E00               	movlw	0
 11699  000E1C  6E01               	movwf	i2___fladd@b^0,c
 11700  000E1E  0E00               	movlw	0
 11701  000E20  6E02               	movwf	(i2___fladd@b+1)^0,c
 11702  000E22  0E00               	movlw	0
 11703  000E24  6E03               	movwf	(i2___fladd@b+2)^0,c
 11704  000E26  0E00               	movlw	0
 11705  000E28  6E04               	movwf	(i2___fladd@b+3)^0,c
 11706  000E2A  500F               	movf	i2___fladd@bexp^0,w,c
 11707  000E2C  A4D8               	btfss	status,2,c
 11708  000E2E  EF1B  F007         	goto	i2u426_41
 11709  000E32  EF1D  F007         	goto	i2u426_40
 11710  000E36                     i2u426_41:
 11711  000E36  EF1F  F007         	goto	i2l4175
 11712  000E3A                     i2u426_40:
 11713  000E3A  0E00               	movlw	0
 11714  000E3C  6E0D               	movwf	i2___fladd@signs^0,c
 11715  000E3E                     i2l4175:
 11716  000E3E  A00F               	btfss	i2___fladd@bexp^0,0,c
 11717  000E40  EF24  F007         	goto	i2u427_41
 11718  000E44  EF26  F007         	goto	i2u427_40
 11719  000E48                     i2u427_41:
 11720  000E48  EF29  F007         	goto	i2l4179
 11721  000E4C                     i2u427_40:
 11722  000E4C  8E03               	bsf	(i2___fladd@b+2)^0,7,c
 11723  000E4E  EF2A  F007         	goto	i2l4181
 11724  000E52                     i2l4179:
 11725  000E52  9E03               	bcf	(i2___fladd@b+2)^0,7,c
 11726  000E54                     i2l4181:
 11727  000E54  90D8               	bcf	status,0,c
 11728  000E56  300F               	rrcf	i2___fladd@bexp^0,w,c
 11729  000E58  6E04               	movwf	(i2___fladd@b+3)^0,c
 11730  000E5A  AE0D               	btfss	i2___fladd@signs^0,7,c
 11731  000E5C  EF32  F007         	goto	i2u428_41
 11732  000E60  EF34  F007         	goto	i2u428_40
 11733  000E64                     i2u428_41:
 11734  000E64  EF35  F007         	goto	i2l4187
 11735  000E68                     i2u428_40:
 11736  000E68  8E04               	bsf	(i2___fladd@b+3)^0,7,c
 11737  000E6A                     i2l4187:
 11738  000E6A  C001  F001         	movff	i2___fladd@b,?i2___fladd
 11739  000E6E  C002  F002         	movff	i2___fladd@b+1,?i2___fladd+1
 11740  000E72  C003  F003         	movff	i2___fladd@b+2,?i2___fladd+2
 11741  000E76  C004  F004         	movff	i2___fladd@b+3,?i2___fladd+3
 11742  000E7A                     i2l1322:
 11743  000E7A  0012               	return		;funcret
 11744  000E7C                     __end_ofi2___fladd:
 11745                           	opt callstack 0
 11746                           
 11747 ;; *************** function i2___flge *****************
 11748 ;; Defined at:
 11749 ;;		line 4 in file "C:\Program Files (x86)\Microchip\xc8\v2.10\pic\sources\c99\common\flge.c"
 11750 ;; Parameters:    Size  Location     Type
 11751 ;;  ff1             4   28[COMRAM] unsigned char 
 11752 ;;  ff2             4   32[COMRAM] unsigned char 
 11753 ;; Auto vars:     Size  Location     Type
 11754 ;;		None
 11755 ;; Return value:  Size  Location     Type
 11756 ;;		None               void
 11757 ;; Registers used:
 11758 ;;		wreg, status,2, status,0
 11759 ;; Tracked objects:
 11760 ;;		On entry : 0/0
 11761 ;;		On exit  : 0/0
 11762 ;;		Unchanged: 0/0
 11763 ;; Data sizes:     COMRAM   BANK0   BANK1   BANK2   BANK3   BANK4   BANK5   BANK6   BANK7
 11764 ;;      Params:         8       0       0       0       0       0       0       0       0
 11765 ;;      Locals:         0       0       0       0       0       0       0       0       0
 11766 ;;      Temps:          4       0       0       0       0       0       0       0       0
 11767 ;;      Totals:        12       0       0       0       0       0       0       0       0
 11768 ;;Total ram usage:       12 bytes
 11769 ;; Hardware stack levels used:    1
 11770 ;; This function calls:
 11771 ;;		Nothing
 11772 ;; This function is called by:
 11773 ;;		i2_Conversion
 11774 ;; This function uses a non-reentrant model
 11775 ;;
 11776                           
 11777                           	psect	text67
 11778  0020DE                     __ptext67:
 11779                           	opt callstack 0
 11780  0020DE                     i2___flge:
 11781                           	opt callstack 21
 11782  0020DE  0E00               	movlw	0
 11783  0020E0  141D               	andwf	i2___flge@ff1^0,w,c
 11784  0020E2  6E25               	movwf	??i2___flge^0,c
 11785  0020E4  0E00               	movlw	0
 11786  0020E6  141E               	andwf	(i2___flge@ff1+1)^0,w,c
 11787  0020E8  6E26               	movwf	(??i2___flge+1)^0,c
 11788  0020EA  0E80               	movlw	128
 11789  0020EC  141F               	andwf	(i2___flge@ff1+2)^0,w,c
 11790  0020EE  6E27               	movwf	(??i2___flge+2)^0,c
 11791  0020F0  0E7F               	movlw	127
 11792  0020F2  1420               	andwf	(i2___flge@ff1+3)^0,w,c
 11793  0020F4  6E28               	movwf	(??i2___flge+3)^0,c
 11794  0020F6  5025               	movf	??i2___flge^0,w,c
 11795  0020F8  1026               	iorwf	(??i2___flge+1)^0,w,c
 11796  0020FA  1027               	iorwf	(??i2___flge+2)^0,w,c
 11797  0020FC  1028               	iorwf	(??i2___flge+3)^0,w,c
 11798  0020FE  A4D8               	btfss	status,2,c
 11799  002100  EF84  F010         	goto	i2u444_41
 11800  002104  EF86  F010         	goto	i2u444_40
 11801  002108                     i2u444_41:
 11802  002108  EF8E  F010         	goto	i2l4343
 11803  00210C                     i2u444_40:
 11804  00210C  0E00               	movlw	0
 11805  00210E  6E1D               	movwf	i2___flge@ff1^0,c
 11806  002110  0E00               	movlw	0
 11807  002112  6E1E               	movwf	(i2___flge@ff1+1)^0,c
 11808  002114  0E00               	movlw	0
 11809  002116  6E1F               	movwf	(i2___flge@ff1+2)^0,c
 11810  002118  0E00               	movlw	0
 11811  00211A  6E20               	movwf	(i2___flge@ff1+3)^0,c
 11812  00211C                     i2l4343:
 11813  00211C  0E00               	movlw	0
 11814  00211E  1421               	andwf	i2___flge@ff2^0,w,c
 11815  002120  6E25               	movwf	??i2___flge^0,c
 11816  002122  0E00               	movlw	0
 11817  002124  1422               	andwf	(i2___flge@ff2+1)^0,w,c
 11818  002126  6E26               	movwf	(??i2___flge+1)^0,c
 11819  002128  0E80               	movlw	128
 11820  00212A  1423               	andwf	(i2___flge@ff2+2)^0,w,c
 11821  00212C  6E27               	movwf	(??i2___flge+2)^0,c
 11822  00212E  0E7F               	movlw	127
 11823  002130  1424               	andwf	(i2___flge@ff2+3)^0,w,c
 11824  002132  6E28               	movwf	(??i2___flge+3)^0,c
 11825  002134  5025               	movf	??i2___flge^0,w,c
 11826  002136  1026               	iorwf	(??i2___flge+1)^0,w,c
 11827  002138  1027               	iorwf	(??i2___flge+2)^0,w,c
 11828  00213A  1028               	iorwf	(??i2___flge+3)^0,w,c
 11829  00213C  A4D8               	btfss	status,2,c
 11830  00213E  EFA3  F010         	goto	i2u445_41
 11831  002142  EFA5  F010         	goto	i2u445_40
 11832  002146                     i2u445_41:
 11833  002146  EFAD  F010         	goto	i2l4347
 11834  00214A                     i2u445_40:
 11835  00214A  0E00               	movlw	0
 11836  00214C  6E21               	movwf	i2___flge@ff2^0,c
 11837  00214E  0E00               	movlw	0
 11838  002150  6E22               	movwf	(i2___flge@ff2+1)^0,c
 11839  002152  0E00               	movlw	0
 11840  002154  6E23               	movwf	(i2___flge@ff2+2)^0,c
 11841  002156  0E00               	movlw	0
 11842  002158  6E24               	movwf	(i2___flge@ff2+3)^0,c
 11843  00215A                     i2l4347:
 11844  00215A  AE20               	btfss	(i2___flge@ff1+3)^0,7,c
 11845  00215C  EFB2  F010         	goto	i2u446_41
 11846  002160  EFB4  F010         	goto	i2u446_40
 11847  002164                     i2u446_41:
 11848  002164  EFBD  F010         	goto	i2l4351
 11849  002168                     i2u446_40:
 11850  002168  6C1D               	negf	i2___flge@ff1^0,c
 11851  00216A  1E1E               	comf	(i2___flge@ff1+1)^0,f,c
 11852  00216C  B0D8               	btfsc	status,0,c
 11853  00216E  2A1E               	incf	(i2___flge@ff1+1)^0,f,c
 11854  002170  1E1F               	comf	(i2___flge@ff1+2)^0,f,c
 11855  002172  B0D8               	btfsc	status,0,c
 11856  002174  2A1F               	incf	(i2___flge@ff1+2)^0,f,c
 11857  002176  0E80               	movlw	128
 11858  002178  5620               	subfwb	(i2___flge@ff1+3)^0,f,c
 11859  00217A                     i2l4351:
 11860  00217A  AE24               	btfss	(i2___flge@ff2+3)^0,7,c
 11861  00217C  EFC2  F010         	goto	i2u447_41
 11862  002180  EFC4  F010         	goto	i2u447_40
 11863  002184                     i2u447_41:
 11864  002184  EFCD  F010         	goto	i2l1050
 11865  002188                     i2u447_40:
 11866  002188  6C21               	negf	i2___flge@ff2^0,c
 11867  00218A  1E22               	comf	(i2___flge@ff2+1)^0,f,c
 11868  00218C  B0D8               	btfsc	status,0,c
 11869  00218E  2A22               	incf	(i2___flge@ff2+1)^0,f,c
 11870  002190  1E23               	comf	(i2___flge@ff2+2)^0,f,c
 11871  002192  B0D8               	btfsc	status,0,c
 11872  002194  2A23               	incf	(i2___flge@ff2+2)^0,f,c
 11873  002196  0E80               	movlw	128
 11874  002198  5624               	subfwb	(i2___flge@ff2+3)^0,f,c
 11875  00219A                     i2l1050:
 11876  00219A  0E00               	movlw	0
 11877  00219C  1A1D               	xorwf	i2___flge@ff1^0,f,c
 11878  00219E  0E00               	movlw	0
 11879  0021A0  1A1E               	xorwf	(i2___flge@ff1+1)^0,f,c
 11880  0021A2  0E00               	movlw	0
 11881  0021A4  1A1F               	xorwf	(i2___flge@ff1+2)^0,f,c
 11882  0021A6  0E80               	movlw	128
 11883  0021A8  1A20               	xorwf	(i2___flge@ff1+3)^0,f,c
 11884  0021AA  0E00               	movlw	0
 11885  0021AC  1A21               	xorwf	i2___flge@ff2^0,f,c
 11886  0021AE  0E00               	movlw	0
 11887  0021B0  1A22               	xorwf	(i2___flge@ff2+1)^0,f,c
 11888  0021B2  0E00               	movlw	0
 11889  0021B4  1A23               	xorwf	(i2___flge@ff2+2)^0,f,c
 11890  0021B6  0E80               	movlw	128
 11891  0021B8  1A24               	xorwf	(i2___flge@ff2+3)^0,f,c
 11892  0021BA  5021               	movf	i2___flge@ff2^0,w,c
 11893  0021BC  5C1D               	subwf	i2___flge@ff1^0,w,c
 11894  0021BE  5022               	movf	(i2___flge@ff2+1)^0,w,c
 11895  0021C0  581E               	subwfb	(i2___flge@ff1+1)^0,w,c
 11896  0021C2  5023               	movf	(i2___flge@ff2+2)^0,w,c
 11897  0021C4  581F               	subwfb	(i2___flge@ff1+2)^0,w,c
 11898  0021C6  5024               	movf	(i2___flge@ff2+3)^0,w,c
 11899  0021C8  5820               	subwfb	(i2___flge@ff1+3)^0,w,c
 11900  0021CA  B0D8               	btfsc	status,0,c
 11901  0021CC  EFEA  F010         	goto	i2u448_41
 11902  0021D0  EFEC  F010         	goto	i2u448_40
 11903  0021D4                     i2u448_41:
 11904  0021D4  EFEF  F010         	goto	i2l4357
 11905  0021D8                     i2u448_40:
 11906  0021D8  90D8               	bcf	status,0,c
 11907  0021DA  EFF0  F010         	goto	i2l1055
 11908  0021DE                     i2l4357:
 11909  0021DE  80D8               	bsf	status,0,c
 11910  0021E0                     i2l1055:
 11911  0021E0  0012               	return		;funcret
 11912  0021E2                     __end_ofi2___flge:
 11913                           	opt callstack 0
 11914                           
 11915 ;; *************** function i2_CONTADOR *****************
 11916 ;; Defined at:
 11917 ;;		line 47 in file "../Proyectoa4550.X/PWM.c"
 11918 ;; Parameters:    Size  Location     Type
 11919 ;;  DifA            2    5[COMRAM] short 
 11920 ;;  DifB            2    7[COMRAM] short 
 11921 ;; Auto vars:     Size  Location     Type
 11922 ;;  CONTADOR        2   11[COMRAM] unsigned short 
 11923 ;;  CONTADOR        2    9[COMRAM] unsigned short 
 11924 ;;  CONTADOR        1   16[COMRAM] unsigned char 
 11925 ;;  CONTADOR        1   15[COMRAM] unsigned char 
 11926 ;;  CONTADOR        1   14[COMRAM] unsigned char 
 11927 ;;  CONTADOR        1   13[COMRAM] unsigned char 
 11928 ;; Return value:  Size  Location     Type
 11929 ;;                  1    wreg      void 
 11930 ;; Registers used:
 11931 ;;		wreg, status,2, status,0, prodl, prodh, cstack
 11932 ;; Tracked objects:
 11933 ;;		On entry : 0/0
 11934 ;;		On exit  : 0/0
 11935 ;;		Unchanged: 0/0
 11936 ;; Data sizes:     COMRAM   BANK0   BANK1   BANK2   BANK3   BANK4   BANK5   BANK6   BANK7
 11937 ;;      Params:         4       0       0       0       0       0       0       0       0
 11938 ;;      Locals:         8       0       0       0       0       0       0       0       0
 11939 ;;      Temps:          0       0       0       0       0       0       0       0       0
 11940 ;;      Totals:        12       0       0       0       0       0       0       0       0
 11941 ;;Total ram usage:       12 bytes
 11942 ;; Hardware stack levels used:    1
 11943 ;; Hardware stack levels required when called:    1
 11944 ;; This function calls:
 11945 ;;		i2_ENABLE_A
 11946 ;;		i2_ENABLE_B
 11947 ;;		i2_PWMDutyCycle1
 11948 ;;		i2_PWMDutyCycle2
 11949 ;;		i2_abs
 11950 ;; This function is called by:
 11951 ;;		i2_motoresmov
 11952 ;; This function uses a non-reentrant model
 11953 ;;
 11954                           
 11955                           	psect	text68
 11956  001B40                     __ptext68:
 11957                           	opt callstack 0
 11958  001B40                     i2_CONTADOR:
 11959                           	opt callstack 21
 11960  001B40                     
 11961                           ;../Proyectoa4550.X/PWM.c: 48:     uint8_t A=0;
 11962  001B40  0E00               	movlw	0
 11963  001B42  6E10               	movwf	i2CONTADOR@A^0,c
 11964                           
 11965                           ;../Proyectoa4550.X/PWM.c: 49:     uint8_t B=0;
 11966  001B44  0E00               	movlw	0
 11967  001B46  6E11               	movwf	i2CONTADOR@B^0,c
 11968                           
 11969                           ;../Proyectoa4550.X/PWM.c: 50:     uint8_t ZA=0;
 11970  001B48  0E00               	movlw	0
 11971  001B4A  6E0E               	movwf	i2CONTADOR@ZA^0,c
 11972                           
 11973                           ;../Proyectoa4550.X/PWM.c: 51:     uint8_t ZB=0;
 11974  001B4C  0E00               	movlw	0
 11975  001B4E  6E0F               	movwf	i2CONTADOR@ZB^0,c
 11976                           
 11977                           ;../Proyectoa4550.X/PWM.c: 52:     uint16_t ContadorA=0;
 11978  001B50  0E00               	movlw	0
 11979  001B52  6E0B               	movwf	(i2CONTADOR@ContadorA+1)^0,c
 11980  001B54  0E00               	movlw	0
 11981  001B56  6E0A               	movwf	i2CONTADOR@ContadorA^0,c
 11982                           
 11983                           ;../Proyectoa4550.X/PWM.c: 53:     uint16_t ContadorB=0;
 11984  001B58  0E00               	movlw	0
 11985  001B5A  6E0D               	movwf	(i2CONTADOR@ContadorB+1)^0,c
 11986  001B5C  0E00               	movlw	0
 11987  001B5E  6E0C               	movwf	i2CONTADOR@ContadorB^0,c
 11988  001B60                     
 11989                           ;../Proyectoa4550.X/PWM.c: 54:     PA=&A;
 11990  001B60  0E10               	movlw	low i2CONTADOR@A
 11991  001B62  6E5C               	movwf	_PA^0,c
 11992  001B64  0E00               	movlw	high i2CONTADOR@A
 11993  001B66  6E5D               	movwf	(_PA+1)^0,c
 11994  001B68                     
 11995                           ;../Proyectoa4550.X/PWM.c: 55:     PB=&B;
 11996  001B68  0E11               	movlw	low i2CONTADOR@B
 11997  001B6A  6E5A               	movwf	_PB^0,c
 11998  001B6C  0E00               	movlw	high i2CONTADOR@B
 11999  001B6E  6E5B               	movwf	(_PB+1)^0,c
 12000  001B70                     
 12001                           ;../Proyectoa4550.X/PWM.c: 56:     PWMDutyCycle1(50);
 12002  001B70  0E32               	movlw	50
 12003  001B72  EC5E  F019         	call	i2_PWMDutyCycle1
 12004  001B76                     
 12005                           ;../Proyectoa4550.X/PWM.c: 57:     PWMDutyCycle2(50);
 12006  001B76  0E32               	movlw	50
 12007  001B78  EC4A  F019         	call	i2_PWMDutyCycle2
 12008                           
 12009                           ;../Proyectoa4550.X/PWM.c: 58:     while(A==0||B==0) {
 12010  001B7C  EF2E  F00E         	goto	i2l4803
 12011  001B80                     i2l266:
 12012                           
 12013                           ;../Proyectoa4550.X/PWM.c: 59:         if((PORTCbits.CCP1==1)&&ZA==0) {
 12014  001B80  A482               	btfss	130,2,c	;volatile
 12015  001B82  EFC5  F00D         	goto	i2u512_41
 12016  001B86  EFC7  F00D         	goto	i2u512_40
 12017  001B8A                     i2u512_41:
 12018  001B8A  EFD5  F00D         	goto	i2l267
 12019  001B8E                     i2u512_40:
 12020  001B8E  500E               	movf	i2CONTADOR@ZA^0,w,c
 12021  001B90  A4D8               	btfss	status,2,c
 12022  001B92  EFCD  F00D         	goto	i2u513_41
 12023  001B96  EFCF  F00D         	goto	i2u513_40
 12024  001B9A                     i2u513_41:
 12025  001B9A  EFD5  F00D         	goto	i2l267
 12026  001B9E                     i2u513_40:
 12027  001B9E                     
 12028                           ;../Proyectoa4550.X/PWM.c: 60:             ZA=1;
 12029  001B9E  0E01               	movlw	1
 12030  001BA0  6E0E               	movwf	i2CONTADOR@ZA^0,c
 12031  001BA2                     
 12032                           ;../Proyectoa4550.X/PWM.c: 61:             ContadorA++;
 12033  001BA2  4A0A               	infsnz	i2CONTADOR@ContadorA^0,f,c
 12034  001BA4  2A0B               	incf	(i2CONTADOR@ContadorA+1)^0,f,c
 12035                           
 12036                           ;../Proyectoa4550.X/PWM.c: 62:         } else if(PORTCbits.CCP1==0) {
 12037  001BA6  EFDE  F00D         	goto	i2l4777
 12038  001BAA                     i2l267:
 12039  001BAA  B482               	btfsc	130,2,c	;volatile
 12040  001BAC  EFDA  F00D         	goto	i2u514_41
 12041  001BB0  EFDC  F00D         	goto	i2u514_40
 12042  001BB4                     i2u514_41:
 12043  001BB4  EFDE  F00D         	goto	i2l4777
 12044  001BB8                     i2u514_40:
 12045  001BB8                     
 12046                           ;../Proyectoa4550.X/PWM.c: 63:             ZA=0;
 12047  001BB8  0E00               	movlw	0
 12048  001BBA  6E0E               	movwf	i2CONTADOR@ZA^0,c
 12049  001BBC                     i2l4777:
 12050                           
 12051                           ;../Proyectoa4550.X/PWM.c: 65:         if((PORTCbits.CCP2==1)&&ZB==0) {
 12052  001BBC  A282               	btfss	130,1,c	;volatile
 12053  001BBE  EFE3  F00D         	goto	i2u515_41
 12054  001BC2  EFE5  F00D         	goto	i2u515_40
 12055  001BC6                     i2u515_41:
 12056  001BC6  EFF3  F00D         	goto	i2l270
 12057  001BCA                     i2u515_40:
 12058  001BCA  500F               	movf	i2CONTADOR@ZB^0,w,c
 12059  001BCC  A4D8               	btfss	status,2,c
 12060  001BCE  EFEB  F00D         	goto	i2u516_41
 12061  001BD2  EFED  F00D         	goto	i2u516_40
 12062  001BD6                     i2u516_41:
 12063  001BD6  EFF3  F00D         	goto	i2l270
 12064  001BDA                     i2u516_40:
 12065  001BDA                     
 12066                           ;../Proyectoa4550.X/PWM.c: 66:             ZB=1;
 12067  001BDA  0E01               	movlw	1
 12068  001BDC  6E0F               	movwf	i2CONTADOR@ZB^0,c
 12069  001BDE                     
 12070                           ;../Proyectoa4550.X/PWM.c: 67:             ContadorB++;
 12071  001BDE  4A0C               	infsnz	i2CONTADOR@ContadorB^0,f,c
 12072  001BE0  2A0D               	incf	(i2CONTADOR@ContadorB+1)^0,f,c
 12073                           
 12074                           ;../Proyectoa4550.X/PWM.c: 68:         } else if(PORTCbits.CCP2==0) {
 12075  001BE2  EFFC  F00D         	goto	i2l4787
 12076  001BE6                     i2l270:
 12077  001BE6  B282               	btfsc	130,1,c	;volatile
 12078  001BE8  EFF8  F00D         	goto	i2u517_41
 12079  001BEC  EFFA  F00D         	goto	i2u517_40
 12080  001BF0                     i2u517_41:
 12081  001BF0  EFFC  F00D         	goto	i2l4787
 12082  001BF4                     i2u517_40:
 12083  001BF4                     
 12084                           ;../Proyectoa4550.X/PWM.c: 69:             ZB=0;
 12085  001BF4  0E00               	movlw	0
 12086  001BF6  6E0F               	movwf	i2CONTADOR@ZB^0,c
 12087  001BF8                     i2l4787:
 12088                           
 12089                           ;../Proyectoa4550.X/PWM.c: 71:         if(ContadorA>=(abs(DifA))) {
 12090  001BF8  C006  F001         	movff	i2CONTADOR@DifA,i2abs@a
 12091  001BFC  C007  F002         	movff	i2CONTADOR@DifA+1,i2abs@a+1
 12092  001C00  EC42  F017         	call	i2_abs	;wreg free
 12093  001C04  5001               	movf	?i2_abs^0,w,c
 12094  001C06  5C0A               	subwf	i2CONTADOR@ContadorA^0,w,c
 12095  001C08  5002               	movf	(?i2_abs+1)^0,w,c
 12096  001C0A  580B               	subwfb	(i2CONTADOR@ContadorA+1)^0,w,c
 12097  001C0C  A0D8               	btfss	status,0,c
 12098  001C0E  EF0B  F00E         	goto	i2u518_41
 12099  001C12  EF0D  F00E         	goto	i2u518_40
 12100  001C16                     i2u518_41:
 12101  001C16  EF15  F00E         	goto	i2l4795
 12102  001C1A                     i2u518_40:
 12103  001C1A                     
 12104                           ;../Proyectoa4550.X/PWM.c: 72:             A=1;
 12105  001C1A  0E01               	movlw	1
 12106  001C1C  6E10               	movwf	i2CONTADOR@A^0,c
 12107  001C1E                     
 12108                           ;../Proyectoa4550.X/PWM.c: 73:             PWMDutyCycle1(0);
 12109  001C1E  0E00               	movlw	0
 12110  001C20  EC5E  F019         	call	i2_PWMDutyCycle1
 12111  001C24                     
 12112                           ;../Proyectoa4550.X/PWM.c: 74:             ENABLE_A(0);
 12113  001C24  0E00               	movlw	0
 12114  001C26  EC49  F01A         	call	i2_ENABLE_A
 12115  001C2A                     i2l4795:
 12116                           
 12117                           ;../Proyectoa4550.X/PWM.c: 76:         if(ContadorB>=(abs(DifB))) {
 12118  001C2A  C008  F001         	movff	i2CONTADOR@DifB,i2abs@a
 12119  001C2E  C009  F002         	movff	i2CONTADOR@DifB+1,i2abs@a+1
 12120  001C32  EC42  F017         	call	i2_abs	;wreg free
 12121  001C36  5001               	movf	?i2_abs^0,w,c
 12122  001C38  5C0C               	subwf	i2CONTADOR@ContadorB^0,w,c
 12123  001C3A  5002               	movf	(?i2_abs+1)^0,w,c
 12124  001C3C  580D               	subwfb	(i2CONTADOR@ContadorB+1)^0,w,c
 12125  001C3E  A0D8               	btfss	status,0,c
 12126  001C40  EF24  F00E         	goto	i2u519_41
 12127  001C44  EF26  F00E         	goto	i2u519_40
 12128  001C48                     i2u519_41:
 12129  001C48  EF2E  F00E         	goto	i2l4803
 12130  001C4C                     i2u519_40:
 12131  001C4C                     
 12132                           ;../Proyectoa4550.X/PWM.c: 77:             B=1;
 12133  001C4C  0E01               	movlw	1
 12134  001C4E  6E11               	movwf	i2CONTADOR@B^0,c
 12135  001C50                     
 12136                           ;../Proyectoa4550.X/PWM.c: 78:             PWMDutyCycle2(0);
 12137  001C50  0E00               	movlw	0
 12138  001C52  EC4A  F019         	call	i2_PWMDutyCycle2
 12139  001C56                     
 12140                           ;../Proyectoa4550.X/PWM.c: 79:             ENABLE_B(0);
 12141  001C56  0E00               	movlw	0
 12142  001C58  EC3B  F01A         	call	i2_ENABLE_B
 12143  001C5C                     i2l4803:
 12144                           
 12145                           ;../Proyectoa4550.X/PWM.c: 58:     while(A==0||B==0) {
 12146  001C5C  5010               	movf	i2CONTADOR@A^0,w,c
 12147  001C5E  B4D8               	btfsc	status,2,c
 12148  001C60  EF34  F00E         	goto	i2u520_41
 12149  001C64  EF36  F00E         	goto	i2u520_40
 12150  001C68                     i2u520_41:
 12151  001C68  EFC0  F00D         	goto	i2l266
 12152  001C6C                     i2u520_40:
 12153  001C6C  5011               	movf	i2CONTADOR@B^0,w,c
 12154  001C6E  B4D8               	btfsc	status,2,c
 12155  001C70  EF3C  F00E         	goto	i2u521_41
 12156  001C74  EF3E  F00E         	goto	i2u521_40
 12157  001C78                     i2u521_41:
 12158  001C78  EFC0  F00D         	goto	i2l266
 12159  001C7C                     i2u521_40:
 12160  001C7C  0012               	return		;funcret
 12161  001C7E                     __end_ofi2_CONTADOR:
 12162                           	opt callstack 0
 12163                           
 12164 ;; *************** function i2_abs *****************
 12165 ;; Defined at:
 12166 ;;		line 1 in file "C:\Program Files (x86)\Microchip\xc8\v2.10\pic\sources\c99\common\abs.c"
 12167 ;; Parameters:    Size  Location     Type
 12168 ;;  a               2    0[COMRAM] int 
 12169 ;; Auto vars:     Size  Location     Type
 12170 ;;		None
 12171 ;; Return value:  Size  Location     Type
 12172 ;;                  2    0[COMRAM] int 
 12173 ;; Registers used:
 12174 ;;		wreg, status,2, status,0
 12175 ;; Tracked objects:
 12176 ;;		On entry : 0/0
 12177 ;;		On exit  : 0/0
 12178 ;;		Unchanged: 0/0
 12179 ;; Data sizes:     COMRAM   BANK0   BANK1   BANK2   BANK3   BANK4   BANK5   BANK6   BANK7
 12180 ;;      Params:         2       0       0       0       0       0       0       0       0
 12181 ;;      Locals:         0       0       0       0       0       0       0       0       0
 12182 ;;      Temps:          2       0       0       0       0       0       0       0       0
 12183 ;;      Totals:         4       0       0       0       0       0       0       0       0
 12184 ;;Total ram usage:        4 bytes
 12185 ;; Hardware stack levels used:    1
 12186 ;; This function calls:
 12187 ;;		Nothing
 12188 ;; This function is called by:
 12189 ;;		i2_Conversion
 12190 ;;		i2_CONTADOR
 12191 ;; This function uses a non-reentrant model
 12192 ;;
 12193                           
 12194                           	psect	text69
 12195  002E84                     __ptext69:
 12196                           	opt callstack 0
 12197  002E84                     i2_abs:
 12198                           	opt callstack 21
 12199  002E84  BE02               	btfsc	(i2abs@a+1)^0,7,c
 12200  002E86  EF4F  F017         	goto	i2u459_40
 12201  002E8A  5002               	movf	(i2abs@a+1)^0,w,c
 12202  002E8C  E106               	bnz	i2u459_41
 12203  002E8E  0401               	decf	i2abs@a^0,w,c
 12204  002E90  B0D8               	btfsc	status,0,c
 12205  002E92  EF4D  F017         	goto	i2u459_41
 12206  002E96  EF4F  F017         	goto	i2u459_40
 12207  002E9A                     i2u459_41:
 12208  002E9A  EF5D  F017         	goto	i2l1460
 12209  002E9E                     i2u459_40:
 12210  002E9E  C001  F003         	movff	i2abs@a,??i2_abs
 12211  002EA2  C002  F004         	movff	i2abs@a+1,??i2_abs+1
 12212  002EA6  1E03               	comf	??i2_abs^0,f,c
 12213  002EA8  1E04               	comf	(??i2_abs+1)^0,f,c
 12214  002EAA  4A03               	infsnz	??i2_abs^0,f,c
 12215  002EAC  2A04               	incf	(??i2_abs+1)^0,f,c
 12216  002EAE  C003  F001         	movff	??i2_abs,?i2_abs
 12217  002EB2  C004  F002         	movff	??i2_abs+1,?i2_abs+1
 12218  002EB6  EF61  F017         	goto	i2l1463
 12219  002EBA                     i2l1460:
 12220  002EBA  C001  F001         	movff	i2abs@a,?i2_abs
 12221  002EBE  C002  F002         	movff	i2abs@a+1,?i2_abs+1
 12222  002EC2                     i2l1463:
 12223  002EC2  0012               	return		;funcret
 12224  002EC4                     __end_ofi2_abs:
 12225                           	opt callstack 0
 12226                           
 12227 ;; *************** function _interrupcionY *****************
 12228 ;; Defined at:
 12229 ;;		line 27 in file "interrupcciones.c"
 12230 ;; Parameters:    Size  Location     Type
 12231 ;;		None
 12232 ;; Auto vars:     Size  Location     Type
 12233 ;;		None
 12234 ;; Return value:  Size  Location     Type
 12235 ;;                  1    wreg      void 
 12236 ;; Registers used:
 12237 ;;		wreg, fsr1l, fsr1h, fsr2l, fsr2h, status,2, status,0, prodl, prodh, cstack
 12238 ;; Tracked objects:
 12239 ;;		On entry : 0/0
 12240 ;;		On exit  : 0/0
 12241 ;;		Unchanged: 0/0
 12242 ;; Data sizes:     COMRAM   BANK0   BANK1   BANK2   BANK3   BANK4   BANK5   BANK6   BANK7
 12243 ;;      Params:         0       0       0       0       0       0       0       0       0
 12244 ;;      Locals:         0       0       0       0       0       0       0       0       0
 12245 ;;      Temps:          0       0       0       0       0       0       0       0       0
 12246 ;;      Totals:         0       0       0       0       0       0       0       0       0
 12247 ;;Total ram usage:        0 bytes
 12248 ;; Hardware stack levels used:    1
 12249 ;; Hardware stack levels required when called:    2
 12250 ;; This function calls:
 12251 ;;		_LIMITEY
 12252 ;;		i2_ENABLE_A
 12253 ;;		i2_ENABLE_B
 12254 ;;		i2_PWMDutyCycle1
 12255 ;;		i2_PWMDutyCycle2
 12256 ;; This function is called by:
 12257 ;;		_INT_isr
 12258 ;; This function uses a non-reentrant model
 12259 ;;
 12260                           
 12261                           	psect	text70
 12262  003140                     __ptext70:
 12263                           	opt callstack 0
 12264  003140                     _interrupcionY:
 12265                           	opt callstack 21
 12266  003140                     
 12267                           ;interrupcciones.c: 28:     ENABLE_A(0);
 12268  003140  0E00               	movlw	0
 12269  003142  EC49  F01A         	call	i2_ENABLE_A
 12270                           
 12271                           ;interrupcciones.c: 29:     ENABLE_B(0);
 12272  003146  0E00               	movlw	0
 12273  003148  EC3B  F01A         	call	i2_ENABLE_B
 12274  00314C                     
 12275                           ;interrupcciones.c: 30:     PWMDutyCycle1(0);
 12276  00314C  0E00               	movlw	0
 12277  00314E  EC5E  F019         	call	i2_PWMDutyCycle1
 12278  003152                     
 12279                           ;interrupcciones.c: 31:     PWMDutyCycle2(0);
 12280  003152  0E00               	movlw	0
 12281  003154  EC4A  F019         	call	i2_PWMDutyCycle2
 12282  003158                     
 12283                           ;interrupcciones.c: 32:     *PA=1;
 12284  003158  C05C  FFD9         	movff	_PA,fsr2l
 12285  00315C  C05D  FFDA         	movff	_PA+1,fsr2h
 12286  003160  0E01               	movlw	1
 12287  003162  6EDF               	movwf	indf2,c
 12288  003164                     
 12289                           ;interrupcciones.c: 33:     *PB=1;
 12290  003164  C05A  FFD9         	movff	_PB,fsr2l
 12291  003168  C05B  FFDA         	movff	_PB+1,fsr2h
 12292  00316C  0E01               	movlw	1
 12293  00316E  6EDF               	movwf	indf2,c
 12294  003170                     
 12295                           ;interrupcciones.c: 34:     LIMITEY();
 12296  003170  EC80  F017         	call	_LIMITEY	;wreg free
 12297  003174  0012               	return		;funcret
 12298  003176                     __end_of_interrupcionY:
 12299                           	opt callstack 0
 12300                           
 12301 ;; *************** function _LIMITEY *****************
 12302 ;; Defined at:
 12303 ;;		line 213 in file "../Proyectoa4550.X/Mensajes50.c"
 12304 ;; Parameters:    Size  Location     Type
 12305 ;;		None
 12306 ;; Auto vars:     Size  Location     Type
 12307 ;;  C               1   15[COMRAM] unsigned char 
 12308 ;;  F              14    1[COMRAM] unsigned char [14]
 12309 ;; Return value:  Size  Location     Type
 12310 ;;                  1    wreg      void 
 12311 ;; Registers used:
 12312 ;;		wreg, fsr1l, fsr1h, fsr2l, fsr2h, status,2, status,0, cstack
 12313 ;; Tracked objects:
 12314 ;;		On entry : 0/0
 12315 ;;		On exit  : 0/0
 12316 ;;		Unchanged: 0/0
 12317 ;; Data sizes:     COMRAM   BANK0   BANK1   BANK2   BANK3   BANK4   BANK5   BANK6   BANK7
 12318 ;;      Params:         0       0       0       0       0       0       0       0       0
 12319 ;;      Locals:        15       0       0       0       0       0       0       0       0
 12320 ;;      Temps:          0       0       0       0       0       0       0       0       0
 12321 ;;      Totals:        15       0       0       0       0       0       0       0       0
 12322 ;;Total ram usage:       15 bytes
 12323 ;; Hardware stack levels used:    1
 12324 ;; Hardware stack levels required when called:    1
 12325 ;; This function calls:
 12326 ;;		i2_UARTWrite
 12327 ;; This function is called by:
 12328 ;;		_interrupcionY
 12329 ;; This function uses a non-reentrant model
 12330 ;;
 12331                           
 12332                           	psect	text71
 12333  002F00                     __ptext71:
 12334                           	opt callstack 0
 12335  002F00                     _LIMITEY:
 12336                           	opt callstack 21
 12337  002F00                     
 12338                           ;../Proyectoa4550.X/Mensajes50.c: 214:     uint8_t F[]="LIMITE EN Y\n\r";
 12339  002F00  EE21  F0CC         	lfsr	2,LIMITEY@F3669
 12340  002F04  EE10  F002         	lfsr	1,LIMITEY@F
 12341  002F08  0E0D               	movlw	13
 12342  002F0A                     i2u482_41:
 12343  002F0A  CFDB FFE3          	movff	plusw2,plusw1
 12344  002F0E  06E8               	decf	wreg,f,c
 12345  002F10  E2FC               	bc	i2u482_41
 12346  002F12                     
 12347                           ;../Proyectoa4550.X/Mensajes50.c: 215:     for(uint8_t C=0; C<(sizeof(F)); C++) {
 12348  002F12  0E00               	movlw	0
 12349  002F14  6E10               	movwf	LIMITEY@C^0,c
 12350  002F16                     i2l4557:
 12351                           
 12352                           ;../Proyectoa4550.X/Mensajes50.c: 216:             UARTWrite(F[C]);
 12353  002F16  0E02               	movlw	low LIMITEY@F
 12354  002F18  2410               	addwf	LIMITEY@C^0,w,c
 12355  002F1A  6ED9               	movwf	fsr2l,c
 12356  002F1C  6ADA               	clrf	fsr2h,c
 12357  002F1E  0E00               	movlw	high LIMITEY@F
 12358  002F20  22DA               	addwfc	fsr2h,f,c
 12359  002F22  50DF               	movf	indf2,w,c
 12360  002F24  EC6E  F01A         	call	i2_UARTWrite
 12361  002F28                     
 12362                           ;../Proyectoa4550.X/Mensajes50.c: 217:     }
 12363  002F28  2A10               	incf	LIMITEY@C^0,f,c
 12364  002F2A  0E0D               	movlw	13
 12365  002F2C  6410               	cpfsgt	LIMITEY@C^0,c
 12366  002F2E  EF9B  F017         	goto	i2u483_41
 12367  002F32  EF9D  F017         	goto	i2u483_40
 12368  002F36                     i2u483_41:
 12369  002F36  EF8B  F017         	goto	i2l4557
 12370  002F3A                     i2u483_40:
 12371  002F3A  0012               	return		;funcret
 12372  002F3C                     __end_of_LIMITEY:
 12373                           	opt callstack 0
 12374                           
 12375 ;; *************** function _interrupcionX *****************
 12376 ;; Defined at:
 12377 ;;		line 17 in file "interrupcciones.c"
 12378 ;; Parameters:    Size  Location     Type
 12379 ;;		None
 12380 ;; Auto vars:     Size  Location     Type
 12381 ;;		None
 12382 ;; Return value:  Size  Location     Type
 12383 ;;                  1    wreg      void 
 12384 ;; Registers used:
 12385 ;;		wreg, fsr1l, fsr1h, fsr2l, fsr2h, status,2, status,0, prodl, prodh, cstack
 12386 ;; Tracked objects:
 12387 ;;		On entry : 0/0
 12388 ;;		On exit  : 0/0
 12389 ;;		Unchanged: 0/0
 12390 ;; Data sizes:     COMRAM   BANK0   BANK1   BANK2   BANK3   BANK4   BANK5   BANK6   BANK7
 12391 ;;      Params:         0       0       0       0       0       0       0       0       0
 12392 ;;      Locals:         0       0       0       0       0       0       0       0       0
 12393 ;;      Temps:          0       0       0       0       0       0       0       0       0
 12394 ;;      Totals:         0       0       0       0       0       0       0       0       0
 12395 ;;Total ram usage:        0 bytes
 12396 ;; Hardware stack levels used:    1
 12397 ;; Hardware stack levels required when called:    2
 12398 ;; This function calls:
 12399 ;;		_LIMITEX
 12400 ;;		i2_ENABLE_A
 12401 ;;		i2_ENABLE_B
 12402 ;;		i2_PWMDutyCycle1
 12403 ;;		i2_PWMDutyCycle2
 12404 ;; This function is called by:
 12405 ;;		_INT_isr
 12406 ;; This function uses a non-reentrant model
 12407 ;;
 12408                           
 12409                           	psect	text72
 12410  003176                     __ptext72:
 12411                           	opt callstack 0
 12412  003176                     _interrupcionX:
 12413                           	opt callstack 21
 12414  003176                     
 12415                           ;interrupcciones.c: 18:     ENABLE_A(0);
 12416  003176  0E00               	movlw	0
 12417  003178  EC49  F01A         	call	i2_ENABLE_A
 12418                           
 12419                           ;interrupcciones.c: 19:     ENABLE_B(0);
 12420  00317C  0E00               	movlw	0
 12421  00317E  EC3B  F01A         	call	i2_ENABLE_B
 12422  003182                     
 12423                           ;interrupcciones.c: 20:     PWMDutyCycle1(0);
 12424  003182  0E00               	movlw	0
 12425  003184  EC5E  F019         	call	i2_PWMDutyCycle1
 12426  003188                     
 12427                           ;interrupcciones.c: 21:     PWMDutyCycle2(0);
 12428  003188  0E00               	movlw	0
 12429  00318A  EC4A  F019         	call	i2_PWMDutyCycle2
 12430  00318E                     
 12431                           ;interrupcciones.c: 22:     *PA=1;
 12432  00318E  C05C  FFD9         	movff	_PA,fsr2l
 12433  003192  C05D  FFDA         	movff	_PA+1,fsr2h
 12434  003196  0E01               	movlw	1
 12435  003198  6EDF               	movwf	indf2,c
 12436  00319A                     
 12437                           ;interrupcciones.c: 23:     *PB=1;
 12438  00319A  C05A  FFD9         	movff	_PB,fsr2l
 12439  00319E  C05B  FFDA         	movff	_PB+1,fsr2h
 12440  0031A2  0E01               	movlw	1
 12441  0031A4  6EDF               	movwf	indf2,c
 12442  0031A6                     
 12443                           ;interrupcciones.c: 24:     LIMITEX();
 12444  0031A6  EC9E  F017         	call	_LIMITEX	;wreg free
 12445  0031AA  0012               	return		;funcret
 12446  0031AC                     __end_of_interrupcionX:
 12447                           	opt callstack 0
 12448                           
 12449 ;; *************** function i2_PWMDutyCycle2 *****************
 12450 ;; Defined at:
 12451 ;;		line 41 in file "../Proyectoa4550.X/PWM.c"
 12452 ;; Parameters:    Size  Location     Type
 12453 ;;  DUTY            1    wreg     unsigned char 
 12454 ;; Auto vars:     Size  Location     Type
 12455 ;;  DUTY            1    4[COMRAM] unsigned char 
 12456 ;;  PWMDutyCycle    2    2[COMRAM] unsigned short 
 12457 ;; Return value:  Size  Location     Type
 12458 ;;                  1    wreg      void 
 12459 ;; Registers used:
 12460 ;;		wreg, status,2, status,0, prodl, prodh
 12461 ;; Tracked objects:
 12462 ;;		On entry : 0/0
 12463 ;;		On exit  : 0/0
 12464 ;;		Unchanged: 0/0
 12465 ;; Data sizes:     COMRAM   BANK0   BANK1   BANK2   BANK3   BANK4   BANK5   BANK6   BANK7
 12466 ;;      Params:         0       0       0       0       0       0       0       0       0
 12467 ;;      Locals:         3       0       0       0       0       0       0       0       0
 12468 ;;      Temps:          2       0       0       0       0       0       0       0       0
 12469 ;;      Totals:         5       0       0       0       0       0       0       0       0
 12470 ;;Total ram usage:        5 bytes
 12471 ;; Hardware stack levels used:    1
 12472 ;; This function calls:
 12473 ;;		Nothing
 12474 ;; This function is called by:
 12475 ;;		_interrupcionX
 12476 ;;		_interrupcionY
 12477 ;;		i2_CONTADOR
 12478 ;; This function uses a non-reentrant model
 12479 ;;
 12480                           
 12481                           	psect	text73
 12482  003294                     __ptext73:
 12483                           	opt callstack 0
 12484  003294                     i2_PWMDutyCycle2:
 12485                           	opt callstack 21
 12486                           
 12487                           ;incstack = 0
 12488                           ;i2PWMDutyCycle2@DUTY stored from wreg
 12489  003294  6E05               	movwf	i2PWMDutyCycle2@DUTY^0,c
 12490  003296                     
 12491                           ;../Proyectoa4550.X/PWM.c: 42:     uint16_t PERCENT;;../Proyectoa4550.X/PWM.c: 43:     P
      +                          ERCENT=DUTY*5;
 12492  003296  5005               	movf	i2PWMDutyCycle2@DUTY^0,w,c
 12493  003298  0D05               	mullw	5
 12494  00329A  CFF3 F003          	movff	prodl,i2PWMDutyCycle2@PERCENT
 12495  00329E  CFF4 F004          	movff	prodh,i2PWMDutyCycle2@PERCENT+1
 12496  0032A2                     
 12497                           ;../Proyectoa4550.X/PWM.c: 44:     CCPR2L=(PERCENT>>2)&0xFF;
 12498  0032A2  C003  F001         	movff	i2PWMDutyCycle2@PERCENT,??i2_PWMDutyCycle2
 12499  0032A6  C004  F002         	movff	i2PWMDutyCycle2@PERCENT+1,??i2_PWMDutyCycle2+1
 12500  0032AA  90D8               	bcf	status,0,c
 12501  0032AC  3202               	rrcf	(??i2_PWMDutyCycle2+1)^0,f,c
 12502  0032AE  3201               	rrcf	??i2_PWMDutyCycle2^0,f,c
 12503  0032B0  90D8               	bcf	status,0,c
 12504  0032B2  3202               	rrcf	(??i2_PWMDutyCycle2+1)^0,f,c
 12505  0032B4  3201               	rrcf	??i2_PWMDutyCycle2^0,f,c
 12506  0032B6  5001               	movf	??i2_PWMDutyCycle2^0,w,c
 12507  0032B8  6EBB               	movwf	187,c	;volatile
 12508  0032BA  0012               	return		;funcret
 12509  0032BC                     __end_ofi2_PWMDutyCycle2:
 12510                           	opt callstack 0
 12511                           
 12512 ;; *************** function i2_PWMDutyCycle1 *****************
 12513 ;; Defined at:
 12514 ;;		line 35 in file "../Proyectoa4550.X/PWM.c"
 12515 ;; Parameters:    Size  Location     Type
 12516 ;;  DUTY            1    wreg     unsigned char 
 12517 ;; Auto vars:     Size  Location     Type
 12518 ;;  DUTY            1    4[COMRAM] unsigned char 
 12519 ;;  PWMDutyCycle    2    2[COMRAM] unsigned short 
 12520 ;; Return value:  Size  Location     Type
 12521 ;;                  1    wreg      void 
 12522 ;; Registers used:
 12523 ;;		wreg, status,2, status,0, prodl, prodh
 12524 ;; Tracked objects:
 12525 ;;		On entry : 0/0
 12526 ;;		On exit  : 0/0
 12527 ;;		Unchanged: 0/0
 12528 ;; Data sizes:     COMRAM   BANK0   BANK1   BANK2   BANK3   BANK4   BANK5   BANK6   BANK7
 12529 ;;      Params:         0       0       0       0       0       0       0       0       0
 12530 ;;      Locals:         3       0       0       0       0       0       0       0       0
 12531 ;;      Temps:          2       0       0       0       0       0       0       0       0
 12532 ;;      Totals:         5       0       0       0       0       0       0       0       0
 12533 ;;Total ram usage:        5 bytes
 12534 ;; Hardware stack levels used:    1
 12535 ;; This function calls:
 12536 ;;		Nothing
 12537 ;; This function is called by:
 12538 ;;		_interrupcionX
 12539 ;;		_interrupcionY
 12540 ;;		i2_CONTADOR
 12541 ;; This function uses a non-reentrant model
 12542 ;;
 12543                           
 12544                           	psect	text74
 12545  0032BC                     __ptext74:
 12546                           	opt callstack 0
 12547  0032BC                     i2_PWMDutyCycle1:
 12548                           	opt callstack 21
 12549                           
 12550                           ;incstack = 0
 12551                           ;i2PWMDutyCycle1@DUTY stored from wreg
 12552  0032BC  6E05               	movwf	i2PWMDutyCycle1@DUTY^0,c
 12553  0032BE                     
 12554                           ;../Proyectoa4550.X/PWM.c: 36:     uint16_t PERCENT;;../Proyectoa4550.X/PWM.c: 37:     P
      +                          ERCENT=DUTY*5;
 12555  0032BE  5005               	movf	i2PWMDutyCycle1@DUTY^0,w,c
 12556  0032C0  0D05               	mullw	5
 12557  0032C2  CFF3 F003          	movff	prodl,i2PWMDutyCycle1@PERCENT
 12558  0032C6  CFF4 F004          	movff	prodh,i2PWMDutyCycle1@PERCENT+1
 12559  0032CA                     
 12560                           ;../Proyectoa4550.X/PWM.c: 38:     CCPR1L=(PERCENT>>2)&0xFF;
 12561  0032CA  C003  F001         	movff	i2PWMDutyCycle1@PERCENT,??i2_PWMDutyCycle1
 12562  0032CE  C004  F002         	movff	i2PWMDutyCycle1@PERCENT+1,??i2_PWMDutyCycle1+1
 12563  0032D2  90D8               	bcf	status,0,c
 12564  0032D4  3202               	rrcf	(??i2_PWMDutyCycle1+1)^0,f,c
 12565  0032D6  3201               	rrcf	??i2_PWMDutyCycle1^0,f,c
 12566  0032D8  90D8               	bcf	status,0,c
 12567  0032DA  3202               	rrcf	(??i2_PWMDutyCycle1+1)^0,f,c
 12568  0032DC  3201               	rrcf	??i2_PWMDutyCycle1^0,f,c
 12569  0032DE  5001               	movf	??i2_PWMDutyCycle1^0,w,c
 12570  0032E0  6EBE               	movwf	190,c	;volatile
 12571  0032E2  0012               	return		;funcret
 12572  0032E4                     __end_ofi2_PWMDutyCycle1:
 12573                           	opt callstack 0
 12574                           
 12575 ;; *************** function _LIMITEX *****************
 12576 ;; Defined at:
 12577 ;;		line 206 in file "../Proyectoa4550.X/Mensajes50.c"
 12578 ;; Parameters:    Size  Location     Type
 12579 ;;		None
 12580 ;; Auto vars:     Size  Location     Type
 12581 ;;  C               1   15[COMRAM] unsigned char 
 12582 ;;  F              14    1[COMRAM] unsigned char [14]
 12583 ;; Return value:  Size  Location     Type
 12584 ;;                  1    wreg      void 
 12585 ;; Registers used:
 12586 ;;		wreg, fsr1l, fsr1h, fsr2l, fsr2h, status,2, status,0, cstack
 12587 ;; Tracked objects:
 12588 ;;		On entry : 0/0
 12589 ;;		On exit  : 0/0
 12590 ;;		Unchanged: 0/0
 12591 ;; Data sizes:     COMRAM   BANK0   BANK1   BANK2   BANK3   BANK4   BANK5   BANK6   BANK7
 12592 ;;      Params:         0       0       0       0       0       0       0       0       0
 12593 ;;      Locals:        15       0       0       0       0       0       0       0       0
 12594 ;;      Temps:          0       0       0       0       0       0       0       0       0
 12595 ;;      Totals:        15       0       0       0       0       0       0       0       0
 12596 ;;Total ram usage:       15 bytes
 12597 ;; Hardware stack levels used:    1
 12598 ;; Hardware stack levels required when called:    1
 12599 ;; This function calls:
 12600 ;;		i2_UARTWrite
 12601 ;; This function is called by:
 12602 ;;		_interrupcionX
 12603 ;; This function uses a non-reentrant model
 12604 ;;
 12605                           
 12606                           	psect	text75
 12607  002F3C                     __ptext75:
 12608                           	opt callstack 0
 12609  002F3C                     _LIMITEX:
 12610                           	opt callstack 21
 12611  002F3C                     
 12612                           ;../Proyectoa4550.X/Mensajes50.c: 207:     uint8_t F[]="LIMITE EN X\n\r";
 12613  002F3C  EE20  F044         	lfsr	2,LIMITEX@F3665
 12614  002F40  EE10  F002         	lfsr	1,LIMITEX@F
 12615  002F44  0E0D               	movlw	13
 12616  002F46                     i2u480_41:
 12617  002F46  CFDB FFE3          	movff	plusw2,plusw1
 12618  002F4A  06E8               	decf	wreg,f,c
 12619  002F4C  E2FC               	bc	i2u480_41
 12620  002F4E                     
 12621                           ;../Proyectoa4550.X/Mensajes50.c: 208:     for(uint8_t C=0; C<(sizeof(F)); C++) {
 12622  002F4E  0E00               	movlw	0
 12623  002F50  6E10               	movwf	LIMITEX@C^0,c
 12624  002F52                     i2l4543:
 12625                           
 12626                           ;../Proyectoa4550.X/Mensajes50.c: 209:             UARTWrite(F[C]);
 12627  002F52  0E02               	movlw	low LIMITEX@F
 12628  002F54  2410               	addwf	LIMITEX@C^0,w,c
 12629  002F56  6ED9               	movwf	fsr2l,c
 12630  002F58  6ADA               	clrf	fsr2h,c
 12631  002F5A  0E00               	movlw	high LIMITEX@F
 12632  002F5C  22DA               	addwfc	fsr2h,f,c
 12633  002F5E  50DF               	movf	indf2,w,c
 12634  002F60  EC6E  F01A         	call	i2_UARTWrite
 12635  002F64                     
 12636                           ;../Proyectoa4550.X/Mensajes50.c: 210:     }
 12637  002F64  2A10               	incf	LIMITEX@C^0,f,c
 12638  002F66  0E0D               	movlw	13
 12639  002F68  6410               	cpfsgt	LIMITEX@C^0,c
 12640  002F6A  EFB9  F017         	goto	i2u481_41
 12641  002F6E  EFBB  F017         	goto	i2u481_40
 12642  002F72                     i2u481_41:
 12643  002F72  EFA9  F017         	goto	i2l4543
 12644  002F76                     i2u481_40:
 12645  002F76  0012               	return		;funcret
 12646  002F78                     __end_of_LIMITEX:
 12647                           	opt callstack 0
 12648                           
 12649 ;; *************** function _PARO2out *****************
 12650 ;; Defined at:
 12651 ;;		line 43 in file "interrupcciones.c"
 12652 ;; Parameters:    Size  Location     Type
 12653 ;;		None
 12654 ;; Auto vars:     Size  Location     Type
 12655 ;;		None
 12656 ;; Return value:  Size  Location     Type
 12657 ;;                  1    wreg      void 
 12658 ;; Registers used:
 12659 ;;		wreg, status,2, status,0, cstack
 12660 ;; Tracked objects:
 12661 ;;		On entry : 0/0
 12662 ;;		On exit  : 0/0
 12663 ;;		Unchanged: 0/0
 12664 ;; Data sizes:     COMRAM   BANK0   BANK1   BANK2   BANK3   BANK4   BANK5   BANK6   BANK7
 12665 ;;      Params:         0       0       0       0       0       0       0       0       0
 12666 ;;      Locals:         0       0       0       0       0       0       0       0       0
 12667 ;;      Temps:          0       0       0       0       0       0       0       0       0
 12668 ;;      Totals:         0       0       0       0       0       0       0       0       0
 12669 ;;Total ram usage:        0 bytes
 12670 ;; Hardware stack levels used:    1
 12671 ;; Hardware stack levels required when called:    1
 12672 ;; This function calls:
 12673 ;;		i2_ENABLE_A
 12674 ;;		i2_ENABLE_B
 12675 ;; This function is called by:
 12676 ;;		_INT_isr
 12677 ;; This function uses a non-reentrant model
 12678 ;;
 12679                           
 12680                           	psect	text76
 12681  003516                     __ptext76:
 12682                           	opt callstack 0
 12683  003516                     _PARO2out:
 12684                           	opt callstack 22
 12685  003516                     
 12686                           ;interrupcciones.c: 44:     ENABLE_A(1);
 12687  003516  0E01               	movlw	1
 12688  003518  EC49  F01A         	call	i2_ENABLE_A
 12689                           
 12690                           ;interrupcciones.c: 45:     ENABLE_B(1);
 12691  00351C  0E01               	movlw	1
 12692  00351E  EC3B  F01A         	call	i2_ENABLE_B
 12693  003522  0012               	return		;funcret
 12694  003524                     __end_of_PARO2out:
 12695                           	opt callstack 0
 12696                           
 12697 ;; *************** function _PARO2aden *****************
 12698 ;; Defined at:
 12699 ;;		line 38 in file "interrupcciones.c"
 12700 ;; Parameters:    Size  Location     Type
 12701 ;;		None
 12702 ;; Auto vars:     Size  Location     Type
 12703 ;;		None
 12704 ;; Return value:  Size  Location     Type
 12705 ;;                  1    wreg      void 
 12706 ;; Registers used:
 12707 ;;		wreg, fsr1l, fsr1h, fsr2l, fsr2h, status,2, status,0, cstack
 12708 ;; Tracked objects:
 12709 ;;		On entry : 0/0
 12710 ;;		On exit  : 0/0
 12711 ;;		Unchanged: 0/0
 12712 ;; Data sizes:     COMRAM   BANK0   BANK1   BANK2   BANK3   BANK4   BANK5   BANK6   BANK7
 12713 ;;      Params:         0       0       0       0       0       0       0       0       0
 12714 ;;      Locals:         0       0       0       0       0       0       0       0       0
 12715 ;;      Temps:          0       0       0       0       0       0       0       0       0
 12716 ;;      Totals:         0       0       0       0       0       0       0       0       0
 12717 ;;Total ram usage:        0 bytes
 12718 ;; Hardware stack levels used:    1
 12719 ;; Hardware stack levels required when called:    2
 12720 ;; This function calls:
 12721 ;;		_PARO2
 12722 ;;		i2_ENABLE_A
 12723 ;;		i2_ENABLE_B
 12724 ;; This function is called by:
 12725 ;;		_INT_isr
 12726 ;; This function uses a non-reentrant model
 12727 ;;
 12728                           
 12729                           	psect	text77
 12730  003504                     __ptext77:
 12731                           	opt callstack 0
 12732  003504                     _PARO2aden:
 12733                           	opt callstack 21
 12734  003504                     
 12735                           ;interrupcciones.c: 39:     PARO2();
 12736  003504  ECBC  F017         	call	_PARO2	;wreg free
 12737  003508                     
 12738                           ;interrupcciones.c: 40:     ENABLE_A(0);
 12739  003508  0E00               	movlw	0
 12740  00350A  EC49  F01A         	call	i2_ENABLE_A
 12741  00350E                     
 12742                           ;interrupcciones.c: 41:     ENABLE_B(0);
 12743  00350E  0E00               	movlw	0
 12744  003510  EC3B  F01A         	call	i2_ENABLE_B
 12745  003514  0012               	return		;funcret
 12746  003516                     __end_of_PARO2aden:
 12747                           	opt callstack 0
 12748                           
 12749 ;; *************** function i2_ENABLE_B *****************
 12750 ;; Defined at:
 12751 ;;		line 77 in file "../Proyectoa4550.X/GPIO.c"
 12752 ;; Parameters:    Size  Location     Type
 12753 ;;  X               1    wreg     unsigned char 
 12754 ;; Auto vars:     Size  Location     Type
 12755 ;;  X               1    0[COMRAM] unsigned char 
 12756 ;; Return value:  Size  Location     Type
 12757 ;;                  1    wreg      void 
 12758 ;; Registers used:
 12759 ;;		wreg, status,2, status,0
 12760 ;; Tracked objects:
 12761 ;;		On entry : 0/0
 12762 ;;		On exit  : 0/0
 12763 ;;		Unchanged: 0/0
 12764 ;; Data sizes:     COMRAM   BANK0   BANK1   BANK2   BANK3   BANK4   BANK5   BANK6   BANK7
 12765 ;;      Params:         0       0       0       0       0       0       0       0       0
 12766 ;;      Locals:         1       0       0       0       0       0       0       0       0
 12767 ;;      Temps:          0       0       0       0       0       0       0       0       0
 12768 ;;      Totals:         1       0       0       0       0       0       0       0       0
 12769 ;;Total ram usage:        1 bytes
 12770 ;; Hardware stack levels used:    1
 12771 ;; This function calls:
 12772 ;;		Nothing
 12773 ;; This function is called by:
 12774 ;;		_interrupcionX
 12775 ;;		_interrupcionY
 12776 ;;		_PARO2aden
 12777 ;;		_PARO2out
 12778 ;;		i2_motoresmov
 12779 ;;		i2_CONTADOR
 12780 ;; This function uses a non-reentrant model
 12781 ;;
 12782                           
 12783                           	psect	text78
 12784  003476                     __ptext78:
 12785                           	opt callstack 0
 12786  003476                     i2_ENABLE_B:
 12787                           	opt callstack 22
 12788                           
 12789                           ;incstack = 0
 12790                           ;i2ENABLE_B@X stored from wreg
 12791  003476  6E01               	movwf	i2ENABLE_B@X^0,c
 12792  003478                     
 12793                           ;../Proyectoa4550.X/GPIO.c: 78:     if(X==1) {
 12794  003478  0401               	decf	i2ENABLE_B@X^0,w,c
 12795  00347A  A4D8               	btfss	status,2,c
 12796  00347C  EF42  F01A         	goto	i2u443_41
 12797  003480  EF44  F01A         	goto	i2u443_40
 12798  003484                     i2u443_41:
 12799  003484  EF47  F01A         	goto	i2l774
 12800  003488                     i2u443_40:
 12801  003488                     
 12802                           ;../Proyectoa4550.X/GPIO.c: 79:         PORTDbits.RD2=0;
 12803  003488  9483               	bcf	131,2,c	;volatile
 12804                           
 12805                           ;../Proyectoa4550.X/GPIO.c: 80:     } else {
 12806  00348A  EF48  F01A         	goto	i2l776
 12807  00348E                     i2l774:
 12808                           
 12809                           ;../Proyectoa4550.X/GPIO.c: 81:         PORTDbits.RD2=1;
 12810  00348E  8483               	bsf	131,2,c	;volatile
 12811  003490                     i2l776:
 12812  003490  0012               	return		;funcret
 12813  003492                     __end_ofi2_ENABLE_B:
 12814                           	opt callstack 0
 12815                           
 12816 ;; *************** function i2_ENABLE_A *****************
 12817 ;; Defined at:
 12818 ;;		line 69 in file "../Proyectoa4550.X/GPIO.c"
 12819 ;; Parameters:    Size  Location     Type
 12820 ;;  X               1    wreg     unsigned char 
 12821 ;; Auto vars:     Size  Location     Type
 12822 ;;  X               1    0[COMRAM] unsigned char 
 12823 ;; Return value:  Size  Location     Type
 12824 ;;                  1    wreg      void 
 12825 ;; Registers used:
 12826 ;;		wreg, status,2, status,0
 12827 ;; Tracked objects:
 12828 ;;		On entry : 0/0
 12829 ;;		On exit  : 0/0
 12830 ;;		Unchanged: 0/0
 12831 ;; Data sizes:     COMRAM   BANK0   BANK1   BANK2   BANK3   BANK4   BANK5   BANK6   BANK7
 12832 ;;      Params:         0       0       0       0       0       0       0       0       0
 12833 ;;      Locals:         1       0       0       0       0       0       0       0       0
 12834 ;;      Temps:          0       0       0       0       0       0       0       0       0
 12835 ;;      Totals:         1       0       0       0       0       0       0       0       0
 12836 ;;Total ram usage:        1 bytes
 12837 ;; Hardware stack levels used:    1
 12838 ;; This function calls:
 12839 ;;		Nothing
 12840 ;; This function is called by:
 12841 ;;		_interrupcionX
 12842 ;;		_interrupcionY
 12843 ;;		_PARO2aden
 12844 ;;		_PARO2out
 12845 ;;		i2_motoresmov
 12846 ;;		i2_CONTADOR
 12847 ;; This function uses a non-reentrant model
 12848 ;;
 12849                           
 12850                           	psect	text79
 12851  003492                     __ptext79:
 12852                           	opt callstack 0
 12853  003492                     i2_ENABLE_A:
 12854                           	opt callstack 22
 12855                           
 12856                           ;incstack = 0
 12857                           ;i2ENABLE_A@X stored from wreg
 12858  003492  6E01               	movwf	i2ENABLE_A@X^0,c
 12859  003494                     
 12860                           ;../Proyectoa4550.X/GPIO.c: 70:     if(X==1) {
 12861  003494  0401               	decf	i2ENABLE_A@X^0,w,c
 12862  003496  A4D8               	btfss	status,2,c
 12863  003498  EF50  F01A         	goto	i2u442_41
 12864  00349C  EF52  F01A         	goto	i2u442_40
 12865  0034A0                     i2u442_41:
 12866  0034A0  EF55  F01A         	goto	i2l769
 12867  0034A4                     i2u442_40:
 12868  0034A4                     
 12869                           ;../Proyectoa4550.X/GPIO.c: 71:         PORTDbits.RD3=0;
 12870  0034A4  9683               	bcf	131,3,c	;volatile
 12871                           
 12872                           ;../Proyectoa4550.X/GPIO.c: 72:     } else {
 12873  0034A6  EF56  F01A         	goto	i2l771
 12874  0034AA                     i2l769:
 12875                           
 12876                           ;../Proyectoa4550.X/GPIO.c: 73:         PORTDbits.RD3=1;
 12877  0034AA  8683               	bsf	131,3,c	;volatile
 12878  0034AC                     i2l771:
 12879  0034AC  0012               	return		;funcret
 12880  0034AE                     __end_ofi2_ENABLE_A:
 12881                           	opt callstack 0
 12882                           
 12883 ;; *************** function _PARO2 *****************
 12884 ;; Defined at:
 12885 ;;		line 219 in file "../Proyectoa4550.X/Mensajes50.c"
 12886 ;; Parameters:    Size  Location     Type
 12887 ;;		None
 12888 ;; Auto vars:     Size  Location     Type
 12889 ;;  C               1   28[COMRAM] unsigned char 
 12890 ;;  F              27    1[COMRAM] unsigned char [27]
 12891 ;; Return value:  Size  Location     Type
 12892 ;;                  1    wreg      void 
 12893 ;; Registers used:
 12894 ;;		wreg, fsr1l, fsr1h, fsr2l, fsr2h, status,2, status,0, cstack
 12895 ;; Tracked objects:
 12896 ;;		On entry : 0/0
 12897 ;;		On exit  : 0/0
 12898 ;;		Unchanged: 0/0
 12899 ;; Data sizes:     COMRAM   BANK0   BANK1   BANK2   BANK3   BANK4   BANK5   BANK6   BANK7
 12900 ;;      Params:         0       0       0       0       0       0       0       0       0
 12901 ;;      Locals:        28       0       0       0       0       0       0       0       0
 12902 ;;      Temps:          0       0       0       0       0       0       0       0       0
 12903 ;;      Totals:        28       0       0       0       0       0       0       0       0
 12904 ;;Total ram usage:       28 bytes
 12905 ;; Hardware stack levels used:    1
 12906 ;; Hardware stack levels required when called:    1
 12907 ;; This function calls:
 12908 ;;		i2_UARTWrite
 12909 ;; This function is called by:
 12910 ;;		_PARO2aden
 12911 ;; This function uses a non-reentrant model
 12912 ;;
 12913                           
 12914                           	psect	text80
 12915  002F78                     __ptext80:
 12916                           	opt callstack 0
 12917  002F78                     _PARO2:
 12918                           	opt callstack 21
 12919  002F78                     
 12920                           ;../Proyectoa4550.X/Mensajes50.c: 220:     uint8_t F[]="BOTON DE PARO PRESIONADO\n\r";
 12921  002F78  EE21  F07E         	lfsr	2,PARO2@F3673
 12922  002F7C  EE10  F002         	lfsr	1,PARO2@F
 12923  002F80  0E1A               	movlw	26
 12924  002F82                     i2u484_41:
 12925  002F82  CFDB FFE3          	movff	plusw2,plusw1
 12926  002F86  06E8               	decf	wreg,f,c
 12927  002F88  E2FC               	bc	i2u484_41
 12928  002F8A                     
 12929                           ;../Proyectoa4550.X/Mensajes50.c: 221:     for(uint8_t C=0; C<(sizeof(F)); C++) {
 12930  002F8A  0E00               	movlw	0
 12931  002F8C  6E1D               	movwf	PARO2@C^0,c
 12932  002F8E                     i2l4571:
 12933                           
 12934                           ;../Proyectoa4550.X/Mensajes50.c: 222:             UARTWrite(F[C]);
 12935  002F8E  0E02               	movlw	low PARO2@F
 12936  002F90  241D               	addwf	PARO2@C^0,w,c
 12937  002F92  6ED9               	movwf	fsr2l,c
 12938  002F94  6ADA               	clrf	fsr2h,c
 12939  002F96  0E00               	movlw	high PARO2@F
 12940  002F98  22DA               	addwfc	fsr2h,f,c
 12941  002F9A  50DF               	movf	indf2,w,c
 12942  002F9C  EC6E  F01A         	call	i2_UARTWrite
 12943  002FA0                     
 12944                           ;../Proyectoa4550.X/Mensajes50.c: 223:     }
 12945  002FA0  2A1D               	incf	PARO2@C^0,f,c
 12946  002FA2  0E1A               	movlw	26
 12947  002FA4  641D               	cpfsgt	PARO2@C^0,c
 12948  002FA6  EFD7  F017         	goto	i2u485_41
 12949  002FAA  EFD9  F017         	goto	i2u485_40
 12950  002FAE                     i2u485_41:
 12951  002FAE  EFC7  F017         	goto	i2l4571
 12952  002FB2                     i2u485_40:
 12953  002FB2  0012               	return		;funcret
 12954  002FB4                     __end_of_PARO2:
 12955                           	opt callstack 0
 12956                           
 12957 ;; *************** function i2_UARTWrite *****************
 12958 ;; Defined at:
 12959 ;;		line 33 in file "../Proyectoa4550.X/UART50.c"
 12960 ;; Parameters:    Size  Location     Type
 12961 ;;  txData          1    wreg     unsigned char 
 12962 ;; Auto vars:     Size  Location     Type
 12963 ;;  txData          1    0[COMRAM] unsigned char 
 12964 ;; Return value:  Size  Location     Type
 12965 ;;                  1    wreg      void 
 12966 ;; Registers used:
 12967 ;;		wreg
 12968 ;; Tracked objects:
 12969 ;;		On entry : 0/0
 12970 ;;		On exit  : 0/0
 12971 ;;		Unchanged: 0/0
 12972 ;; Data sizes:     COMRAM   BANK0   BANK1   BANK2   BANK3   BANK4   BANK5   BANK6   BANK7
 12973 ;;      Params:         0       0       0       0       0       0       0       0       0
 12974 ;;      Locals:         1       0       0       0       0       0       0       0       0
 12975 ;;      Temps:          0       0       0       0       0       0       0       0       0
 12976 ;;      Totals:         1       0       0       0       0       0       0       0       0
 12977 ;;Total ram usage:        1 bytes
 12978 ;; Hardware stack levels used:    1
 12979 ;; This function calls:
 12980 ;;		Nothing
 12981 ;; This function is called by:
 12982 ;;		_LIMITEX
 12983 ;;		_LIMITEY
 12984 ;;		_PARO2
 12985 ;; This function uses a non-reentrant model
 12986 ;;
 12987                           
 12988                           	psect	text81
 12989  0034DC                     __ptext81:
 12990                           	opt callstack 0
 12991  0034DC                     i2_UARTWrite:
 12992                           	opt callstack 21
 12993                           
 12994                           ;incstack = 0
 12995                           ;i2UARTWrite@txData stored from wreg
 12996  0034DC  6E01               	movwf	i2UARTWrite@txData^0,c
 12997  0034DE                     i2l319:
 12998                           
 12999                           ;../Proyectoa4550.X/UART50.c: 34:     while (!TXSTAbits.TRMT) {
 13000  0034DE  A2AC               	btfss	172,1,c	;volatile
 13001  0034E0  EF74  F01A         	goto	i2u441_41
 13002  0034E4  EF76  F01A         	goto	i2u441_40
 13003  0034E8                     i2u441_41:
 13004  0034E8  EF6F  F01A         	goto	i2l319
 13005  0034EC                     i2u441_40:
 13006  0034EC                     
 13007                           ;../Proyectoa4550.X/UART50.c: 36:     TXREG = txData;
 13008  0034EC  C001  FFAD         	movff	i2UARTWrite@txData,4013	;volatile
 13009  0034F0  0012               	return		;funcret
 13010  0034F2                     __end_ofi2_UARTWrite:
 13011                           	opt callstack 0
 13012  0000                     
 13013                           	psect	rparam
 13014  0000                     
 13015                           	psect	temp
 13016  00005F                     btemp:
 13017                           	opt callstack 0
 13018  00005F                     	ds	1
 13019  0000                     int$flags	set	btemp
 13020  0000                     wtemp8	set	btemp+1
 13021  0000                     ttemp5	set	btemp+1
 13022  0000                     ttemp6	set	btemp+4
 13023  0000                     ttemp7	set	btemp+8
 13024                           tosu	equ	0xFFF
 13025                           tosh	equ	0xFFE
 13026                           tosl	equ	0xFFD
 13027                           stkptr	equ	0xFFC
 13028                           pclatu	equ	0xFFB
 13029                           pclath	equ	0xFFA
 13030                           pcl	equ	0xFF9
 13031                           tblptru	equ	0xFF8
 13032                           tblptrh	equ	0xFF7
 13033                           tblptrl	equ	0xFF6
 13034                           tablat	equ	0xFF5
 13035                           prodh	equ	0xFF4
 13036                           prodl	equ	0xFF3
 13037                           indf0	equ	0xFEF
 13038                           postinc0	equ	0xFEE
 13039                           postdec0	equ	0xFED
 13040                           preinc0	equ	0xFEC
 13041                           plusw0	equ	0xFEB
 13042                           fsr0h	equ	0xFEA
 13043                           fsr0l	equ	0xFE9
 13044                           wreg	equ	0xFE8
 13045                           indf1	equ	0xFE7
 13046                           postinc1	equ	0xFE6
 13047                           postdec1	equ	0xFE5
 13048                           preinc1	equ	0xFE4
 13049                           plusw1	equ	0xFE3
 13050                           fsr1h	equ	0xFE2
 13051                           fsr1l	equ	0xFE1
 13052                           bsr	equ	0xFE0
 13053                           indf2	equ	0xFDF
 13054                           postinc2	equ	0xFDE
 13055                           postdec2	equ	0xFDD
 13056                           preinc2	equ	0xFDC
 13057                           plusw2	equ	0xFDB
 13058                           fsr2h	equ	0xFDA
 13059                           fsr2l	equ	0xFD9
 13060                           status	equ	0xFD8


Data Sizes:
    Strings     0
    Constant    0
    Data        349
    BSS         20
    Persistent  0
    Stack       0

Auto Spaces:
    Space          Size  Autos    Used
    COMRAM           94     67      94
    BANK0           160     82     148
    BANK1           256      0     218
    BANK2           256      0      58
    BANK3           256      0       0
    BANK4           256      0       0
    BANK5           256      0       0
    BANK6           256      0       0
    BANK7           256      0       0

Pointer List with Targets:

    SETPOINTBUSCAR@dato	PTR unsigned char  size(2) Largest target is 4
		 -> EJECUTARINS@INSTRNAME(BANK0[4]), ESCRIBIRINSTRUCCION@dato(BANK0[4]), MOVASETPOINT@dato(BANK0[4]), EditseT@dato(BANK0[4]), 

    GuardarsetN@dato	PTR unsigned char  size(2) Largest target is 4
		 -> ESCRIBIRINSTRUCCION@dato(BANK0[4]), EditseT@dato(BANK0[4]), 

    PYN	PTR unsigned short  size(2) Largest target is 2
		 -> Yvalorn(BANK0[2]), 

    PXN	PTR unsigned short  size(2) Largest target is 2
		 -> Xvalorn(BANK0[2]), 

    PY	PTR unsigned short  size(2) Largest target is 2
		 -> YvalorR(BANK0[2]), 

    PX	PTR unsigned short  size(2) Largest target is 2
		 -> XvalorR(BANK0[2]), 

    PB	PTR unsigned char  size(2) Largest target is 1
		 -> i2CONTADOR@B(COMRAM[1]), CONTADOR@B(BANK0[1]), NULL(NULL[0]), 

    PA	PTR unsigned char  size(2) Largest target is 1
		 -> i2CONTADOR@A(COMRAM[1]), CONTADOR@A(BANK0[1]), NULL(NULL[0]), 


Critical Paths under _main in COMRAM

    None.

Critical Paths under _INT_isr in COMRAM

    _INT_isr->i2_motoresmov
    i2_motoresmov->i2_Conversion
    i2_Conversion->i2___flge
    i2___xxtofl->i2___wmul
    i2___flsub->i2___xxtofl
    i2___flge->i2___flsub
    i2_CONTADOR->i2_PWMDutyCycle1
    i2_CONTADOR->i2_PWMDutyCycle2
    _interrupcionY->_LIMITEY
    _LIMITEY->i2_UARTWrite
    _interrupcionX->_LIMITEX
    _LIMITEX->i2_UARTWrite
    _PARO2out->i2_ENABLE_A
    _PARO2out->i2_ENABLE_B
    _PARO2aden->_PARO2
    _PARO2->i2_UARTWrite

Critical Paths under _main in BANK0

    _main->_PREEJECUTAR
    _imprimirSet->___lwdiv
    _imprimirINS->_IMP_ACCION
    _IMP_ACCION->_UARTWrite
    _Tardanza->_UARTWrite
    _PREEJECUTAR->_EJECUTARINS
    _PREGUNTA2->_UARTWrite
    _EJECUTARINS->_motoresmov
    _OCUPADO->_UARTWrite
    _NOcomando->_UARTWrite
    _Mensaje_comando_completado->_UARTWrite
    _Menimp->_UARTWrite
    _MOVASETPOINT->_motoresmov
    _motoresmov->_Conversion
    _Conversion->___flge
    ___xxtofl->___wmul
    ___flsub->___xxtofl
    ___flge->___flsub
    _CONTADOR->_PWMDutyCycle1
    _CONTADOR->_PWMDutyCycle2
    _ExtraerDato->_EEPROM_R
    _EditseT->_SETPOINEXIST
    _SETPOINEXIST->_UARTWrite
    _Obt->_UARTRead
    _NOcoordenada->_UARTWrite
    _GuardarsetY->_EEPROM_W
    _GuardarsetX->_EEPROM_W
    _CREARINS->_PREGUNTA
    _PREGUNTA->_UARTWrite
    _INSTRUCCION->_NOHAYESPACIO
    _NOHAYESPACIO->_UARTWrite
    _MENUINS->_UARTWrite
    _ESCRIBIRINSTRUCCION->_SETNOEX
    _UARTRead->_PROBLEMA
    _SETPOINTBUSCAR->_EEPROM_R
    _SETNOEX->_UARTWrite
    _GuardarsetN->_EEPROM_W
    _BORRARINSTRUCCION->_EEPROM_W
    _COORReal->___lwdiv
    ___lwdiv->___lwmod
    _CHECK->_EEPROM_W

Critical Paths under _INT_isr in BANK0

    None.

Critical Paths under _main in BANK1

    None.

Critical Paths under _INT_isr in BANK1

    None.

Critical Paths under _main in BANK2

    None.

Critical Paths under _INT_isr in BANK2

    None.

Critical Paths under _main in BANK3

    None.

Critical Paths under _INT_isr in BANK3

    None.

Critical Paths under _main in BANK4

    None.

Critical Paths under _INT_isr in BANK4

    None.

Critical Paths under _main in BANK5

    None.

Critical Paths under _INT_isr in BANK5

    None.

Critical Paths under _main in BANK6

    None.

Critical Paths under _INT_isr in BANK6

    None.

Critical Paths under _main in BANK7

    None.

Critical Paths under _INT_isr in BANK7

    None.

Call Graph Tables:

 ---------------------------------------------------------------------------------
 (Depth) Function   	        Calls       Base Space   Used Autos Params    Refs
 ---------------------------------------------------------------------------------
 (0) _main                                                 0     0      0   48063
                             _Accion
                              _CHECK
                           _COORReal
                           _CREARINS
                            _EditseT
                        _ExtraerDato
                        _GuardarsetX
                        _GuardarsetY
                       _MOVASETPOINT
                             _Menimp
         _Mensaje_comando_completado
                          _NOcomando
                       _NOcoordenada
                            _OCUPADO
                                _Obt
                        _PREEJECUTAR
                           _PWMconfi
                           _Tardanza
                           _UARTRead
                          _UARTconfi
                        _imprimirINS
                        _imprimirSet
                         _inter_init
                         _motoresmov
 ---------------------------------------------------------------------------------
 (1) _inter_init                                           0     0      0       0
 ---------------------------------------------------------------------------------
 (1) _imprimirSet                                         28    28      0    4304
                                             12 BANK0     28    28      0
                           _EEPROM_R
                          _UARTWrite
                            ___lwdiv
                            ___lwmod
 ---------------------------------------------------------------------------------
 (1) _imprimirINS                                          4     4      0     431
                                             11 BANK0      4     4      0
                           _EEPROM_R
                         _IMP_ACCION
                          _UARTWrite
 ---------------------------------------------------------------------------------
 (2) _IMP_ACCION                                          10    10      0     114
                                              1 BANK0     10    10      0
                          _UARTWrite
 ---------------------------------------------------------------------------------
 (1) _UARTconfi                                            0     0      0       0
 ---------------------------------------------------------------------------------
 (1) _Tardanza                                             4     4      0     114
                                              1 BANK0      4     4      0
                          _UARTWrite
 ---------------------------------------------------------------------------------
 (1) _PWMconfi                                             0     0      0       0
 ---------------------------------------------------------------------------------
 (1) _PREEJECUTAR                                          6     2      4    9483
                                             76 BANK0      6     2      4
                        _EJECUTARINS
                          _PREGUNTA2
                           _UARTRead
 ---------------------------------------------------------------------------------
 (2) _PREGUNTA2                                           59    59      0     114
                                              1 BANK0     59    59      0
                          _UARTWrite
 ---------------------------------------------------------------------------------
 (2) _EJECUTARINS                                         16    12      4    9029
                                             60 BANK0     16    12      4
                             _Accion
                           _EEPROM_R
                        _ExtraerDato
                            _SETNOEX
                     _SETPOINTBUSCAR
                         _motoresmov
 ---------------------------------------------------------------------------------
 (3) _Accion                                               2     2      0       0
                                              0 BANK0      2     2      0
 ---------------------------------------------------------------------------------
 (1) _OCUPADO                                              3     3      0     114
                                              1 BANK0      3     3      0
                          _UARTWrite
 ---------------------------------------------------------------------------------
 (1) _NOcomando                                            4     4      0     114
                                              1 BANK0      4     4      0
                          _UARTWrite
 ---------------------------------------------------------------------------------
 (1) _Mensaje_comando_completado                           3     3      0     114
                                              1 BANK0      3     3      0
                          _UARTWrite
 ---------------------------------------------------------------------------------
 (1) _Menimp                                               5     5      0     137
                                              1 BANK0      5     5      0
                          _UARTWrite
 ---------------------------------------------------------------------------------
 (1) _MOVASETPOINT                                        15    11      4    8832
                                             60 BANK0     15    11      4
                        _ExtraerDato
                            _SETNOEX
                     _SETPOINTBUSCAR
                           _UARTRead
                          _UARTWrite
                         _motoresmov
 ---------------------------------------------------------------------------------
 (1) _motoresmov                                           8     4      4    7252
                                             52 BANK0      8     4      4
                           _CONTADOR
                         _Conversion
                              _DIR_A
                              _DIR_B
                           _ENABLE_A
                           _ENABLE_B
 ---------------------------------------------------------------------------------
 (2) _DIR_B                                                1     1      0      22
                                              0 BANK0      1     1      0
 ---------------------------------------------------------------------------------
 (2) _DIR_A                                                1     1      0      22
                                              0 BANK0      1     1      0
 ---------------------------------------------------------------------------------
 (2) _Conversion                                          12    10      2    4506
                                             40 BANK0     12    10      2
                             ___flge
                            ___flsub
                             ___wmul
                           ___xxtofl
                                _abs
 ---------------------------------------------------------------------------------
 (3) ___xxtofl                                            14    10      4     474
                                              6 BANK0     14    10      4
                             ___wmul (ARG)
 ---------------------------------------------------------------------------------
 (3) ___wmul                                               6     2      4     463
                                              0 BANK0      6     2      4
 ---------------------------------------------------------------------------------
 (3) ___flsub                                              8     0      8    2585
                                             20 BANK0      8     0      8
                            ___fladd
                           ___xxtofl (ARG)
 ---------------------------------------------------------------------------------
 (4) ___fladd                                             16     8      8    2262
                                              0 BANK0     16     8      8
 ---------------------------------------------------------------------------------
 (3) ___flge                                              12     4      8     334
                                             28 BANK0     12     4      8
                            ___flsub (ARG)
                           ___xxtofl (ARG)
 ---------------------------------------------------------------------------------
 (2) _CONTADOR                                            12     8      4     822
                                              5 BANK0     12     8      4
                           _ENABLE_A
                           _ENABLE_B
                      _PWMDutyCycle1
                      _PWMDutyCycle2
                                _abs
 ---------------------------------------------------------------------------------
 (3) _abs                                                  4     2      2     294
                                              0 BANK0      4     2      2
 ---------------------------------------------------------------------------------
 (3) _PWMDutyCycle2                                        5     5      0      45
                                              0 BANK0      5     5      0
 ---------------------------------------------------------------------------------
 (3) _PWMDutyCycle1                                        5     5      0      45
                                              0 BANK0      5     5      0
 ---------------------------------------------------------------------------------
 (2) _ENABLE_B                                             1     1      0      22
                                              0 BANK0      1     1      0
 ---------------------------------------------------------------------------------
 (2) _ENABLE_A                                             1     1      0      22
                                              0 BANK0      1     1      0
 ---------------------------------------------------------------------------------
 (3) _ExtraerDato                                          9     7      2     135
                                              1 BANK0      9     7      2
                           _EEPROM_R
 ---------------------------------------------------------------------------------
 (1) _EditseT                                             14    14      0    5328
                                             29 BANK0     14    14      0
                        _GuardarsetN
                        _GuardarsetX
                        _GuardarsetY
                       _NOcoordenada
                                _Obt
                            _SETNOEX
                       _SETPOINEXIST
                     _SETPOINTBUSCAR
                           _UARTRead
                          _UARTWrite
 ---------------------------------------------------------------------------------
 (2) _SETPOINEXIST                                        28    28      0     114
                                              1 BANK0     28    28      0
                          _UARTWrite
 ---------------------------------------------------------------------------------
 (1) _Obt                                                 12    10      2     650
                                              6 BANK0     12    10      2
                           _UARTRead
                          _UARTWrite
 ---------------------------------------------------------------------------------
 (1) _NOcoordenada                                         4     4      0     114
                                              1 BANK0      4     4      0
                          _UARTWrite
 ---------------------------------------------------------------------------------
 (1) _GuardarsetY                                          5     3      2     938
                                              2 BANK0      5     3      2
                           _EEPROM_W
 ---------------------------------------------------------------------------------
 (1) _GuardarsetX                                          5     3      2     938
                                              2 BANK0      5     3      2
                           _EEPROM_W
 ---------------------------------------------------------------------------------
 (1) _CREARINS                                             1     1      0    4254
                                             57 BANK0      1     1      0
                  _BORRARINSTRUCCION
                        _INSTRUCCION
                           _PREGUNTA
                           _UARTRead
 ---------------------------------------------------------------------------------
 (2) _PREGUNTA                                            56    56      0     114
                                              1 BANK0     56    56      0
                          _UARTWrite
 ---------------------------------------------------------------------------------
 (2) _INSTRUCCION                                          2     2      0    3300
                                             41 BANK0      2     2      0
                           _EEPROM_W
                _ESCRIBIRINSTRUCCION
                            _MENUINS
                       _NOHAYESPACIO
                           _UARTRead
 ---------------------------------------------------------------------------------
 (3) _NOHAYESPACIO                                        40    40      0     114
                                              1 BANK0     40    40      0
                          _UARTWrite
 ---------------------------------------------------------------------------------
 (3) _MENUINS                                             33    33      0     114
                                              1 BANK0     33    33      0
                          _UARTWrite
 ---------------------------------------------------------------------------------
 (3) _ESCRIBIRINSTRUCCION                                  8     8      0    2187
                                             26 BANK0      8     8      0
                        _GuardarsetN
                            _SETNOEX
                     _SETPOINTBUSCAR
                           _UARTRead
                          _UARTWrite
 ---------------------------------------------------------------------------------
 (1) _UARTRead                                             5     5      0      52
                                              1 BANK0      5     5      0
                           _PROBLEMA
 ---------------------------------------------------------------------------------
 (2) _PROBLEMA                                             1     1      0       4
                                              0 BANK0      1     1      0
 ---------------------------------------------------------------------------------
 (3) _SETPOINTBUSCAR                                       6     4      2     739
                                              1 BANK0      6     4      2
                           _EEPROM_R
 ---------------------------------------------------------------------------------
 (3) _SETNOEX                                             25    25      0     114
                                              1 BANK0     25    25      0
                          _UARTWrite
 ---------------------------------------------------------------------------------
 (2) _GuardarsetN                                          4     2      2     938
                                              2 BANK0      4     2      2
                           _EEPROM_W
 ---------------------------------------------------------------------------------
 (2) _BORRARINSTRUCCION                                    1     1      0     720
                                              2 BANK0      1     1      0
                           _EEPROM_W
 ---------------------------------------------------------------------------------
 (1) _COORReal                                            20    16      4    3972
                                             12 BANK0     20    16      4
                          _UARTWrite
                            ___lwdiv
                            ___lwmod
 ---------------------------------------------------------------------------------
 (2) ___lwmod                                              5     1      4    1983
                                              0 BANK0      5     1      4
 ---------------------------------------------------------------------------------
 (2) ___lwdiv                                              7     3      4    1378
                                              5 BANK0      7     3      4
                            ___lwmod (ARG)
 ---------------------------------------------------------------------------------
 (2) _UARTWrite                                            1     1      0      22
                                              0 BANK0      1     1      0
 ---------------------------------------------------------------------------------
 (1) _CHECK                                                2     2      0     787
                                              2 BANK0      2     2      0
                           _EEPROM_R
                           _EEPROM_W
 ---------------------------------------------------------------------------------
 (2) _EEPROM_W                                             2     1      1     652
                                              0 BANK0      2     1      1
 ---------------------------------------------------------------------------------
 (2) _EEPROM_R                                             1     1      0      22
                                              0 BANK0      1     1      0
 ---------------------------------------------------------------------------------
 Estimated maximum stack depth 4
 ---------------------------------------------------------------------------------
 (Depth) Function   	        Calls       Base Space   Used Autos Params    Refs
 ---------------------------------------------------------------------------------
 (7) _INT_isr                                              7     7      0    5134
                                             60 COMRAM     7     7      0
                          _PARO2aden
                           _PARO2out
                      _interrupcionX
                      _interrupcionY
                       i2_motoresmov
 ---------------------------------------------------------------------------------
 (8) i2_motoresmov                                         8     4      4    4436
                                             52 COMRAM     8     4      4
                         i2_CONTADOR
                       i2_Conversion
                            i2_DIR_A
                            i2_DIR_B
                         i2_ENABLE_A
                         i2_ENABLE_B
 ---------------------------------------------------------------------------------
 (9) i2_DIR_B                                              1     1      0      22
                                              0 COMRAM     1     1      0
 ---------------------------------------------------------------------------------
 (9) i2_DIR_A                                              1     1      0      22
                                              0 COMRAM     1     1      0
 ---------------------------------------------------------------------------------
 (9) i2_Conversion                                        12    10      2    3404
                                             40 COMRAM    12    10      2
                           i2___flge
                          i2___flsub
                           i2___wmul
                         i2___xxtofl
                              i2_abs
 ---------------------------------------------------------------------------------
 (10) i2___xxtofl                                         14    10      4     374
                                              6 COMRAM    14    10      4
                           i2___wmul (ARG)
 ---------------------------------------------------------------------------------
 (10) i2___wmul                                            6     2      4     263
                                              0 COMRAM     6     2      4
 ---------------------------------------------------------------------------------
 (10) i2___flsub                                           8     0      8    2133
                                             20 COMRAM     8     0      8
                          i2___fladd
                         i2___xxtofl (ARG)
 ---------------------------------------------------------------------------------
 (11) i2___fladd                                          16     8      8    2036
                                              0 COMRAM    16     8      8
 ---------------------------------------------------------------------------------
 (10) i2___flge                                           12     4      8     234
                                             28 COMRAM    12     4      8
                          i2___flsub (ARG)
                         i2___xxtofl (ARG)
 ---------------------------------------------------------------------------------
 (9) i2_CONTADOR                                          12     8      4     572
                                              5 COMRAM    12     8      4
                         i2_ENABLE_A
                         i2_ENABLE_B
                    i2_PWMDutyCycle1
                    i2_PWMDutyCycle2
                              i2_abs
 ---------------------------------------------------------------------------------
 (10) i2_abs                                               4     2      2     144
                                              0 COMRAM     4     2      2
 ---------------------------------------------------------------------------------
 (8) _interrupcionY                                        0     0      0     248
                            _LIMITEY
                         i2_ENABLE_A
                         i2_ENABLE_B
                    i2_PWMDutyCycle1
                    i2_PWMDutyCycle2
 ---------------------------------------------------------------------------------
 (9) _LIMITEY                                             15    15      0     114
                                              1 COMRAM    15    15      0
                        i2_UARTWrite
 ---------------------------------------------------------------------------------
 (8) _interrupcionX                                        0     0      0     248
                            _LIMITEX
                         i2_ENABLE_A
                         i2_ENABLE_B
                    i2_PWMDutyCycle1
                    i2_PWMDutyCycle2
 ---------------------------------------------------------------------------------
 (10) i2_PWMDutyCycle2                                     5     5      0      45
                                              0 COMRAM     5     5      0
 ---------------------------------------------------------------------------------
 (10) i2_PWMDutyCycle1                                     5     5      0      45
                                              0 COMRAM     5     5      0
 ---------------------------------------------------------------------------------
 (9) _LIMITEX                                             15    15      0     114
                                              1 COMRAM    15    15      0
                        i2_UARTWrite
 ---------------------------------------------------------------------------------
 (8) _PARO2out                                             0     0      0      44
                         i2_ENABLE_A
                         i2_ENABLE_B
 ---------------------------------------------------------------------------------
 (8) _PARO2aden                                            0     0      0     158
                              _PARO2
                         i2_ENABLE_A
                         i2_ENABLE_B
 ---------------------------------------------------------------------------------
 (9) i2_ENABLE_B                                           1     1      0      22
                                              0 COMRAM     1     1      0
 ---------------------------------------------------------------------------------
 (9) i2_ENABLE_A                                           1     1      0      22
                                              0 COMRAM     1     1      0
 ---------------------------------------------------------------------------------
 (9) _PARO2                                               28    28      0     114
                                              1 COMRAM    28    28      0
                        i2_UARTWrite
 ---------------------------------------------------------------------------------
 (10) i2_UARTWrite                                         1     1      0      22
                                              0 COMRAM     1     1      0
 ---------------------------------------------------------------------------------
 Estimated maximum stack depth 11
 ---------------------------------------------------------------------------------

 Call Graph Graphs:

 _main (ROOT)
   _Accion
   _CHECK
     _EEPROM_R
     _EEPROM_W
   _COORReal
     _UARTWrite
     ___lwdiv
       ___lwmod (ARG)
     ___lwmod
   _CREARINS
     _BORRARINSTRUCCION
       _EEPROM_W
     _INSTRUCCION
       _EEPROM_W
       _ESCRIBIRINSTRUCCION
         _GuardarsetN
           _EEPROM_W
         _SETNOEX
           _UARTWrite
         _SETPOINTBUSCAR
           _EEPROM_R
         _UARTRead
           _PROBLEMA
         _UARTWrite
       _MENUINS
         _UARTWrite
       _NOHAYESPACIO
         _UARTWrite
       _UARTRead
         _PROBLEMA
     _PREGUNTA
       _UARTWrite
     _UARTRead
       _PROBLEMA
   _EditseT
     _GuardarsetN
       _EEPROM_W
     _GuardarsetX
       _EEPROM_W
     _GuardarsetY
       _EEPROM_W
     _NOcoordenada
       _UARTWrite
     _Obt
       _UARTRead
         _PROBLEMA
       _UARTWrite
     _SETNOEX
       _UARTWrite
     _SETPOINEXIST
       _UARTWrite
     _SETPOINTBUSCAR
       _EEPROM_R
     _UARTRead
       _PROBLEMA
     _UARTWrite
   _ExtraerDato
     _EEPROM_R
   _GuardarsetX
     _EEPROM_W
   _GuardarsetY
     _EEPROM_W
   _MOVASETPOINT
     _ExtraerDato
       _EEPROM_R
     _SETNOEX
       _UARTWrite
     _SETPOINTBUSCAR
       _EEPROM_R
     _UARTRead
       _PROBLEMA
     _UARTWrite
     _motoresmov
       _CONTADOR
         _ENABLE_A
         _ENABLE_B
         _PWMDutyCycle1
         _PWMDutyCycle2
         _abs
       _Conversion
         ___flge
           ___flsub (ARG)
             ___fladd
             ___xxtofl (ARG)
               ___wmul (ARG)
           ___xxtofl (ARG)
             ___wmul (ARG)
         ___flsub
           ___fladd
           ___xxtofl (ARG)
             ___wmul (ARG)
         ___wmul
         ___xxtofl
           ___wmul (ARG)
         _abs
       _DIR_A
       _DIR_B
       _ENABLE_A
       _ENABLE_B
   _Menimp
     _UARTWrite
   _Mensaje_comando_completado
     _UARTWrite
   _NOcomando
     _UARTWrite
   _NOcoordenada
     _UARTWrite
   _OCUPADO
     _UARTWrite
   _Obt
     _UARTRead
       _PROBLEMA
     _UARTWrite
   _PREEJECUTAR
     _EJECUTARINS
       _Accion
       _EEPROM_R
       _ExtraerDato
         _EEPROM_R
       _SETNOEX
         _UARTWrite
       _SETPOINTBUSCAR
         _EEPROM_R
       _motoresmov
         _CONTADOR
           _ENABLE_A
           _ENABLE_B
           _PWMDutyCycle1
           _PWMDutyCycle2
           _abs
         _Conversion
           ___flge
             ___flsub (ARG)
               ___fladd
               ___xxtofl (ARG)
                 ___wmul (ARG)
             ___xxtofl (ARG)
               ___wmul (ARG)
           ___flsub
             ___fladd
             ___xxtofl (ARG)
               ___wmul (ARG)
           ___wmul
           ___xxtofl
             ___wmul (ARG)
           _abs
         _DIR_A
         _DIR_B
         _ENABLE_A
         _ENABLE_B
     _PREGUNTA2
       _UARTWrite
     _UARTRead
       _PROBLEMA
   _PWMconfi
   _Tardanza
     _UARTWrite
   _UARTRead
     _PROBLEMA
   _UARTconfi
   _imprimirINS
     _EEPROM_R
     _IMP_ACCION
       _UARTWrite
     _UARTWrite
   _imprimirSet
     _EEPROM_R
     _UARTWrite
     ___lwdiv
       ___lwmod (ARG)
     ___lwmod
   _inter_init
   _motoresmov
     _CONTADOR
       _ENABLE_A
       _ENABLE_B
       _PWMDutyCycle1
       _PWMDutyCycle2
       _abs
     _Conversion
       ___flge
         ___flsub (ARG)
           ___fladd
           ___xxtofl (ARG)
             ___wmul (ARG)
         ___xxtofl (ARG)
           ___wmul (ARG)
       ___flsub
         ___fladd
         ___xxtofl (ARG)
           ___wmul (ARG)
       ___wmul
       ___xxtofl
         ___wmul (ARG)
       _abs
     _DIR_A
     _DIR_B
     _ENABLE_A
     _ENABLE_B

 _INT_isr (ROOT)
   _PARO2aden
     _PARO2
       i2_UARTWrite
     i2_ENABLE_A
     i2_ENABLE_B
   _PARO2out
     i2_ENABLE_A
     i2_ENABLE_B
   _interrupcionX
     _LIMITEX
       i2_UARTWrite
     i2_ENABLE_A
     i2_ENABLE_B
     i2_PWMDutyCycle1
     i2_PWMDutyCycle2
   _interrupcionY
     _LIMITEY
       i2_UARTWrite
     i2_ENABLE_A
     i2_ENABLE_B
     i2_PWMDutyCycle1
     i2_PWMDutyCycle2
   i2_motoresmov
     i2_CONTADOR
       i2_ENABLE_A
       i2_ENABLE_B
       i2_PWMDutyCycle1
       i2_PWMDutyCycle2
       i2_abs
     i2_Conversion
       i2___flge
         i2___flsub (ARG)
           i2___fladd
           i2___xxtofl (ARG)
             i2___wmul (ARG)
         i2___xxtofl (ARG)
           i2___wmul (ARG)
       i2___flsub
         i2___fladd
         i2___xxtofl (ARG)
           i2___wmul (ARG)
       i2___wmul
       i2___xxtofl
         i2___wmul (ARG)
       i2_abs
     i2_DIR_A
     i2_DIR_B
     i2_ENABLE_A
     i2_ENABLE_B

 Address spaces:
Name               Size   Autos  Total    Cost      Usage
BIGRAM             7FF      0       0      21        0.0%
EEDATA             100      0       0       0        0.0%
BITBANK7           100      0       0      18        0.0%
BANK7              100      0       0      19        0.0%
BITBANK6           100      0       0      16        0.0%
BANK6              100      0       0      17        0.0%
BITBANK5           100      0       0      14        0.0%
BANK5              100      0       0      15        0.0%
BITBANK4           100      0       0      12        0.0%
BANK4              100      0       0      13        0.0%
BITBANK3           100      0       0      10        0.0%
BANK3              100      0       0      11        0.0%
BITBANK2           100      0       0       8        0.0%
BANK2              100      0      3A       9       22.7%
BITBANK1           100      0       0       6        0.0%
BANK1              100      0      DA       7       85.2%
BITBANK0            A0      0       0       4        0.0%
BANK0               A0     52      94       5       92.5%
BITCOMRAM           5E      0       0       0        0.0%
COMRAM              5E     43      5E       1      100.0%
BITSFR               0      0       0     200        0.0%
SFR                  0      0       0     200        0.0%
STACK                0      0       0       2        0.0%
NULL                 0      0       0       0        0.0%
ABS                  0      0     206      20        0.0%
DATA                 0      0     206       3        0.0%
CODE                 0      0       0       0        0.0%


Microchip Technology PIC18 Macro Assembler V2.10 build 88905656 
Symbol Table                                                                                   Fri Dec 06 16:16:24 2019

                        COORReal@Pos 0070                         COORReal@Send 007C  
                                  _E 00EA                __end_of_interrupcionX 31AC  
              __end_of_interrupcionY 3176                                   l33 2466  
                                 l37 1EA8                                   l45 2AE8  
                                 l38 1EC0                                   l39 1EC8  
                                 l84 2BFE                                   l77 1740  
                                 l96 1098                                   l89 1088  
                                 _PA 005C                                   _PB 005A  
                                 _PX 0058                                   _PY 0056  
                        __CFG_BOR$ON 000000                  ___wmul@multiplicand 0062  
                        __CFG_BORV$3 000000                         __CFG_CP0$OFF 000000  
                       __CFG_CP1$OFF 000000                         __CFG_CP2$OFF 000000  
                       __CFG_CP3$OFF 000000                     MOVASETPOINT@dato 00A0  
                                l110 2D42                                  l103 2E42  
                                l200 309A                                  l131 2E02  
                                l124 2DC2                                  l117 2EFE  
                                l221 3026                                  l214 19F8  
                                l207 3108                                  l145 2CC2  
                                l322 34C4                                  l138 2D82  
                                l315 3438                                  l332 2C6E  
                                l316 343C                                  l333 2C50  
                                l165 2D02                                  l262 323E  
                                l270 1AA2                                  l158 26A6  
                                l319 34B2                                  l336 2C82  
                                l328 2A44                                  l256 339E  
                                l329 2A3A                                  l193 3060  
                                l266 1A3C                                  l259 326A  
                                l267 1A66                                  l276 1B3E  
                                l460 012A                                  l621 3308  
                                l710 18A2                                  l615 30D2  
                                l711 18A4                                  l463 0198  
                                l720 2A9C                                  l562 31CC  
                                l618 332E                                  l564 31DA  
                                l565 31DE                                  l661 2E82  
                                l655 22C0                                  l639 1266  
                                l671 313E                                  l568 3502  
                                l761 33BE                                  l729 297A  
                                l682 27F6                                  l771 341E  
                                l676 3354                                  l764 33DC  
                                l668 2530                                  l756 2BBA  
                                l694 2752                                  l774 33FC  
                                l766 33DE                                  l759 33BC  
                                l776 33FE                                  l689 273E  
                                l769 341C                                  l785 3292  
                       __CFG_CPB$OFF 000000                                  _PR2 000FCB  
                       __CFG_CPD$OFF 000000                     MOVASETPOINT@send 00A8  
                                _PXN 0054                                  _PYN 0052  
                        i2___fladd@a 0005                          i2___fladd@b 0001  
                                _Obt 15D4                                  _abs 2C00  
                        ?_IMP_ACCION 0001                          Conversion@B 0090  
                         i2___xxtofl 1420                                  wreg 000FE8  
                        i2___flsub@a 0019                          i2___flsub@b 0015  
                        ?i2_ENABLE_A 0001                          ?i2_ENABLE_B 0001  
                     i2CONTADOR@DifA 0006                       i2CONTADOR@DifB 0008  
                     Menimp@comandos 0061                         __CFG_LVP$OFF 000000  
                    __end_of_LIMITEX 2F78                      __end_of_LIMITEY 2F3C  
                               ?_Obt 0066                 EJECUTARINS@INSTRNAME 00A0  
                    __end_of_MENUINS 2E04                         __CFG_WDT$OFF 000000  
                               l1050 2096                                 ?_abs 0060  
                               l1055 20DC                                 l1313 06EA  
                               l1330 0804                                 l1322 09BA  
                               l1314 06D8                                 l1315 069E  
                               l1340 08C2                                 l1440 12C2  
                               l1283 290C                                 l1339 08D4  
                               l1355 2B30                                 l1443 141E  
                               l1276 2904                                 l1460 2C38  
                               l1293 29E0                                 l1286 29D8  
                               l1454 13B6                      __end_of_OCUPADO 310A  
                               l1463 2C40                                 l1447 135A  
                               l5001 195E                                 l4201 23FE  
                               l5003 1990                                 l4211 2438  
                               l4203 240E                                 l5013 19CE  
                               l5005 19AC                                 l4301 27E6  
                               l4213 244C                                 l4205 2418  
                               l4221 2AB2                                 l5021 2FEE  
                               l5111 2E72                                 l5103 2E4A  
                               l5015 19DE                                 l5007 19CA  
                               l4231 2D84                                 l3511 0518  
                               l4215 2452                                 l4207 241E  
                               l4223 2AB8                                 l5031 3012  
                               l5023 2FFA                                 l5105 2E54  
                               l5017 19E4                                 l4241 2DAE  
                               l4233 2D96                                 l5201 1166  
                               l3601 06CC                                 l3513 0528  
                               l3521 0552                                 l3505 04FA  
                               l4209 2432                                 l5121 246E  
                               l4225 2AC8                                 l4217 2A9E  
                               l5041 339C                                 l5033 3016  
                               l5113 2B78                                 l5107 2E64  
                               l5019 19E8                                 l4307 27EE  
                               l4243 2DB2                                 l5211 11B4  
                               l5203 1176                                 l3611 071C  
                               l3603 06D6                                 l3531 0582  
                               l3523 0562                                 l3515 0538  
                               l3507 0508                                 l5131 249E  
                               l5123 2480                                 l5115 2468  
                               l4227 2ACC                                 l4219 2AAE  
                               l5035 337C                                 l5051 342A  
                               l5043 3420                                 l5109 2E6E  
                               l4253 2DDC                                 l4245 2DC4  
                               l4501 2D5C                                 l4421 15E4  
                               l5221 11E2                                 l5213 11B8  
                               l5205 1188                                 l4261 311A  
                               l3701 09A8                                 l3621 0758  
                               l3613 072C                                 l3605 06F8  
                               l3541 05C2                                 l3533 0590  
                               l3525 0568                                 l3517 0548  
                               l3509 0516                                 l5141 24D0  
                               l5133 24A2                                 l5125 2482  
                               l4229 2ACE                                 l5037 3388  
                               l5029 3000                                 l5061 3434  
                               l5053 342C                                 l5045 3424  
                               l4255 2DEE                                 l4247 2DD6  
                               l4239 2D9C                                 l4503 2D6E  
                               l4431 161A                                 l4423 15EC  
                               l5231 1222                                 l5215 11C8  
                               l5223 11E8                                 l5207 118E  
                               l4263 3124                                 l3711 3404  
                               l3703 09AA                                 l3631 079E  
                               l3623 0766                                 l3615 073A  
                               l3607 0708                                 l3551 05FC  
                               l3543 05C4                                 l3535 0592  
                               l3527 057A                                 l3519 054A  
                               l4191 239C                                 l5143 24E0  
                               l5135 24B2                                 l5127 2494  
                               l5039 338A                                 l5063 3436  
                               l5055 342E                                 l5047 3426  
                        ?i2_CONTADOR 0006                                 l3721 34C0  
                               l4281 2784                                 l4257 2DF2  
                               l4505 2D72                                 l4601 32EE  
                               l4441 1658                                 l4433 161E  
                               l4425 15FC                                 l4417 15D8  
                               l5233 122A                                 l5225 1200  
                               l5217 11CE                                 l5209 119C  
                               l5241 125A                                 l5161 10B2  
                               l5153 109A                                 l4265 3136  
                               l3713 3416                                 l3641 081A  
                               l3633 07D2                                 l3625 0768  
                               l3617 0748                                 l3561 0610  
                               l3553 0600                                 l3537 05A2  
                               l3545 05CC                                 l3529 057C  
                               l3801 126C                                 l4193 23B6  
                               l5145 2502                                 l5137 24BE  
                               l5129 2496                                 l4521 2CC4  
                               l5057 3430                                 l5049 3428  
                               l5401 017C                                 l3731 3500  
                               l3723 34F6                                 l4291 27AE  
                               l4283 2786                                 l4275 275E  
                               l5251 2A5C                                 l4603 32F2  
                               l4451 1684                                 l4443 165C  
                               l4435 1630                                 l4427 160C  
                               l4419 15DE                                 l5235 1238  
                               l5227 1204                                 l5219 11DC  
                               l5243 1262                                 l5171 10D4  
                               l5163 10B4                                 l4259 310E  
                               l3707 33E4                                 l3715 2C00  
                               l3651 0856                                 l3643 082A  
                               l3635 07D4                                 l3627 0772  
                               l3619 0754                                 l3571 0624  
                               l3563 0614                                 l3555 0604  
                               l3547 05DC                                 l3539 05B2  
                               l3803 127E                                 l4195 23CA  
                               l5147 2524                                 l5139 24BE  
                               l4531 2CEE                                 l4523 2CD6  
                               l5059 3432                                 l4515 2C9C  
                               l4507 2C84                                 l5411 01D8  
                               l5403 0194                                 l3725 34FA  
                               l4613 3336                                 l4293 27AE  
                               l4285 278E                                 l4277 2770  
                               l4269 2758                                 l4621 26B6  
                               l5253 2A70                                 l5245 2A46  
                               l4605 32FC                                 l4453 1694  
                               l4461 16B6                                 l4445 1666  
                               l4437 1638                                 l4429 1610  
                               l5237 1240                                 l5229 1214  
                               l5181 1102                                 l5173 10E4  
                               l5165 10C6                                 l3709 33F6  
                               l3741 3226                                 l3717 2C1C  
                               l3901 1AE2                                 l3661 0882  
                               l3653 0858                                 l3637 07E4  
                               l3629 0778                                 l3581 0638  
                               l3573 0628                                 l3565 0618  
                               l3557 0608                                 l3549 05EE  
                               l3821 1344                                 l3813 12FC  
                               l3805 128C                                 l4197 23EE  
                               l5149 2528                                 l4701 187C  
                               l4533 2CF2                                 l5261 290E  
                               l4517 2CAE                                 l4509 2C96  
                               l5501 03C8                                 l5421 0208  
                               l5413 01DC                                 l5405 01A8  
                               l3727 34FC                                 l3751 31B8  
                               l3719 34B2                                 l4711 28A2  
                               l4615 3340                                 l4607 3330  
                               l3743 2C42                                 l4295 27C0  
                               l4287 2792                                 l4279 2772  
                               l4631 26F2                                 l4623 26BA  
                               l5255 2A82                                 l5247 2A4C  
                               l4471 1720                                 l4463 16C8  
                               l4455 16A4                                 l4439 1648  
                               l4447 166A                                 l5239 1252  
                               l5191 111A                                 l5183 1106  
                               l5175 10F0                                 l5167 10C8  
                               l5159 10A0                                 l3735 3244  
                               l3903 1AE8                                 l3911 1B1C  
                               l3671 08BA                                 l3655 0866  
                               l3647 083E                                 l3663 0884  
                               l3639 07F4                                 l3591 0696  
                               l3575 062C                                 l3567 061C  
                               l3559 060C                                 l3583 063C  
                               l3831 13C4                                 l3823 1350  
                               l3815 1304                                 l3807 12D2  
                               l4199 23F8                                 l4703 188C  
                               l5271 294E                                 l5263 2918  
                               l4519 2CB2                                 l5511 0406  
                               l5503 03DA                                 l5431 023E  
                               l5423 020C                                 l5415 01E4  
                               l5407 01C0                                 l5351 001A  
                               l3729 34FE                                 l3761 31C4  
                               l3753 31BA                                 l5097 2E44  
                               l4721 28D8                                 l4713 28B4  
                               l4617 3344                                 l3745 2C7C  
                               l3921 29FC                                 l4297 27D0  
                               l4289 27A2                                 l4641 2736  
                               l4633 2704                                 l4625 26C2  
                               l5257 2A94                                 l5249 2A54  
                               l4473 1730                                 l4465 16D4  
                               l4457 16A8                                 l4449 167C  
                               l4481 2D16                                 l5193 112C  
                               l5185 1116                                 l5177 10F0  
                               l5169 10D0                                 l3737 3252  
                               l3913 1B2E                                 l3905 1B0C  
                               l3681 0938                                 l3657 086E  
                               l3649 0848                                 l3665 0892  
                               l3593 06AC                                 l3585 0640  
                               l3577 0630                                 l3569 0620  
                               l3841 140C                                 l3833 13C6  
                               l3825 138C                                 l3817 1310  
                               l3809 12E8                                 l4705 189E  
                               l4529 2CDC                                 l5273 2960  
                               l5265 2920                                 l5521 0458  
                               l5513 0418                                 l5505 03EC  
                               l5441 026E                                 l5433 0242  
                               l5409 01C4                                 l5417 01F0  
                               l5425 0216                                 l5361 0032  
                               l5353 001E                                 l3763 31C8  
                               l3755 31BC                                 l3747 31B0  
                               l4723 28EE                                 l4715 28BC  
                               l4731 297C                                 l3931 2A3E  
                               l3923 2A1A                                 l3915 29E2  
                               l4299 27DE                                 l4635 2714  
                               l4627 26D4                                 l4643 273E  
                               l4619 26A8                                 l5259 2A98  
                               l4475 1738                                 l4467 1700  
                               l4459 16B2                                 l4491 2D32  
                               l5195 1142                                 l5179 10F0  
                               l3739 3218                                 l3907 1B10  
                               l3691 097E                                 l3675 08E4  
                               l3683 093A                                 l3667 0896  
                               l3659 0872                                 l3595 06B8  
                               l3587 066A                                 l3579 0634  
                               l3843 140E                                 l3835 13CA  
                               l3827 1398                                 l3819 1342  
                               l3851 1DFE                                 l4651 175A  
                               l5275 2978                                 l5267 2928  
                               l5523 0466                                 l5531 04A8  
                               l5515 0430                                 l5443 0272  
                               l5427 0228                                 l5419 0200  
                               l5371 008C                                 l5363 0040  
                               l5355 0022                                 l5347 0012  
                               l3765 31CA                                 l3757 31BE  
                               l3749 31B4                                 l4725 28F6  
                               l4717 28C4                                 l4709 2898  
                               l4741 29C4                                 l4733 2990  
                               l3917 29E6                                 l4637 271E  
                               l4629 26E4                                 l4493 2D44  
                               l4469 1710                                 l5197 1146  
                               l3909 1B16                                 l3781 2008  
                               l3693 098C                                 l3685 094A  
                               l3677 08F0                                 l3669 08A4  
                               l3597 06BC                                 l3589 0686  
                               l3773 2AEA                                 l3837 13EE  
                               l3829 13A6                                 l3853 1E8A  
                               l3861 33D6                                 l4661 1790  
                               l4653 175E                                 l4645 1742  
                               l5269 293C                                 l4901 106E  
                               l5541 04D6                                 l5533 04B8  
                               l5525 047C                                 l5517 0442  
                               l5509 03F4                                 l5461 02EE  
                               l5445 0276                                 l5437 024A  
                               l5429 023A                                 l5381 00D4  
                               l5373 009A                                 l5365 004E  
                               l5357 0026                                 l5349 0016  
                               l3759 31C0                                 l4727 28F8  
                               l4719 28D2                                 l4743 29CC  
                               l4735 2998                                 l3943 2E1C  
                               l3935 2E04                                 l3927 2A20  
                               l3919 29E6                                 l4639 2726  
                               l4495 2D56                                 l4591 330E  
                               l4487 2D1C                                 l4479 2D04  
                               l5199 1156                                 l3871 1A24  
                               l3791 2076                                 l3783 2018  
                               l3695 0992                                 l3687 095A  
                               l3679 08FE                                 l3599 06CA  
                               l3775 2AFC                                 l3767 326C  
                               l3839 13FE                                 l3855 1E8E  
                               l3847 1DB0                                 l3863 33A4  
                               l4831 2BEE                                 l4815 2BBC  
                               l4911 2ECA                                 l4671 17AE  
                               l4655 1766                                 l4647 1750  
                               l4903 1072                                 l5543 04E4  
                               l5535 04C0                                 l5527 048A  
                               l5519 0454                                 l5471 031A  
                               l5447 0290                                 l5455 02C6  
                               l5439 025C                                 l5391 0126  
                               l5383 00DC                                 l5375 00B4  
                               l5367 005C                                 l5359 002E  
                               l4729 28FE                                 l4745 29D2  
                               l4737 29A0                                 l3945 2E2E  
                               l3937 2E16                                 l3961 21E2  
                               l3929 2A2C                                 l4593 3314  
                               l4585 3074                                 l4577 3062  
                               l4489 2D2E                                 l3881 1A5E  
                               l3873 1A2C                                 l3793 2084  
                               l3785 2046                                 l3697 0994  
                               l3689 097A                                 l3769 328A  
                               l3857 1E9C                                 l3849 1DC4  
                               l3865 33B6                                 l4825 2BD4  
                               l4817 2BC0                                 l4921 2EEE  
                               l4681 181E                                 l4673 17BE  
                               l4657 1770                                 l4649 1754  
                               l4905 1082                                 l4833 0E7C  
                               l5529 04A0                                 l5481 0346  
                               l5457 02D8                                 l5449 02A0  
                               l5537 04C4                                 l5393 013A  
                               l5385 00EE                                 l5377 00CA  
                               l5369 0076                                 l4739 29AE  
                               l3955 30A6                                 l3947 2E32  
                               l3971 2290                                 l3963 21F0  
                               l4595 3318                                 l4587 3086  
                               l4579 306E                                 l3891 1A9A  
                               l3883 1A74                                 l3875 1A32  
                               l3867 19FA                                 l3795 20D4  
                               l3787 2056                                 l3779 1FD8  
                               l3699 099A                                 l3859 33C4  
                               l4827 2BE4                                 l4819 2BC2  
                               l4907 2EC4                                 l4683 1826  
                               l4675 17CE                                 l4667 1794  
                               l4659 1780                                 l4691 1842  
                               l4931 262E                                 l4923 25F4  
                               l4851 0EDE                                 l4843 0EB8  
                               l4835 0E9E                                 l5539 04CE  
                               l5483 034A                                 l5467 02F6  
                               l5459 02EA                                 l5395 0148  
                               l5387 0100                                 l5379 00D0  
                               l3957 30BE                                 l3949 30A0  
                               l3965 2214                                 l3973 2298  
                               l3981 229E                                 l4597 3322  
                               l4589 308A                                 l3893 1AB0  
                               l3885 1A78                                 l3877 1A4A  
                               l3869 1A1C                                 l3797 20DA  
                               l3789 2064                                 l4829 2BEA  
                               l4917 2ED8                                 l4909 2EC8  
                               l4693 1854                                 l4685 182E  
                               l4677 17DE                                 l4669 17AA  
                               l4941 2642                                 l4925 2602  
                               l4861 0F06                                 l4853 0EE6  
                               l4845 0EC4                                 l4837 0EB4  
                               l5485 034E                                 l5493 039C  
                               l5477 0322                                 l5469 0308  
                               l5397 0160                                 l5389 010E  
                               l3959 30C2                                 l3983 22AE  
                               l3967 223C                                 l4599 32E8  
                               l3895 1AB4                                 l3887 1A86  
                               l3879 1A5A                                 l4919 2EEA  
                               l4695 1858                                 l4679 1800  
                               l4687 183A                                 l4943 2646  
                               l4951 266C                                 l4927 260C  
                               l4871 0F32                                 l4863 0F12  
                               l4855 0EF0                                 l4847 0EC8  
                               l5495 03AE                                 l5487 0366  
                               l5479 0334                                 l5399 0164  
                               l3985 22BE                                 l3969 2266  
                               l3897 1AD8                                 l3889 1A96  
                               l4961 3028                                 l4697 185C  
                               l4953 267C                                 l4945 2656  
                               l4937 2632                                 l4929 261E  
                               l4881 0FAE                                 l4873 0F38  
                               l4865 0F18                                 l4857 0EFA  
                               l4849 0ED8                                 l5497 03C0  
                               l5489 0376                                 l3899 1ADC  
                               l4971 304C                                 l4963 3034  
                               l4699 186C                                 l4955 2680  
                               l4947 265C                                 l4939 2638  
                               l4891 1054                                 l4883 0FCC  
                               l4875 0F44                                 l4867 0F22  
                               l4859 0F00                                 l4973 3050  
                               l4949 2662                                 l4957 2684  
                               l4885 0FE8                                 l4877 0F60  
                               l4869 0F2C                                 l4991 18B8  
                               l4983 30E2                                 l4975 30D4  
                               l4959 2696                                 l4887 101A  
                               l4879 0F92                                 l4993 18D6  
                               l4969 303A                                 l4985 30F4  
                               l4977 30DC                                 l4897 1058  
                               l4889 1036                                 l4995 1908  
                               l4987 30F8                                 l4899 1068  
                               l4997 1924                                 l4989 18A6  
                               l4999 1942                      __end_ofi2_DIR_A 3476  
                    __end_ofi2_DIR_B 345A                                 _CREN 007D5C  
                               _FERR 007D5A                                 u3100 05EE  
                               u3101 05EA                                 u3110 05FC  
                               u3030 0516                                 u3111 05F8  
                               u3031 0512                                 u3200 073A  
                               u3120 066A                                 u3040 0528  
                               u3201 0736                                 u3121 0666  
                               u3041 0524                                 u3210 0748  
                               u3130 0682                                 u3050 0538  
                               u3211 0744                                 u3131 067C  
                               u3051 0534                                 u3300 0892  
                               u3220 0766                                 u3140 0684  
                               u3060 057A                                 u3301 088E  
                               u3221 0762                                 u3061 0576  
                               u3310 08A4                                 u3230 079E  
                               u3150 06AC                                 u3070 0590  
                               u3311 08A0                                 u3231 079A  
                               u3151 06A8                                 u3071 058C  
                               u3400 098C                                 u3320 08BA  
                               u3240 07E4                                 u3160 06CA  
                               u3080 05A2                                 u5000 186C  
                               u3401 0988                                 u3321 08B6  
                               u3241 07E0                                 u3161 06C6  
                               u3081 059E                                 u5001 1868  
                               u3410 09A8                                 u3330 08D0  
                               u3250 081A                                 u3170 06EA  
                               u3090 05B2                                 u5010 187C  
                               u3411 09A4                                 u3331 08CC  
                               u3251 0816                                 u3171 06E6  
                               u3091 05AE                                 u5011 1878  
                               u3420 33F6                                 u3500 2008  
                               u3340 08E4                                 u3260 082A  
                               u3180 06F8                                 u4300 240E  
                               u5020 188C                                 u3421 33F2  
                               u3501 2004                                 u3341 08E0  
                               u3261 0826                                 u3181 06F4  
                               u4301 240A                                 u5021 1888  
                               u3430 3416                                 u3510 2046  
                               u3350 08FE                                 u3270 0856  
                               u3190 0708                                 u4310 2432  
                               u5030 189E                                 u3431 3412  
                               u3511 2042                                 u3351 08FA  
                               u3271 0852                                 u3191 0704  
                               u4311 242E                                 u5031 189A  
                               u5040 28B4                                 u4400 27D0  
                               u3440 2C1C                                 u3520 2064  
                               u3360 0938                                 u3280 0866  
                               u3600 13A6                                 u4320 244C  
                               u6000 0442                                 u5041 28B0  
                               u4401 27CC                                 u3441 2C18  
                               u3521 2060                                 u3361 0934  
                               u3281 0862                                 u3601 13A2  
                               u4321 2448                                 u6001 043E  
                               u3450 34C0                                 u5050 28D2  
                               u3530 2084                                 u3370 094A  
                               u3290 0882                                 u3610 13B6  
                               u4330 2AAE                                 u6010 0454  
                               u3451 34BC                                 u5051 28CE  
                               u3531 2080                                 u3371 0946  
                               u3291 087E                                 u3611 13B2  
                               u4331 2AAA                                 u6011 0450  
                               u5060 28EE                                 u3460 2C50  
                               u3700 1A5A                                 u3540 20D4  
                               u3380 095A                                 u3620 13C4  
                               u4340 2AC8                                 u5300 261E  
                               u6020 0466                                 u5061 28EA  
                               u3461 2C4C                                 u3701 1A56  
                               u3541 20D0                                 u3381 0956  
                               u3621 13C0                                 u4341 2AC4  
                               u5301 261A                                 u6021 0462  
                               u5070 2990                                 u3470 2C6E  
                               u3710 1A74                                 u3390 097A  
                               u3630 13FE                                 u3550 127E  
                               u5310 262E                                 u6030 048A  
                               u5071 298C                                 u3471 2C6A  
                               u4351 2D8E                                 u3711 1A70  
                               u3391 0976                                 u3631 13FA  
                               u3551 127A                                 u5311 262A  
                               u6031 0486                                 u5080 29AE  
                               u3480 2C7C                                 u3800 2A3A  
                               u4360 2DC2                                 u4600 15FC  
                               u3720 1A86                                 u3640 140C  
                               u3560 128C                                 u5240 2BFE  
                               u5400 3026                                 u5320 2656  
                               u6040 04B8                                 u5081 29AA  
                               u3481 2C78                                 u3801 2A36  
                               u4361 2DBE                                 u4601 15F8  
                               u3721 1A82                                 u3641 1408  
                               u3561 1288                                 u5241 2BFA  
                               u5401 3022                                 u5321 2652  
                               u6041 04B4                                 u3490 31DA  
                               u5410 2E64                                 u5090 29C4  
                               u4610 160C                                 u3730 1A96  
                               u3570 12E8                                 u3650 1E8A  
                               u4290 23EE                                 u5330 267C  
                               u3491 31D6                                 u5411 2E60  
                               u5091 29C0                                 u3811 2E0E  
                               u4371 2DCE                                 u4611 1608  
                               u3731 1A92                                 u3571 12E4  
                               u3651 1E86                                 u4291 23EA  
                               u5331 2678                                 u5251 0EA8  
                               u5420 2E82                                 u3820 2E42  
                               u4380 2E02                                 u4700 1720  
                               u4620 1630                                 u5500 11B4  
                               u3740 1AB0                                 u3580 133E  
                               u3660 1E9C                                 u5340 2696  
                               u5260 0ED8                                 u5421 2E7E  
                               u3821 2E3E                                 u4381 2DFE  
                               u4701 171C                                 u4621 162C  
                               u5501 11B0                                 u3741 1AAC  
                               u3581 133A                                 u3661 1E98  
                               u5341 2692                                 u5261 0ED4  
                               u3830 30D2                                 u4390 27A2  
                               u4710 1730                                 u4630 1648  
                               u5510 11C8                                 u3750 1AD8  
                               u3590 1388                                 u3670 33D6  
                               u5430 24B2                                 u5350 26A6  
                               u5270 1082                                 u3831 30CE  
                               u4391 279E                                 u4711 172C  
                               u4631 1644                                 u5511 11C4  
                               u3751 1AD4                                 u3591 1384  
                               u3671 33D2                                 u5431 24AE  
                               u5351 26A2                                 u5271 107E  
                               u3840 2214                                 u4640 1658  
                               u5520 1200                                 u3760 1B0C  
                               u3680 33B6                                 u5440 24E0  
                               u5360 3060                                 u5280 1098  
                               u3841 2210                                 u4641 1654  
                               u4721 2D0E                                 u5521 11FC  
                               u3761 1B08                                 u3681 33B2  
                               u5441 24DC                                 u5361 305C  
                               u6057 2ADA                                 u5281 1094  
                               u3850 223C                                 u4650 167C  
                               u4730 2D42                                 u5530 1214  
                               u5450 10E4                                 u3770 1B2E  
                               u3690 1A4A                                 u5290 2EFE  
                               u5370 3108                                 u3851 2238  
                               u4651 1678                                 u4731 2D3E  
                               u5531 1210                                 u5451 10E0  
                               u3771 1B2A                                 u3691 1A46  
                               u5291 2EFA                                 u5371 3104  
                               u3860 2266                                 u4900 2704  
                               u5540 2A70                                 u4660 1694  
                               u5460 1116                                 u3780 1B3E  
                               u5381 18B0                                 u3861 2262  
                               u4901 2700                                 u4741 2D4E  
                               u5541 2A6C                                 u4661 1690  
                               u5461 1112                                 u3781 1B3A  
                               u5390 19F8                                 u3870 2290  
                               u3790 2A1A                                 u4910 2714  
                               u4750 2D82                                 u5550 2A82  
                               u4670 16A4                                 u5470 1156  
                               u5710 005C                                 u5391 19F4  
                               u3871 228C                                 u3791 2A16  
                               u4911 2710                                 u4751 2D7E  
                               u5551 2A7E                                 u4671 16A0  
                               u5471 1152                                 u5711 0058  
                               u3880 22AE                                 u4920 2736  
                               u5560 2A94                                 u4680 16C8  
                               u5480 1176                                 u5800 01A8  
                               u5720 009A                                 i2l33 25F2  
                               u3881 22AA                                 u4921 2732  
                               u5561 2A90                                 u4681 16C4  
                               u5481 1172                                 u4761 2C8E  
                               u5801 01A4                                 u5721 0096  
                               u3890 22BE                                 u4930 2752  
                               u4690 1710                                 u5490 1188  
                               u5570 293C                                 u4770 2CC2  
                               u5810 0200                                 u5730 00EE  
                               u3891 22BA                                 u4931 274E  
                               u4691 170C                                 u5491 1184  
                               u5571 2938                                 u4771 2CBE  
                               u5811 01FC                                 u5731 00EA  
                               u4860 309A                                 u4940 1750  
                               u5580 294E                                 u5900 031A  
                               u5820 0228                                 u5740 0100  
                               i2l37 1FB6                                 u4861 3096  
                               u4941 174C                                 u4781 2CCE  
                               u5581 294A                                 u5901 0316  
                               u5821 0224                                 u5741 00FC  
                               i2l38 1FCE                                 u4870 3354  
                               u4950 1780                                 u4790 2D02  
                               u5590 2960                                 u5910 0334  
                               u5830 023A                                 u5750 0126  
                               i2l39 1FD6                                 u4871 3350  
                               u4951 177C                                 u4791 2CFE  
                               u5591 295C                                 u5911 0330  
                               u5831 0236                                 u5751 0122  
                               u4880 26D4                                 u4960 1790  
                               u5920 0346                                 u5840 025C  
                               u5760 013A                                 u4881 26D0  
                               u4961 178C                                 u5921 0342  
                               u5841 0258                                 u5761 0136  
                               u4890 26E4                                 u4970 17BE  
                               u5930 0376                                 u5850 026E  
                               u5770 0160                                 _OERR 007D59  
                               u4891 26E0                                 u4971 17BA  
                               u5931 0372                                 u5851 026A  
                               u5771 015C                                 u4980 17DE  
                               u5940 03AE                                 u5860 02A0  
                               u5780 017C                                 u4981 17DA  
                               u5941 03AA                                 u5861 029C  
                               u5781 0178                                 u4990 1854  
                               u5950 03C0                                 u5870 02D8  
                               u5790 0194                                 u4991 1850  
                               u5951 03BC                                 u5871 02D4  
                               u5791 0190                                 u5960 03DA  
                               u5880 02EA                                 u5961 03D6  
                               u5881 02E6                                 u5970 03EC  
                               u5890 0308                                 u5971 03E8  
                               u5891 0304                                 u5980 0406  
                               u5981 0402                                 u5990 0418  
                               u5991 0414                                 Obt@E 006E  
                               _TMR2 000FCC                                 _Acci 00EB  
               __end_ofi2_motoresmov 25F4                                 _TXEN 007D65  
                               _DifX 00E7                                 _DifY 00E5  
                    __end_of_SETNOEX 2E44                      __end_of_INT_isr 1DB0  
                    COORReal@Xvalora 006C                         i2___flge@ff1 001D  
                       i2___flge@ff2 0021                      COORReal@Yvalora 006E  
                               abs@a 0060                                 _main 0012  
                       Conversion@X1 008C                         Conversion@X2 0092  
                               fsr1h 000FE2                                 fsr2h 000FDA  
                               indf2 000FDF                                 fsr1l 000FE1  
                               fsr2l 000FD9                                 btemp 005F  
                               prodh 000FF4                                 prodl 000FF3  
                               start 000E                        __CFG_IESO$OFF 000000  
                         Menimp@Send 0064                     __end_of_ENABLE_A 3420  
                   __end_of_ENABLE_B 3400                      __end_of_EditseT 1268  
                   __end_of_CREARINS 2A9E                        __CFG_MCLRE$ON 000000  
                 __size_of_PARO2aden 0012                     __end_of_EEPROM_R 3504  
                   __end_of_EEPROM_W 31E0                        _PWMDutyCycle1 3240  
                      _PWMDutyCycle2 3214                         ___param_bank 000000  
                   __end_of_CONTADOR 1B40                        ??_GuardarsetN 0064  
                      ??_GuardarsetX 0064                        ??_GuardarsetY 0064  
                              ??_Obt 0068                     __end_of_COORReal 19FA  
                       ?_INSTRUCCION 0001                                ??_abs 0062  
                      __CFG_PLLDIV$1 000000                       __CFG_CCP2MX$ON 000000  
                   __end_of_PARO2out 3524                      __end_of___fladd 09BC  
                              ?_main 0001                                _CHECK 2E44  
                              _EEADR 000FA9                      __end_of___flsub 2B32  
                              _CMCON 000FB4                   __size_of_PREGUNTA2 0040  
                              _T2CON 000FCA                                _DIR_A 33C0  
                              _DIR_B 33A0                      __end_of___lwdiv 290E  
                    __end_of___lwmod 29E2                                _PARO2 2F78  
                              i2l322 34F0                                i2l172 2F76  
                              i2l262 32BA                                i2l270 1BE6  
                              i2l319 34DE                                i2l441 1D5A  
                              i2l186 2FB2                                i2l266 1B80  
                              i2l259 32E2                                i2l179 2F3A  
                              i2l267 1BAA                                i2l276 1C7C  
                              i2l444 1D7A                                i2l541 3174  
                              i2l447 1D94                                i2l439 1D00  
                              i2l544 3514                                i2l538 31AA  
                              i2l547 3522                                i2l761 3458  
                              i2l771 34AC                                i2l764 3472  
                              i2l774 348E                                i2l766 3474  
                              i2l759 3456                                i2l776 3490  
                              i2l769 34AA                                i2l785 337A  
                              _RCREG 000FAE                      UARTWrite@txData 0060  
           __size_ofi2_PWMDutyCycle1 0028             __size_ofi2_PWMDutyCycle2 0028  
               __size_of_EJECUTARINS 0164                        __CFG_USBDIV$1 000000  
                              i2_abs 2E84                                _TXREG 000FAD  
                   __end_of_PREGUNTA 2D84                        __CFG_PWRT$OFF 000000  
                      __CFG_WRT0$OFF 000000                        __CFG_WRT1$OFF 000000  
                      __CFG_WRT2$OFF 000000                     __end_of_PROBLEMA 2C84  
                      __CFG_WRT3$OFF 000000                        i2___fladd@grs 0010  
                     __CFG_EBTR0$OFF 000000                       __CFG_FCMEN$OFF 000000  
                     __CFG_EBTR1$OFF 000000                       __CFG_EBTR2$OFF 000000  
                     __CFG_EBTR3$OFF 000000                     __end_of_UARTRead 2A46  
                      __CFG_WRTB$OFF 000000                        __CFG_WRTC$OFF 000000  
                      __CFG_WRTD$OFF 000000                   __size_of_UARTWrite 0018  
                     __CFG_EBTRB$OFF 000000                   __size_of_UARTconfi 001E  
                        Menimp@F3611 00DE                        imprimirSet@XH 007B  
                      Conversion@Dif 0088                        imprimirSet@YH 007D  
                      imprimirSet@XL 007C                        imprimirSet@YL 007E  
                   __end_ofi2___flge 21E2                                tablat 000FF5  
                         _Conversion 1DB0                     __end_ofi2___wmul 337C  
                              plusw1 000FE3                                plusw2 000FDB  
                              ttemp5 0060                                ttemp6 0063  
                              ttemp7 0067                         ?_imprimirINS 0001  
                   __end_of_PWMconfi 33A0                                status 000FD8  
                              wtemp8 0060                         ?_imprimirSet 0001  
                      PREEJECUTAR@XR 00AC                        PREEJECUTAR@YR 00AE  
                       ?_PREEJECUTAR 00AC                       __CFG_ICPRT$OFF 000000  
                 __size_ofi2___fladd 04C0                   __size_ofi2___flsub 0046  
                      MOVASETPOINT@b 00A9                        MOVASETPOINT@i 00AA  
                __size_of_IMP_ACCION 0040                       ?_PWMDutyCycle1 0001  
                     ?_PWMDutyCycle2 0001                __size_of_NOcoordenada 003A  
                    __initialization 27F8                          IMP_ACCION@C 006A  
                        IMP_ACCION@F 0061                         __end_of_main 04FA  
                      ??_ExtraerDato 0063                   __size_of_NOcomando 003A  
                __size_ofi2_ENABLE_A 001C                  __size_ofi2_ENABLE_B 001C  
                             CHECK@T 0062                               CHECK@i 0063  
                __size_ofi2_CONTADOR 013E                       _SETPOINTBUSCAR 21E2  
                       ?i2_UARTWrite 0001                               ??_main 00B2  
                             ?_CHECK 0001                               DIR_A@X 0060  
                             DIR_B@X 0060                               ?_DIR_A 0001  
                             ?_DIR_B 0001                        __activetblptr 000000  
                   __end_of_Tardanza 3028                               ?_PARO2 0001  
                __end_of_GuardarsetN 30D4                  __end_of_GuardarsetX 3330  
                __end_of_GuardarsetY 330A                               PARO2@C 001D  
                             PARO2@F 0002                            ??_LIMITEX 0002  
                          ??_LIMITEY 0002                            ??_MENUINS 0061  
                             ?i2_abs 0001                          ?i2___xxtofl 0007  
                          ??_OCUPADO 0061                            ??i2_DIR_A 0001  
                          ??i2_DIR_B 0001                            ??_SETNOEX 0061  
                          ??_INT_isr 003D                    __end_of_PARO2aden 3516  
                      ?_NOHAYESPACIO 0001                               _ADCON1 000FC1  
                             _EEDATA 000FA8                               _CCPR1L 000FBE  
                             _CCPR2L 000FBB                               _EECON2 000FA7  
                             i2l1050 219A                               i2l1055 21E0  
                             i2l1313 0BAA                               i2l1330 0CC4  
                             i2l1322 0E7A                               i2l1314 0B98  
                             i2l1315 0B5E                               i2l1340 0D82  
                             i2l1440 1476                               i2l4001 0A08  
                             i2l1339 0D94                               i2l4011 0A3A  
                             i2l4003 0A0A                               i2l1355 2B76  
                             i2l1443 15D2                               i2l1460 2EBA  
                             i2l4101 0C08                               i2l4021 0A62  
                             i2l4013 0A3C                               i2l4005 0A12  
                             i2l1454 156A                               i2l1463 2EC2  
                             i2l4111 0C32                               i2l4103 0C14  
                             i2l4031 0A9C                               i2l4023 0A72  
                             i2l4015 0A42                               i2l4007 0A22  
                             i2l1447 150E                               i2l4121 0CA4  
                             i2l4105 0C18                               i2l4113 0C38  
                             i2l4041 0AC8                               i2l4033 0AAE  
                             i2l4025 0A82                               i2l4017 0A50  
                             i2l4009 0A28                               i2l4131 0CFE  
                             i2l4115 0C5E                               i2l4123 0CB4  
                             i2l4107 0C26                               i2l4051 0ADC  
                             i2l4043 0ACC                               i2l4035 0ABC  
                             i2l4027 0A84                               i2l4019 0A52  
                             i2l4141 0D2E                               i2l4133 0D08  
                             i2l4125 0CDA                               i2l4117 0C92  
                             i2l4109 0C28                               i2l4061 0AF0  
                             i2l4053 0AE0                               i2l4045 0AD0  
                             i2l4037 0AC0                               i2l4029 0A8C  
                             i2l4151 0D56                               i2l4143 0D32  
                             i2l4135 0D16                               i2l4127 0CEA  
                             i2l4119 0C94                               i2l4071 0B2A  
                             i2l4063 0AF4                               i2l4055 0AE4  
                             i2l4047 0AD4                               i2l4039 0AC4  
                             i2l4321 34DE                               i2l4313 32BE  
                             i2l4161 0DB0                               i2l4153 0D64  
                             i2l4145 0D42                               i2l4137 0D18  
                             i2l4081 0B7C                               i2l4073 0B46  
                             i2l4065 0AF8                               i2l4057 0AE8  
                             i2l4049 0AD8                               i2l4401 157E  
                             i2l4323 34EC                               i2l4331 3488  
                             i2l4315 32CA                               i2l4171 0E1A  
                             i2l4163 0DBE                               i2l4155 0D7A  
                             i2l4139 0D26                               i2l4147 0D44  
                             i2l4091 0BC8                               i2l4083 0B8A  
                             i2l4075 0B56                               i2l4059 0AEC  
                             i2l4067 0AFC                               i2l4403 15A2  
                             i2l4325 3494                               i2l4317 3296  
                             i2l4413 2E84                               i2l4341 210C  
                             i2l4181 0E54                               i2l4173 0E3A  
                             i2l4165 0DF8                               i2l4149 0D52  
                             i2l4085 0B8C                               i2l4077 0B6C  
                             i2l4069 0B00                               i2l4333 3356  
                             i2l4405 15B2                               i2l5301 25D8  
                             i2l4327 34A4                               i2l4319 32A2  
                             i2l5071 318E                               i2l4415 2E9E  
                             i2l4351 217A                               i2l4343 211C  
                             i2l4183 0E5A                               i2l4175 0E3E  
                             i2l4159 0DA4                               i2l4167 0DFA  
                             i2l4095 0BDC                               i2l4087 0B96  
                             i2l4079 0B78                               i2l4335 3372  
                             i2l4407 15C0                               i2l5303 25DE  
                             i2l5311 1CC2                               i2l4329 3478  
                             i2l5073 319A                               i2l5065 3176  
                             i2l5081 3152                               i2l4353 2188  
                             i2l4345 214A                               i2l4185 0E68  
                             i2l4177 0E4C                               i2l4169 0E0A  
                             i2l4097 0BEC                               i2l4089 0BB8  
                             i2l4361 2B32                               i2l4409 15C2  
                             i2l5321 1D0E                               i2l5313 1CC6  
                             i2l5305 1C98                               i2l5091 3508  
                             i2l5075 31A6                               i2l5067 3182  
                             i2l5083 3158                               i2l4355 21D8  
                             i2l4347 215A                               i2l4339 20DE  
                             i2l4187 0E6A                               i2l4179 0E52  
                             i2l4099 0BFA                               i2l4363 2B42  
                             i2l4371 1440                               i2l5331 1D54  
                             i2l5323 1D1C                               i2l5315 1CDA  
                             i2l5307 1CA6                               i2l5093 350E  
                             i2l5069 3188                               i2l5085 3164  
                             i2l5077 3140                               i2l4357 21DE  
                             i2l4349 2168                               i2l4381 14B8  
                             i2l4373 1486                               i2l5333 1D68  
                             i2l5325 1D20                               i2l5341 1D8E  
                             i2l5317 1CEA                               i2l5309 1CB4  
                             i2l5095 3516                               i2l4543 2F52  
                             i2l4535 2F3C                               i2l4551 2F12  
                             i2l5087 3170                               i2l5079 314C  
                             i2l4391 1540                               i2l4383 14C4  
                             i2l4375 149C                               i2l4367 1422  
                             i2l5343 1D90                               i2l5335 1D76  
                             i2l5327 1D34                               i2l5319 1CFA  
                             i2l5089 3504                               i2l4545 2F64  
                             i2l4537 2F4E                               i2l4561 2F2A  
                             i2l4801 1C56                               i2l4393 154C  
                             i2l4385 14F6                               i2l4369 1432  
                             i2l5281 254A                               i2l5345 1D92  
                             i2l5337 1D88                               i2l5329 1D44  
                       _NOcoordenada 3062                               i2l4571 2F8E  
                             i2l4563 2F78                               i2l4547 2F66  
                             i2l4803 1C5C                               i2l4395 155A  
                             i2l4387 14F8                               i2l4379 14B0  
                             i2l4811 345C                               i2l5291 259E  
                             i2l5283 255E                               i2l5339 1D8C  
                             i2l4573 2FA0                               i2l4565 2F8A  
                             i2l4557 2F16                               i2l4549 2F00  
                             i2l4805 1C6C                               i2l4397 1578  
                             i2l4389 1504                               i2l4813 346C  
                             i2l5293 25A8                               i2l5285 2580  
                             i2l4575 2FA2                               i2l4559 2F28  
                             i2l4399 157A                               i2l4751 1F14  
                             i2l4807 3440                               i2l5295 25AE  
                             i2l5287 258A                               i2l5279 2532  
                             i2l4761 1B60                               i2l4753 1F98  
                             i2l4809 3450                               i2l5297 25C0  
                             i2l5289 2590                               i2l4771 1B9E  
                             i2l4763 1B68                               i2l4755 1F9C  
                             i2l4747 1ECA                               i2l5299 25C6  
                             i2l4781 1BDA                               i2l4773 1BA2  
                             i2l4765 1B70                               i2l4757 1FAA  
                             i2l4749 1EDE                               i2l4791 1C1E  
                             i2l4783 1BDE                               i2l4775 1BB8  
                             i2l4767 1B76                               i2l4759 1B40  
                             i2l3991 09C8                               i2l4793 1C24  
                             i2l4785 1BF4                               i2l4777 1BBC  
                             i2l4769 1B8E                               i2l3993 09D6  
                             i2l4795 1C2A                               i2l4787 1BF8  
                             i2l4779 1BCA                               i2l3995 09D8  
                             i2l4797 1C4C                               i2l4789 1C1A  
                             i2l3997 09E8                               i2l3989 09BC  
                             i2l4799 1C50                               i2l3999 09F8  
                             _RCREG1 000FAE                               _OSCCON 000FD3  
                          ??_EditseT 007D                               _SPBRG1 000FAF  
                             _Accion 2A9E                     __end_of___xxtofl 1420  
                i2PWMDutyCycle1@DUTY 0005                               Obt@imp 006A  
                i2PWMDutyCycle2@DUTY 0005                               i2abs@a 0001  
                  __end_of_PREGUNTA2 2D04                      IMP_ACCION@F3652 00CC  
                     i2___fladd@aexp 000E                       i2___fladd@bexp 000F  
                             _Menimp 2BBC                       __CFG_XINST$OFF 000000  
                       LIMITEX@F3665 0044                         LIMITEY@F3669 01CC  
                          ENABLE_A@X 0060                            ENABLE_B@X 0060  
                             ___flge 1FD8                        EJECUTARINS@XN 00A4  
                      EJECUTARINS@YN 00A6                        EJECUTARINS@XR 009C  
                      EJECUTARINS@YR 009E                    __end_of_UARTWrite 34C6  
                          ??___fladd 0068                               ___wmul 326C  
                     __CFG_STVREN$ON 000000                            ??___flsub 007C  
             __end_of_SETPOINTBUSCAR 22C2                    __end_of_UARTconfi 343E  
                          ??___lwdiv 0069                        Tardanza@F3696 00D5  
                          ??___lwmod 0064                               clear_0 287E  
       ??_Mensaje_comando_completado 0061                  i2CONTADOR@ContadorA 000A  
                i2CONTADOR@ContadorB 000C                         MENUINS@F3644 015E  
                  _BORRARINSTRUCCION 3330                       imprimirSet@Pos 006C  
                __end_of_ExtraerDato 3140                    NOHAYESPACIO@F3640 0137  
                       __pdataCOMRAM 0044                   ?_BORRARINSTRUCCION 0001  
                  __end_ofi2___fladd 0E7C                            CONTADOR@A 006F  
                          CONTADOR@B 0070                    __end_ofi2___flsub 2B78  
                _ESCRIBIRINSTRUCCION 2754                               tblptrh 000FF7  
                             tblptrl 000FF6                               tblptru 000FF8  
              __size_ofi2_motoresmov 00C2                       ??_NOHAYESPACIO 0061  
                          ?_ENABLE_A 0001                            ?_ENABLE_B 0001  
                       GuardarsetN@i 0065                         GuardarsetX@X 0062  
                       GuardarsetY@Y 0062                            ?_CREARINS 0001  
                          ?_EEPROM_R 0001                            ?_EEPROM_W 0060  
                  __end_of_NOcomando 3062                  ??_BORRARINSTRUCCION 0062  
                          ?_CONTADOR 0065                    ??i2_PWMDutyCycle1 0001  
                  ??i2_PWMDutyCycle2 0001                        ?_MOVASETPOINT 009C  
                         ___flge@ff1 007C                           ___flge@ff2 0080  
                       ___xxtofl@arg 0070                            ?_COORReal 006C  
                        ?_Conversion 0088                         ___xxtofl@exp 006F  
                       ___xxtofl@val 0066                           __accesstop 0060  
                          COORReal@i 007F              __end_of__initialization 288E  
                    __CFG_PBADEN$OFF 000000                       MOVASETPOINT@XN 00A4  
                     MOVASETPOINT@YN 00A6                       MOVASETPOINT@XR 009C  
                     MOVASETPOINT@YR 009E                        __end_of_CHECK 2E84  
                    ??_PWMDutyCycle1 0060                      ??_PWMDutyCycle2 0060  
                      ___rparam_used 000001                            ?_PARO2out 0001  
                      __end_of_DIR_A 33E0                        __end_of_DIR_B 33C0  
                       i2CONTADOR@ZA 000E                         i2CONTADOR@ZB 000F  
                      __end_of_PARO2 2FB4                 ?_ESCRIBIRINSTRUCCION 0001  
                     i2Conversion@X1 002D                       i2Conversion@X2 0033  
                      __end_ofi2_abs 2EC4                  __size_ofi2___xxtofl 01B4  
                          ?_PREGUNTA 0001                       __pcstackCOMRAM 0001  
                          ?_PROBLEMA 0001                         __pidataBANK0 31E0  
                       __pidataBANK1 22C2                         __pidataBANK2 2FB4  
                          ?_UARTRead 0001                      ?_SETPOINTBUSCAR 0061  
                        _GuardarsetN 309C                          _GuardarsetX 330A  
                        _GuardarsetY 32E4            __end_of_BORRARINSTRUCCION 3356  
                       i2_motoresmov 2532                 __size_of_INSTRUCCION 00AC  
                          ?i2___flge 001D                        PREGUNTA@F3648 0100  
                            ??_CHECK 0062                              ??_DIR_A 0060  
                            ??_DIR_B 0060                            ?i2___wmul 0001  
                            ??_PARO2 0002                         ??_IMP_ACCION 0061  
                          ?_PWMconfi 0001                              ??i2_abs 0003  
                       ??i2_ENABLE_A 0001                         ??i2_ENABLE_B 0001  
                         ??_ENABLE_A 0060                           ??_ENABLE_B 0060  
                       OCUPADO@F3685 00E1                           ??_CREARINS 0099  
                         ??_EEPROM_R 0060                           ??_EEPROM_W 0061  
                       ??i2_CONTADOR 000A                       ??_MOVASETPOINT 00A0  
                         ??_CONTADOR 0069                           __pbssBANK0 00E5  
                         ??_COORReal 0070                        ?_SETPOINEXIST 0001  
                            ?_Accion 0001                           ??_PARO2out 0002  
              ??_ESCRIBIRINSTRUCCION 007A                 __size_of_imprimirINS 00B4  
                          ?_Tardanza 0001                              ?_Menimp 0001  
               __size_of_imprimirSet 021E                            PREGUNTA@C 0098  
                          PREGUNTA@F 0061                 __size_of_PREEJECUTAR 006E  
                 __end_of_IMP_ACCION 2CC4                           ??_PREGUNTA 0061  
                            ?___flge 007C                           ??_PROBLEMA 0060  
                            ?___wmul 0060                           ??_UARTRead 0061  
                        _ExtraerDato 310A                     _imprimirSet$2314 007F  
                 __end_ofi2_ENABLE_A 34AE                   __end_ofi2_ENABLE_B 3492  
                            _CCP1CON 000FBD                              _CCP2CON 000FBA  
                 __end_ofi2_CONTADOR 1C7E                            UARTRead@X 0065  
                          UARTRead@Y 0061                           ??i2___flge 0025  
                __size_of_Conversion 011A                           ??i2___wmul 0005  
                         ??_PWMconfi 0060                              _LIMITEX 2F3C  
                            _LIMITEY 2F00                 __size_ofi2_UARTWrite 0016  
                            _MENUINS 2DC4                            ?___xxtofl 0066  
                            _OCUPADO 30D4                              i2_DIR_A 345A  
                            i2_DIR_B 343E                              _SETNOEX 2E04  
                            _INT_isr 0008                        _banderaaccion 005E  
                    imprimirINS@DATA 006D                              Obt@Send 006D  
             __size_of_interrupcionX 0036               __size_of_interrupcionY 0036  
                     ??_SETPOINEXIST 0061                      __CFG_VREGEN$OFF 000000  
                            Menimp@i 0065                      imprimirINS@suma 006B  
                            _EditseT 109A                      __size_of_Accion 004C  
                    i2___fladd@signs 000D                           ??_Tardanza 0061  
                            __Hparam 0000                              __Lparam 0000  
                    __size_of_Menimp 0044                 __end_of_NOHAYESPACIO 2DC4  
                    __size_of___flge 0106                        CREARINS@elecc 0099  
                            ___fladd 04FA                              ___flsub 2AEA  
                    __size_of___wmul 0028                              ___lwdiv 2898  
                            ___lwmod 297C           __size_of_BORRARINSTRUCCION 0026  
                     EJECUTARINS@dir 00AB                              _XvalorR 00F2  
 __end_of_Mensaje_comando_completado 2F00           _Mensaje_comando_completado 2EC4  
                            _Xvalorn 00EE                              _YvalorR 00F0  
                 SETPOINTBUSCAR@dato 0061                              _Yvalorn 00EC  
                      SETPOINEXIST@C 007C                        SETPOINEXIST@F 0061  
                      ??_EJECUTARINS 00A0                              __pcinit 27F8  
                            __ramtop 0800                              __ptext0 0012  
                            __ptext1 2B78                              __ptext2 0E7C  
                            __ptext3 25F4                              __ptext4 2C84  
                            __ptext5 3420                              __ptext6 2FEE  
                            __ptext7 337C                              __ptext8 290E  
                            __ptext9 2CC4                         __size_of_Obt 016E  
                          _T2CONbits 000FCA                         __size_of_abs 0042  
                       ??i2___xxtofl 000B                           ??___xxtofl 006A  
                         _inter_init 2B78                      imprimirSet@Send 007A  
                     __pintcode_body 1C7E                 end_of_initialization 288E  
                          _PARO2aden 3504                        ?i2_Conversion 0029  
                            int_func 1C7E                  i2___wmul@multiplier 0001  
                         CONTADOR@ZA 006D                           CONTADOR@ZB 006E  
                     i2___xxtofl@arg 0011                       i2___xxtofl@exp 0010  
                     i2___xxtofl@val 0007                            _RCSTAbits 000FAB  
                          _PREGUNTA2 2CC4                   __end_ofi2___xxtofl 15D4  
                            postdec1 000FE5                              postdec2 000FDD  
                            postinc0 000FEE                              postinc2 000FDE  
                      GuardarsetX@XH 0064                        GuardarsetX@XL 0065  
                      GuardarsetY@YH 0064                        GuardarsetY@YL 0065  
                      _interrupcionX 3176                        _interrupcionY 3140  
               __end_of_MOVASETPOINT 2532                           _motoresmov 239C  
                          _UARTWrite 34AE                            _PORTBbits 000F81  
                          _PORTCbits 000F82                            _PORTDbits 000F83  
                    i2_PWMDutyCycle1 32BC                      i2_PWMDutyCycle2 3294  
                          _UARTconfi 3420                 ESCRIBIRINSTRUCCION@b 0081  
               ESCRIBIRINSTRUCCION@i 007F                    PWMDutyCycle1@DUTY 0064  
                  PWMDutyCycle2@DUTY 0064                       INSTRUCCION@dir 008A  
                        ___fladd@grs 006F                        ___xxtofl@sign 006E  
                          _TRISBbits 000F93                            _TRISCbits 000F94  
                          _TRISDbits 000F95                  __end_of_EJECUTARINS 18A6  
                          Obt@Xvalor 006F                            i2___fladd 09BC  
             i2PWMDutyCycle1@PERCENT 0003                            i2___flsub 2B32  
             i2PWMDutyCycle2@PERCENT 0003                            _DirEEPROM 00E9  
                     ??i2_Conversion 002B                    __size_of_ENABLE_A 0020  
                  __size_of_ENABLE_B 0020                         ??_Conversion 008A  
                         ?_PARO2aden 0001                    __size_of_CREARINS 0058  
                  __size_of_EEPROM_R 0012                    __size_of_EEPROM_W 0034  
                 BORRARINSTRUCCION@i 0062                    CONTADOR@ContadorA 0069  
                  CONTADOR@ContadorB 006B                    __size_of_CONTADOR 0146  
                          _NOcomando 3028                            _TXSTAbits 000FAC  
                  __size_of_COORReal 0154                     ??_SETPOINTBUSCAR 0063  
                     __end_of_Accion 2AEA                      i2Conversion@Dif 0029  
                  __size_of_PARO2out 000E                           ?_PREGUNTA2 0001  
                     __end_of_Menimp 2C00                           PARO2@F3673 017E  
                     ?_interrupcionX 0001                       ?_interrupcionY 0001  
                       ?_GuardarsetN 0062                         ?_GuardarsetX 0062  
                       ?_GuardarsetY 0062                       __end_of___flge 20DE  
                  __size_of_PREGUNTA 0040                       __end_of___wmul 3294  
                  __size_of_PROBLEMA 0042                         imprimirINS@R 006C  
                       imprimirINS@i 006E                          _BAUDCONbits 000FB8  
                      __pidataCOMRAM 34C6                    __size_of_UARTRead 0064  
               __end_of_SETPOINEXIST 2D44                           ?_UARTWrite 0001  
                         ?_UARTconfi 0001                         imprimirSet@R 0081  
                       imprimirSet@X 0083                         imprimirSet@Y 0085  
                       imprimirSet@i 0087                   __end_of_Conversion 1ECA  
                   i2___wmul@product 0005                       PREGUNTA2@F3661 0200  
                        ?_inter_init 0001                         PREEJECUTAR@i 00B0  
                  __size_ofi2___flge 0104                  start_initialization 27F8  
                  __size_ofi2___wmul 0026                          __end_of_Obt 1742  
                        __end_of_abs 2C42                    __size_of_PWMconfi 0024  
                         ?i2___fladd 0001                           ?i2___flsub 0015  
                          Tardanza@C 0064                            Tardanza@F 0061  
                         ?_NOcomando 0001                             ??_Accion 0060  
              __size_of_NOHAYESPACIO 0040                    SETPOINEXIST@F3632 0199  
                           ??_Menimp 0061                __end_of_PWMDutyCycle1 326C  
              __end_of_PWMDutyCycle2 3240                         EJECUTARINS@E 00A8  
                       EJECUTARINS@i 00A9                          i2ENABLE_A@X 0001  
                           ??___flge 0084                          i2ENABLE_B@X 0001  
            __end_ofi2_PWMDutyCycle1 32E4              __end_ofi2_PWMDutyCycle2 32BC  
                  __size_of_Tardanza 003A                             ??___wmul 0064  
                       ?_ExtraerDato 0061                        ??_INSTRUCCION 0089  
                        __pdataBANK0 00B2                          __pdataBANK1 0100  
                        __pdataBANK2 0200                     __CFG_LPT1OSC$OFF 000000  
                        ?_motoresmov 0094                          _EJECUTARINS 1742  
                          ___fladd@a 0064                            ___fladd@b 0060  
                           ?_LIMITEX 0001                             ?_LIMITEY 0001  
                           ?_MENUINS 0001                          __pbssCOMRAM 005A  
                           ?_OCUPADO 0001                          i2CONTADOR@A 0010  
                        i2CONTADOR@B 0011                            ___flsub@a 0078  
                          ___flsub@b 0074                             ?i2_DIR_A 0001  
                           ?i2_DIR_B 0001                        __pcstackBANK0 0060  
                      i2Conversion@B 0031                             ?_SETNOEX 0001  
                           ?_INT_isr 0001                    __size_of___xxtofl 01B8  
                           LIMITEX@C 0010                             LIMITEX@F 0002  
                           LIMITEY@C 0010                             LIMITEY@F 0002  
                           MENUINS@C 0081                             MENUINS@F 0061  
                       _NOHAYESPACIO 2D84          __end_of_ESCRIBIRINSTRUCCION 27F8  
                           OCUPADO@C 0063                             OCUPADO@F 0061  
                        ??_PARO2aden 001E                             ?_EditseT 0001  
                      ??_imprimirINS 006B                        ??_imprimirSet 006C  
                      ??_PREEJECUTAR 00B0                           PREGUNTA2@C 009B  
                         PREGUNTA2@F 0061                     ___lwdiv@dividend 0065  
              __size_of_MOVASETPOINT 00CA                  __size_of_inter_init 0044  
                    ??_interrupcionX 0011                      ??_interrupcionY 0011  
                           SETNOEX@C 0079                             SETNOEX@F 0061  
                        ??_PREGUNTA2 0061                            __pintcode 0008  
                           ?___fladd 0060                             ?___flsub 0074  
                    SETPOINTBUSCAR@T 0065                             ?___lwdiv 0065  
                    SETPOINTBUSCAR@i 0066                             ?___lwmod 0060  
                       SETNOEX@F3628 01B4          ?_Mensaje_comando_completado 0001  
               __end_ofi2_Conversion 1FD8                        ??i2_UARTWrite 0001  
                        ??_UARTWrite 0060                          ??_UARTconfi 0060  
                     __size_of_CHECK 0040                       __size_of_DIR_A 0020  
                     __size_of_DIR_B 0020                       __size_of_PARO2 003C  
                __end_of_INSTRUCCION 2754                       __size_ofi2_abs 0040  
                           _ENABLE_A 3400                             _ENABLE_B 33E0  
                           i2DIR_A@X 0001                             i2DIR_B@X 0001  
                   ___lwdiv@quotient 0069                             _CREARINS 2A46  
                        ??i2___fladd 0009                             _EEPROM_R 34F2  
                           _EEPROM_W 31AC                          ??i2___flsub 001D  
                           _CONTADOR 19FA                        ?_NOcoordenada 0001  
                       _MOVASETPOINT 2468                             _COORReal 18A6  
                __size_of_motoresmov 00CC                         PROBLEMA@temp 0060  
                        ??_NOcomando 0061                       ___wmul@product 0064  
                   i2motoresmov@DifA 0039                     i2motoresmov@DifB 003B  
                   i2motoresmov@DifX 0035                     i2motoresmov@DifY 0037  
                           _PARO2out 3516                             EditseT@C 0089  
                           EditseT@E 0087                             EditseT@X 007E  
                           EditseT@Y 0080                             EditseT@b 0088  
                           EditseT@d 0086                             EditseT@i 008A  
                           i2u400_40 0B42                             i2u400_41 0B3C  
                           i2u401_40 0B44                             i2u410_40 0C5E  
                           i2u402_40 0B6C                             i2u410_41 0C5A  
                           i2u402_41 0B68                             i2u411_40 0CA4  
                           i2u403_40 0B8A                             i2u411_41 0CA0  
                           i2u403_41 0B86                             i2u420_40 0D90  
                           i2u412_40 0CDA                             i2u404_40 0BAA  
                           i2u420_41 0D8C                             i2u412_41 0CD6  
                           i2u404_41 0BA6                             i2u421_40 0DA4  
                           i2u413_40 0CEA                             i2u405_40 0BB8  
                           i2u421_41 0DA0                             i2u413_41 0CE6  
                           i2u405_41 0BB4                             i2u422_40 0DBE  
                           i2u414_40 0D16                             i2u406_40 0BC8  
                           i2u510_40 1F98                             i2u422_41 0DBA  
                           i2u414_41 0D12                             i2u406_41 0BC4  
                           i2u510_41 1F94                             i2u423_40 0DF8  
                           i2u415_40 0D26                             i2u407_40 0BFA  
                           i2u511_40 1FAA                             i2u423_41 0DF4  
                           i2u415_41 0D22                             i2u407_41 0BF6  
                           i2u511_41 1FA6                             i2u520_40 1C6C  
                           i2u512_40 1B8E                             i2u424_40 0E0A  
                           i2u416_40 0D42                             i2u408_40 0C08  
                           i2u520_41 1C68                             i2u512_41 1B8A  
                           i2u424_41 0E06                             i2u416_41 0D3E  
                           i2u408_41 0C04                             i2u441_40 34EC  
                           i2u521_40 1C7C                             i2u513_40 1B9E  
                           i2u425_40 0E1A                             i2u417_40 0D52  
                           i2u409_40 0C26                             i2u441_41 34E8  
                           i2u521_41 1C78                             i2u513_41 1B9A  
                           i2u425_41 0E16                             i2u417_41 0D4E  
                           i2u409_41 0C22                             _PIR1bits 000F9E  
                           i2u442_40 34A4                             i2u514_40 1BB8  
                           i2u426_40 0E3A                             i2u418_40 0D64  
                           i2u450_40 1440                             i2u522_40 3450  
                           i2u442_41 34A0                             i2u514_41 1BB4  
                           i2u426_41 0E36                             i2u418_41 0D60  
                           i2u450_41 143C                             i2u522_41 344C  
                           i2u443_40 3488                             i2u515_40 1BCA  
                           i2u427_40 0E4C                             i2u419_40 0D7A  
                           i2u451_40 149C                             i2u523_40 346C  
                           i2u443_41 3484                             i2u515_41 1BC6  
                           i2u427_41 0E48                             i2u419_41 0D76  
                           i2u451_41 1498                             i2u523_41 3468  
                           _PIR2bits 000FA1                             i2u516_40 1BDA  
                           i2u444_40 210C                             i2u428_40 0E68  
                           i2u452_40 14F2                             i2u516_41 1BD6  
                           i2u444_41 2108                             i2u428_41 0E64  
                           i2u452_41 14EE                             i2u517_40 1BF4  
                           i2u445_40 214A                             i2u453_40 153C  
                           i2u517_41 1BF0                             i2u445_41 2146  
                           i2u453_41 1538                             i2u518_40 1C1A  
                           i2u446_40 2168                             i2u390_40 09D6  
                           i2u454_40 155A                             i2u518_41 1C16  
                           i2u446_41 2164                             i2u390_41 09D2  
                           i2u454_41 1556                             i2u606_47 1C9E  
                           i2u519_40 1C4C                             i2u447_40 2188  
                           i2u391_40 09E8                             i2u455_40 156A  
                           i2u519_41 1C48                             i2u447_41 2184  
                           i2u391_41 09E4                             i2u455_41 1566  
                           i2u448_40 21D8                             i2u392_40 09F8  
                           i2u456_40 1578                             i2u560_40 2580  
                           i2u480_41 2F46                             i2u448_41 21D4  
                           i2u392_41 09F4                             i2u456_41 1574  
                           i2u560_41 257C                             i2u481_40 2F76  
                           i2u393_40 0A3A                             i2u457_40 15B2  
                           i2u449_40 1432                             i2u561_40 259E  
                           i2u481_41 2F72                             i2u393_41 0A36  
                           i2u457_41 15AE                             i2u449_41 142E  
                           i2u561_41 259A                             i2u394_40 0A50  
                           i2u458_40 15C0                             i2u562_40 25C0  
                           i2u570_40 1D88                             i2u482_41 2F0A  
                           i2u394_41 0A4C                             i2u458_41 15BC  
                           i2u562_41 25BC                             i2u570_41 1D84  
                           i2u483_40 2F3A                             i2u459_40 2E9E  
                           i2u395_40 0A62                             i2u563_40 25D8  
                           i2u483_41 2F36                             i2u459_41 2E9A  
                           i2u395_41 0A5E                             i2u563_41 25D4  
                           i2u396_40 0A72                             i2u564_40 1CB4  
                           i2u484_41 2F82                             i2u396_41 0A6E  
                           i2u564_41 1CB0                             i2u485_40 2FB2  
                           i2u397_40 0AAE                             i2u565_40 1CC2  
                           i2u485_41 2FAE                             i2u397_41 0AAA  
                           i2u565_41 1CBE                             i2u398_40 0ABC  
                           i2u566_40 1D0E                             i2u398_41 0AB8  
                           i2u566_41 1D0A                             i2u399_40 0B2A  
                           i2u567_40 1D1C                             i2u399_41 0B26  
                           i2u567_41 1D18                             i2u568_40 1D68  
                           i2u568_41 1D64                             i2u569_40 1D76  
                           i2u569_41 1D72                             _PREGUNTA 2D44  
                __end_of_imprimirINS 26A8                             _RCONbits 000FD0  
              __size_of_SETPOINEXIST 0040                     __CFG_WDTPS$32768 000000  
                           _PROBLEMA 2C42                  __end_of_imprimirSet 109A  
                   ?i2_PWMDutyCycle1 0001                     ?i2_PWMDutyCycle2 0001  
                __end_of_PREEJECUTAR 297C                             _UARTRead 29E2  
                       EEPROM_W@dato 0060                 __size_of_GuardarsetN 0038  
               __size_of_GuardarsetX 0026                 __size_of_GuardarsetY 0026  
                           i2___flge 20DE                    ___wmul@multiplier 0060  
                           i2___wmul 3356                             Obt@valor 006B  
                           _PWMconfi 337C                     __size_of_LIMITEX 003C  
                   __size_of_LIMITEY 003C                     __size_of_MENUINS 0040  
                  i2UARTWrite@txData 0001                     __size_of_OCUPADO 0036  
                __end_ofi2_UARTWrite 34F2                     __size_ofi2_DIR_A 001C  
                   __size_ofi2_DIR_B 001C                     __size_of_SETNOEX 0040  
                   __size_of_INT_isr 1DA8                          _INTCON2bits 000FF1  
                        _INTCON3bits 000FF0                       ??_NOcoordenada 0061  
                          copy_data0 280C                            copy_data1 282C  
                          copy_data2 284C                            copy_data3 286C  
                       _SETPOINEXIST 2D04                     __size_of_EditseT 01CE  
                         _EECON1bits 000FA6                             __Hrparam 0000  
                           _Tardanza 2FEE                             __Lrparam 0000  
                        _INSTRUCCION 26A8                     __size_of___fladd 04C2  
                   __size_of___flsub 0048                       NOcomando@F3677 00DB  
              i2___wmul@multiplicand 0003                        ?i2_motoresmov 0035  
                   __size_of___lwdiv 0076                     __size_of___lwmod 0066  
               __size_of_ExtraerDato 0036                      EJECUTARINS@dato 00AA  
                       ??_inter_init 0060                        NOHAYESPACIO@C 0088  
                      NOHAYESPACIO@F 0061                         CONTADOR@DifA 0065  
                       CONTADOR@DifB 0067                             ___xxtofl 1268  
                    ___lwdiv@divisor 0067                      ___lwdiv@counter 006B  
                           __ptext10 1742                             __ptext11 2A9E  
                           __ptext20 1DB0                             __ptext12 30D4  
                           __ptext21 1268                             __ptext13 3028  
                           __ptext30 33E0                             __ptext22 326C  
                           __ptext14 2EC4                             __ptext31 3400  
                           __ptext23 2AEA                             __ptext15 2BBC  
                           __ptext40 2D44                             __ptext32 310A  
                           __ptext24 04FA                             __ptext16 2468  
                           __ptext41 26A8                             __ptext33 109A  
                           __ptext25 1FD8                             __ptext17 239C  
                           __ptext50 3330                             __ptext42 2D84  
                           __ptext34 2D04                             __ptext26 19FA  
                           __ptext18 33A0                             __ptext51 18A6  
                           __ptext43 2DC4                             __ptext35 15D4  
                           __ptext27 2C00                             __ptext19 33C0  
                           __ptext60 343E                             __ptext52 297C  
                           __ptext44 2754                             __ptext36 3062  
                           __ptext28 3214                             __ptext61 345A  
                           __ptext53 2898                             __ptext45 29E2  
                           __ptext37 32E4                             __ptext29 3240  
                           __ptext70 3140                             __ptext62 1ECA  
                           __ptext54 34AE                             __ptext46 2C42  
                           __ptext38 330A                             __ptext71 2F00  
                           __ptext63 1420                             __ptext55 2E44  
                           __ptext47 21E2                             __ptext39 2A46  
                           __ptext80 2F78                             __ptext72 3176  
                           __ptext64 3356                             __ptext56 31AC  
                           __ptext48 2E04                             __ptext81 34DC  
                           __ptext73 3294                             __ptext65 2B32  
                           __ptext57 34F2                             __ptext49 309C  
                           __ptext74 32BC                             __ptext66 09BC  
                           __ptext75 2F3C                             __ptext67 20DE  
                           __ptext59 2532                             __ptext76 3516  
                           __ptext68 1B40                             __ptext77 3504  
                           __ptext69 2E84                             __ptext78 3476  
                           __ptext79 3492                          EditseT@dato 0082  
                        EditseT@send 007D                    NOcoordenada@F3681 00D8  
                      _COORReal$2315 007D  __size_of_Mensaje_comando_completado 003C  
                        _imprimirINS 25F4                        __size_of_main 04E8  
                        _imprimirSet 0E7C                   INSTRUCCION@Menumov 0089  
                        _PREEJECUTAR 290E                           NOcomando@C 0064  
                         NOcomando@F 0061                     imprimirSet@F3622 00B2  
              __size_ofi2_Conversion 010E                   __end_of_inter_init 2BBC  
                        EEPROM_R@dir 0060                          EEPROM_W@dir 0061  
                         _CVRCONbits 000FB5                             int$flags 005F  
        Mensaje_comando_completado@C 0063          Mensaje_comando_completado@F 0061  
                     ??i2_motoresmov 0039                         ??_motoresmov 0098  
                   imprimirSet@i_220 0082                         ?_EJECUTARINS 009C  
                        i2_UARTWrite 34DC                       motoresmov@DifA 0098  
                     motoresmov@DifB 009A      Mensaje_comando_completado@F3636 00E3  
                     motoresmov@DifX 0094                       motoresmov@DifY 0096  
              __CFG_CPUDIV$OSC1_PLL2 000000                           _IMP_ACCION 2C84  
                         _INTCONbits 000FF2                      GuardarsetN@dato 0062  
                         i2_ENABLE_A 3492                           i2_ENABLE_B 3476  
               PWMDutyCycle1@PERCENT 0062              ESCRIBIRINSTRUCCION@dato 007A  
                         i2_CONTADOR 1B40              ESCRIBIRINSTRUCCION@send 007E  
                           intlevel2 0000                 PWMDutyCycle2@PERCENT 0062  
                    i2___xxtofl@sign 000F                         i2_Conversion 1ECA  
                   ___lwmod@dividend 0060                   __end_of_motoresmov 2468  
               __end_of_NOcoordenada 309C                       GuardarsetN@dir 0064  
            __size_of_SETPOINTBUSCAR 00E0                       GuardarsetX@dir 0066  
                     GuardarsetY@dir 0066               ESCRIBIRINSTRUCCION@dir 0080  
                __CFG_FOSC$INTOSC_EC 000000                      ___lwmod@divisor 0062  
                    ___lwmod@counter 0064               __size_of_PWMDutyCycle1 002C  
             __size_of_PWMDutyCycle2 002C                        ___fladd@signs 006C  
                       ___fladd@aexp 006D                         ___fladd@bexp 006E  
                   PREEJECUTAR@elecc 00B1                       ExtraerDato@Dir 0069  
                      NOcoordenada@C 0064                        NOcoordenada@F 0061  
                      COORReal@F3692 00C0                        ExtraerDato@DH 0067  
                      ExtraerDato@DL 0068                        ExtraerDato@DT 0065  
       __size_of_ESCRIBIRINSTRUCCION 00A4  
